
bin/parcv1-lw:     file format elf32-littlemips


Disassembly of section .text:

00080000 <_test>:
   80000:	3c020008 	lui	v1,0x8
   80004:	24420340 	addiu	v1,v1,832
   80008:	8c440000 	lw	a1,0(v1)
   8000c:	241d000d 	li	sp,13
   80010:	241e00ff 	li	at,255
   80014:	149e009c 	bne	a1,at,80288 <_fail>
   80018:	3c020008 	lui	v1,0x8
   8001c:	24420340 	addiu	v1,v1,832
   80020:	8c440004 	lw	a1,4(v1)
   80024:	241d000e 	li	sp,14
   80028:	241e7f00 	li	at,32512
   8002c:	149e0096 	bne	a1,at,80288 <_fail>
   80030:	3c020008 	lui	v1,0x8
   80034:	24420340 	addiu	v1,v1,832
   80038:	8c440008 	lw	a1,8(v1)
   8003c:	241d000f 	li	sp,15
   80040:	241e0ff0 	li	at,4080
   80044:	149e0090 	bne	a1,at,80288 <_fail>
   80048:	3c020008 	lui	v1,0x8
   8004c:	24420340 	addiu	v1,v1,832
   80050:	8c44000c 	lw	a1,12(v1)
   80054:	241d0010 	li	sp,16
   80058:	241e700f 	li	at,28687
   8005c:	149e008a 	bne	a1,at,80288 <_fail>
   80060:	3c020008 	lui	v1,0x8
   80064:	2442034c 	addiu	v1,v1,844
   80068:	8c44fff4 	lw	a1,-12(v1)
   8006c:	241d0011 	li	sp,17
   80070:	241e00ff 	li	at,255
   80074:	149e0084 	bne	a1,at,80288 <_fail>
   80078:	3c020008 	lui	v1,0x8
   8007c:	2442034c 	addiu	v1,v1,844
   80080:	8c44fff8 	lw	a1,-8(v1)
   80084:	241d0012 	li	sp,18
   80088:	241e7f00 	li	at,32512
   8008c:	149e007e 	bne	a1,at,80288 <_fail>
   80090:	3c020008 	lui	v1,0x8
   80094:	2442034c 	addiu	v1,v1,844
   80098:	8c44fffc 	lw	a1,-4(v1)
   8009c:	241d0013 	li	sp,19
   800a0:	241e0ff0 	li	at,4080
   800a4:	149e0078 	bne	a1,at,80288 <_fail>
   800a8:	3c020008 	lui	v1,0x8
   800ac:	2442034c 	addiu	v1,v1,844
   800b0:	8c440000 	lw	a1,0(v1)
   800b4:	241d0014 	li	sp,20
   800b8:	241e700f 	li	at,28687
   800bc:	149e0072 	bne	a1,at,80288 <_fail>
   800c0:	3c020008 	lui	v1,0x8
   800c4:	24420340 	addiu	v1,v1,832
   800c8:	2442ffe0 	addiu	v1,v1,-32
   800cc:	8c440020 	lw	a1,32(v1)
   800d0:	241d001b 	li	sp,27
   800d4:	241e00ff 	li	at,255
   800d8:	149e006b 	bne	a1,at,80288 <_fail>
   800dc:	3c020008 	lui	v1,0x8
   800e0:	24420340 	addiu	v1,v1,832
   800e4:	2442fffd 	addiu	v1,v1,-3
   800e8:	8c440007 	lw	a1,7(v1)
   800ec:	241d0022 	li	sp,34
   800f0:	241e7f00 	li	at,32512
   800f4:	149e0064 	bne	a1,at,80288 <_fail>
   800f8:	3c020008 	lui	v1,0x8
   800fc:	24420340 	addiu	v1,v1,832
   80100:	8c440000 	lw	a1,0(v1)
   80104:	24870000 	addiu	a4,a1,0
   80108:	241d0028 	li	sp,40
   8010c:	241e00ff 	li	at,255
   80110:	14fe005d 	bne	a4,at,80288 <_fail>
   80114:	3c020008 	lui	v1,0x8
   80118:	24420340 	addiu	v1,v1,832
   8011c:	8c440004 	lw	a1,4(v1)
   80120:	00000000 	nop
   80124:	24870000 	addiu	a4,a1,0
   80128:	241d0029 	li	sp,41
   8012c:	241e7f00 	li	at,32512
   80130:	14fe0055 	bne	a4,at,80288 <_fail>
   80134:	3c020008 	lui	v1,0x8
   80138:	24420344 	addiu	v1,v1,836
   8013c:	8c440000 	lw	a1,0(v1)
   80140:	00000000 	nop
   80144:	00000000 	nop
   80148:	24870000 	addiu	a4,a1,0
   8014c:	241d002a 	li	sp,42
   80150:	241e7f00 	li	at,32512
   80154:	14fe004c 	bne	a4,at,80288 <_fail>
   80158:	3c020008 	lui	v1,0x8
   8015c:	24420344 	addiu	v1,v1,836
   80160:	8c440004 	lw	a1,4(v1)
   80164:	00000000 	nop
   80168:	00000000 	nop
   8016c:	00000000 	nop
   80170:	24870000 	addiu	a4,a1,0
   80174:	241d002b 	li	sp,43
   80178:	241e0ff0 	li	at,4080
   8017c:	14fe0042 	bne	a4,at,80288 <_fail>
   80180:	3c020008 	lui	v1,0x8
   80184:	2442034c 	addiu	v1,v1,844
   80188:	8c440000 	lw	a1,0(v1)
   8018c:	00000000 	nop
   80190:	00000000 	nop
   80194:	00000000 	nop
   80198:	00000000 	nop
   8019c:	24870000 	addiu	a4,a1,0
   801a0:	241d002c 	li	sp,44
   801a4:	241e700f 	li	at,28687
   801a8:	14fe0037 	bne	a4,at,80288 <_fail>
   801ac:	3c020008 	lui	v1,0x8
   801b0:	24420340 	addiu	v1,v1,832
   801b4:	8c440000 	lw	a1,0(v1)
   801b8:	241d002e 	li	sp,46
   801bc:	241e00ff 	li	at,255
   801c0:	149e0031 	bne	a1,at,80288 <_fail>
   801c4:	3c020008 	lui	v1,0x8
   801c8:	24420340 	addiu	v1,v1,832
   801cc:	00000000 	nop
   801d0:	8c440004 	lw	a1,4(v1)
   801d4:	241d002f 	li	sp,47
   801d8:	241e7f00 	li	at,32512
   801dc:	149e002a 	bne	a1,at,80288 <_fail>
   801e0:	3c020008 	lui	v1,0x8
   801e4:	24420344 	addiu	v1,v1,836
   801e8:	00000000 	nop
   801ec:	00000000 	nop
   801f0:	8c440000 	lw	a1,0(v1)
   801f4:	241d0030 	li	sp,48
   801f8:	241e7f00 	li	at,32512
   801fc:	149e0022 	bne	a1,at,80288 <_fail>
   80200:	3c020008 	lui	v1,0x8
   80204:	24420344 	addiu	v1,v1,836
   80208:	00000000 	nop
   8020c:	00000000 	nop
   80210:	00000000 	nop
   80214:	8c440004 	lw	a1,4(v1)
   80218:	241d0031 	li	sp,49
   8021c:	241e0ff0 	li	at,4080
   80220:	149e0019 	bne	a1,at,80288 <_fail>
   80224:	3c020008 	lui	v1,0x8
   80228:	2442034c 	addiu	v1,v1,844
   8022c:	00000000 	nop
   80230:	00000000 	nop
   80234:	00000000 	nop
   80238:	00000000 	nop
   8023c:	8c440000 	lw	a1,0(v1)
   80240:	241d0032 	li	sp,50
   80244:	241e700f 	li	at,28687
   80248:	149e000f 	bne	a1,at,80288 <_fail>
   8024c:	3c040008 	lui	a1,0x8
   80250:	24840340 	addiu	a1,a1,832
   80254:	8c830004 	lw	a0,4(a1)
   80258:	24030002 	li	a0,2
   8025c:	241d0039 	li	sp,57
   80260:	241e0002 	li	at,2
   80264:	147e0008 	bne	a0,at,80288 <_fail>
   80268:	3c050008 	lui	a2,0x8
   8026c:	24a50340 	addiu	a2,a2,832
   80270:	8ca60004 	lw	a3,4(a2)
   80274:	24c70001 	addiu	a4,a3,1
   80278:	241d0040 	li	sp,64
   8027c:	241e7f01 	li	at,32513
   80280:	14fe0001 	bne	a4,at,80288 <_fail>

00080284 <_pass>:
   80284:	241d0001 	li	sp,1

00080288 <_fail>:
   80288:	24020001 	li	v1,1
   8028c:	409da800 	mtc0	sp,c0_staten
   80290:	1402ffff 	bne	zero,v1,80290 <_fail+0x8>
   80294:	00000000 	nop
   80298:	00000000 	nop
   8029c:	00000000 	nop
   802a0:	00000000 	nop
   802a4:	00000000 	nop
   802a8:	00000000 	nop
   802ac:	00000000 	nop
   802b0:	00000000 	nop
   802b4:	00000000 	nop
   802b8:	00000000 	nop
   802bc:	00000000 	nop
   802c0:	00000000 	nop
   802c4:	00000000 	nop
   802c8:	00000000 	nop
   802cc:	00000000 	nop
   802d0:	00000000 	nop
   802d4:	00000000 	nop
   802d8:	00000000 	nop
   802dc:	00000000 	nop
   802e0:	00000000 	nop
   802e4:	00000000 	nop
   802e8:	00000000 	nop
   802ec:	00000000 	nop
   802f0:	00000000 	nop
   802f4:	00000000 	nop
   802f8:	00000000 	nop
   802fc:	00000000 	nop
   80300:	00000000 	nop
   80304:	00000000 	nop
   80308:	00000000 	nop
   8030c:	00000000 	nop
   80310:	00000000 	nop
   80314:	00000000 	nop
   80318:	00000000 	nop
   8031c:	00000000 	nop
   80320:	00000000 	nop
   80324:	00000000 	nop
   80328:	00000000 	nop
   8032c:	00000000 	nop
   80330:	00000000 	nop
   80334:	00000000 	nop
   80338:	00000000 	nop
   8033c:	00000000 	nop
