
bin/parcv2-sltu:     file format elf32-littlemips


Disassembly of section .text:

00080000 <_test>:
   80000:	24020000 	li	v1,0
   80004:	24030000 	li	a0,0
   80008:	0043202b 	sltu	a1,v1,a0
   8000c:	241d000d 	li	sp,13
   80010:	148000c8 	bnez	a1,80334 <_fail>
   80014:	24020001 	li	v1,1
   80018:	24030001 	li	a0,1
   8001c:	0043202b 	sltu	a1,v1,a0
   80020:	241d000e 	li	sp,14
   80024:	148000c3 	bnez	a1,80334 <_fail>
   80028:	24020003 	li	v1,3
   8002c:	24030007 	li	a0,7
   80030:	0043202b 	sltu	a1,v1,a0
   80034:	241d000f 	li	sp,15
   80038:	241e0001 	li	at,1
   8003c:	149e00bd 	bne	a1,at,80334 <_fail>
   80040:	24020007 	li	v1,7
   80044:	24030003 	li	a0,3
   80048:	0043202b 	sltu	a1,v1,a0
   8004c:	241d0010 	li	sp,16
   80050:	148000b8 	bnez	a1,80334 <_fail>
   80054:	24020000 	li	v1,0
   80058:	24038000 	li	a0,-32768
   8005c:	0043202b 	sltu	a1,v1,a0
   80060:	241d0012 	li	sp,18
   80064:	241e0001 	li	at,1
   80068:	149e00b2 	bne	a1,at,80334 <_fail>
   8006c:	3c028000 	lui	v1,0x8000
   80070:	24030000 	li	a0,0
   80074:	0043202b 	sltu	a1,v1,a0
   80078:	241d0013 	li	sp,19
   8007c:	148000ad 	bnez	a1,80334 <_fail>
   80080:	3c028000 	lui	v1,0x8000
   80084:	24038000 	li	a0,-32768
   80088:	0043202b 	sltu	a1,v1,a0
   8008c:	241d0014 	li	sp,20
   80090:	241e0001 	li	at,1
   80094:	149e00a7 	bne	a1,at,80334 <_fail>
   80098:	24020000 	li	v1,0
   8009c:	24037fff 	li	a0,32767
   800a0:	0043202b 	sltu	a1,v1,a0
   800a4:	241d0016 	li	sp,22
   800a8:	241e0001 	li	at,1
   800ac:	149e00a1 	bne	a1,at,80334 <_fail>
   800b0:	3c027fff 	lui	v1,0x7fff
   800b4:	3442ffff 	ori	v1,v1,0xffff
   800b8:	24030000 	li	a0,0
   800bc:	0043202b 	sltu	a1,v1,a0
   800c0:	241d0017 	li	sp,23
   800c4:	1480009b 	bnez	a1,80334 <_fail>
   800c8:	3c027fff 	lui	v1,0x7fff
   800cc:	3442ffff 	ori	v1,v1,0xffff
   800d0:	24037fff 	li	a0,32767
   800d4:	0043202b 	sltu	a1,v1,a0
   800d8:	241d0018 	li	sp,24
   800dc:	14800095 	bnez	a1,80334 <_fail>
   800e0:	3c028000 	lui	v1,0x8000
   800e4:	24037fff 	li	a0,32767
   800e8:	0043202b 	sltu	a1,v1,a0
   800ec:	241d001a 	li	sp,26
   800f0:	14800090 	bnez	a1,80334 <_fail>
   800f4:	3c027fff 	lui	v1,0x7fff
   800f8:	3442ffff 	ori	v1,v1,0xffff
   800fc:	24038000 	li	a0,-32768
   80100:	0043202b 	sltu	a1,v1,a0
   80104:	241d001b 	li	sp,27
   80108:	241e0001 	li	at,1
   8010c:	149e0089 	bne	a1,at,80334 <_fail>
   80110:	24020000 	li	v1,0
   80114:	2403ffff 	li	a0,-1
   80118:	0043202b 	sltu	a1,v1,a0
   8011c:	241d001d 	li	sp,29
   80120:	241e0001 	li	at,1
   80124:	149e0083 	bne	a1,at,80334 <_fail>
   80128:	2402ffff 	li	v1,-1
   8012c:	24030001 	li	a0,1
   80130:	0043202b 	sltu	a1,v1,a0
   80134:	241d001e 	li	sp,30
   80138:	1480007e 	bnez	a1,80334 <_fail>
   8013c:	2402ffff 	li	v1,-1
   80140:	2403ffff 	li	a0,-1
   80144:	0043202b 	sltu	a1,v1,a0
   80148:	241d001f 	li	sp,31
   8014c:	14800079 	bnez	a1,80334 <_fail>
   80150:	2402000e 	li	v1,14
   80154:	2403000d 	li	a0,13
   80158:	0043102b 	sltu	v1,v1,a0
   8015c:	241d0025 	li	sp,37
   80160:	14400074 	bnez	v1,80334 <_fail>
   80164:	2402000b 	li	v1,11
   80168:	2403000d 	li	a0,13
   8016c:	0043182b 	sltu	a0,v1,a0
   80170:	241d0026 	li	sp,38
   80174:	241e0001 	li	at,1
   80178:	147e006e 	bne	a0,at,80334 <_fail>
   8017c:	2402000d 	li	v1,13
   80180:	0042102b 	sltu	v1,v1,v1
   80184:	241d0027 	li	sp,39
   80188:	1440006a 	bnez	v1,80334 <_fail>
   8018c:	2402000b 	li	v1,11
   80190:	2403000d 	li	a0,13
   80194:	0043202b 	sltu	a1,v1,a0
   80198:	24870000 	addiu	a4,a1,0
   8019c:	241d002d 	li	sp,45
   801a0:	241e0001 	li	at,1
   801a4:	14fe0063 	bne	a4,at,80334 <_fail>
   801a8:	2402000e 	li	v1,14
   801ac:	2403000d 	li	a0,13
   801b0:	0043202b 	sltu	a1,v1,a0
   801b4:	00000000 	nop
   801b8:	24870000 	addiu	a4,a1,0
   801bc:	241d002e 	li	sp,46
   801c0:	14e0005c 	bnez	a4,80334 <_fail>
   801c4:	2402000c 	li	v1,12
   801c8:	2403000d 	li	a0,13
   801cc:	0043202b 	sltu	a1,v1,a0
   801d0:	00000000 	nop
   801d4:	00000000 	nop
   801d8:	24870000 	addiu	a4,a1,0
   801dc:	241d002f 	li	sp,47
   801e0:	241e0001 	li	at,1
   801e4:	14fe0053 	bne	a4,at,80334 <_fail>
   801e8:	2402000e 	li	v1,14
   801ec:	2403000d 	li	a0,13
   801f0:	0043202b 	sltu	a1,v1,a0
   801f4:	241d0031 	li	sp,49
   801f8:	1480004e 	bnez	a1,80334 <_fail>
   801fc:	2402000b 	li	v1,11
   80200:	2403000d 	li	a0,13
   80204:	00000000 	nop
   80208:	0043202b 	sltu	a1,v1,a0
   8020c:	241d0032 	li	sp,50
   80210:	241e0001 	li	at,1
   80214:	149e0047 	bne	a1,at,80334 <_fail>
   80218:	2402000f 	li	v1,15
   8021c:	2403000d 	li	a0,13
   80220:	00000000 	nop
   80224:	00000000 	nop
   80228:	0043202b 	sltu	a1,v1,a0
   8022c:	241d0033 	li	sp,51
   80230:	14800040 	bnez	a1,80334 <_fail>
   80234:	2402000a 	li	v1,10
   80238:	00000000 	nop
   8023c:	2403000d 	li	a0,13
   80240:	0043202b 	sltu	a1,v1,a0
   80244:	241d0034 	li	sp,52
   80248:	241e0001 	li	at,1
   8024c:	149e0039 	bne	a1,at,80334 <_fail>
   80250:	24020010 	li	v1,16
   80254:	00000000 	nop
   80258:	2403000d 	li	a0,13
   8025c:	00000000 	nop
   80260:	0043202b 	sltu	a1,v1,a0
   80264:	241d0035 	li	sp,53
   80268:	14800032 	bnez	a1,80334 <_fail>
   8026c:	24020009 	li	v1,9
   80270:	00000000 	nop
   80274:	00000000 	nop
   80278:	2403000d 	li	a0,13
   8027c:	0043202b 	sltu	a1,v1,a0
   80280:	241d0036 	li	sp,54
   80284:	241e0001 	li	at,1
   80288:	149e002a 	bne	a1,at,80334 <_fail>
   8028c:	2403000d 	li	a0,13
   80290:	24020011 	li	v1,17
   80294:	0043202b 	sltu	a1,v1,a0
   80298:	241d0038 	li	sp,56
   8029c:	14800025 	bnez	a1,80334 <_fail>
   802a0:	2403000d 	li	a0,13
   802a4:	24020008 	li	v1,8
   802a8:	00000000 	nop
   802ac:	0043202b 	sltu	a1,v1,a0
   802b0:	241d0039 	li	sp,57
   802b4:	241e0001 	li	at,1
   802b8:	149e001e 	bne	a1,at,80334 <_fail>
   802bc:	2403000d 	li	a0,13
   802c0:	24020012 	li	v1,18
   802c4:	00000000 	nop
   802c8:	00000000 	nop
   802cc:	0043202b 	sltu	a1,v1,a0
   802d0:	241d003a 	li	sp,58
   802d4:	14800017 	bnez	a1,80334 <_fail>
   802d8:	2403000d 	li	a0,13
   802dc:	00000000 	nop
   802e0:	24020007 	li	v1,7
   802e4:	0043202b 	sltu	a1,v1,a0
   802e8:	241d003b 	li	sp,59
   802ec:	241e0001 	li	at,1
   802f0:	149e0010 	bne	a1,at,80334 <_fail>
   802f4:	2403000d 	li	a0,13
   802f8:	00000000 	nop
   802fc:	24020013 	li	v1,19
   80300:	00000000 	nop
   80304:	0043202b 	sltu	a1,v1,a0
   80308:	241d003c 	li	sp,60
   8030c:	14800009 	bnez	a1,80334 <_fail>
   80310:	2403000d 	li	a0,13
   80314:	00000000 	nop
   80318:	00000000 	nop
   8031c:	24020006 	li	v1,6
   80320:	0043202b 	sltu	a1,v1,a0
   80324:	241d003d 	li	sp,61
   80328:	241e0001 	li	at,1
   8032c:	149e0001 	bne	a1,at,80334 <_fail>

00080330 <_pass>:
   80330:	241d0001 	li	sp,1

00080334 <_fail>:
   80334:	24020001 	li	v1,1
   80338:	409da800 	mtc0	sp,c0_staten
   8033c:	1402ffff 	bne	zero,v1,8033c <_fail+0x8>
   80340:	00000000 	nop
   80344:	00000000 	nop
   80348:	00000000 	nop
   8034c:	00000000 	nop
   80350:	00000000 	nop
   80354:	00000000 	nop
   80358:	00000000 	nop
   8035c:	00000000 	nop
   80360:	00000000 	nop
   80364:	00000000 	nop
   80368:	00000000 	nop
   8036c:	00000000 	nop
   80370:	00000000 	nop
   80374:	00000000 	nop
   80378:	00000000 	nop
   8037c:	00000000 	nop
   80380:	00000000 	nop
   80384:	00000000 	nop
   80388:	00000000 	nop
   8038c:	00000000 	nop
   80390:	00000000 	nop
   80394:	00000000 	nop
   80398:	00000000 	nop
   8039c:	00000000 	nop
   803a0:	00000000 	nop
   803a4:	00000000 	nop
   803a8:	00000000 	nop
   803ac:	00000000 	nop
   803b0:	00000000 	nop
   803b4:	00000000 	nop
   803b8:	00000000 	nop
   803bc:	00000000 	nop
   803c0:	00000000 	nop
   803c4:	00000000 	nop
   803c8:	00000000 	nop
   803cc:	00000000 	nop
   803d0:	00000000 	nop
   803d4:	00000000 	nop
   803d8:	00000000 	nop
   803dc:	00000000 	nop
