
bin/parcv2-div:     file format elf32-littlemips


Disassembly of section .text:

00080000 <_test>:
   80000:	24020000 	li	v1,0
   80004:	24030001 	li	a0,1
   80008:	9c432005 	div	a1,v1,a0
   8000c:	241d000f 	li	sp,15
   80010:	14800140 	bnez	a1,80514 <_fail>
   80014:	24020001 	li	v1,1
   80018:	24030001 	li	a0,1
   8001c:	9c432005 	div	a1,v1,a0
   80020:	241d0010 	li	sp,16
   80024:	241e0001 	li	at,1
   80028:	149e013a 	bne	a1,at,80514 <_fail>
   8002c:	24020000 	li	v1,0
   80030:	2403ffff 	li	a0,-1
   80034:	9c432005 	div	a1,v1,a0
   80038:	241d0011 	li	sp,17
   8003c:	14800135 	bnez	a1,80514 <_fail>
   80040:	2402ffff 	li	v1,-1
   80044:	2403ffff 	li	a0,-1
   80048:	9c432005 	div	a1,v1,a0
   8004c:	241d0012 	li	sp,18
   80050:	241e0001 	li	at,1
   80054:	149e012f 	bne	a1,at,80514 <_fail>
   80058:	24020222 	li	v1,546
   8005c:	2403002a 	li	a0,42
   80060:	9c432005 	div	a1,v1,a0
   80064:	241d0016 	li	sp,22
   80068:	241e000d 	li	at,13
   8006c:	149e0129 	bne	a1,at,80514 <_fail>
   80070:	3402f8ec 	li	v1,0xf8ec
   80074:	240302cc 	li	a0,716
   80078:	9c432005 	div	a1,v1,a0
   8007c:	241d0017 	li	sp,23
   80080:	241e0059 	li	at,89
   80084:	149e0123 	bne	a1,at,80514 <_fail>
   80088:	3c020a01 	lui	v1,0xa01
   8008c:	3442b044 	ori	v1,v1,0xb044
   80090:	24034eba 	li	a0,20154
   80094:	9c432005 	div	a1,v1,a0
   80098:	241d0018 	li	sp,24
   8009c:	241e208a 	li	at,8330
   800a0:	149e011c 	bne	a1,at,80514 <_fail>
   800a4:	2402fdde 	li	v1,-546
   800a8:	2403002a 	li	a0,42
   800ac:	9c432005 	div	a1,v1,a0
   800b0:	241d001c 	li	sp,28
   800b4:	241efff3 	li	at,-13
   800b8:	149e0116 	bne	a1,at,80514 <_fail>
   800bc:	3c02ffff 	lui	v1,0xffff
   800c0:	34420714 	ori	v1,v1,0x714
   800c4:	2403fd34 	li	a0,-716
   800c8:	9c432005 	div	a1,v1,a0
   800cc:	241d001d 	li	sp,29
   800d0:	241e0059 	li	at,89
   800d4:	149e010f 	bne	a1,at,80514 <_fail>
   800d8:	3c020a01 	lui	v1,0xa01
   800dc:	3442b044 	ori	v1,v1,0xb044
   800e0:	2403b146 	li	a0,-20154
   800e4:	9c432005 	div	a1,v1,a0
   800e8:	241d001e 	li	sp,30
   800ec:	241edf76 	li	at,-8330
   800f0:	149e0108 	bne	a1,at,80514 <_fail>
   800f4:	24020032 	li	v1,50
   800f8:	24030222 	li	a0,546
   800fc:	9c432005 	div	a1,v1,a0
   80100:	241d0022 	li	sp,34
   80104:	14800103 	bnez	a1,80514 <_fail>
   80108:	24020222 	li	v1,546
   8010c:	24030032 	li	a0,50
   80110:	9c432005 	div	a1,v1,a0
   80114:	241d0023 	li	sp,35
   80118:	241e000a 	li	at,10
   8011c:	149e00fd 	bne	a1,at,80514 <_fail>
   80120:	3402f8ec 	li	v1,0xf8ec
   80124:	24030319 	li	a0,793
   80128:	9c432005 	div	a1,v1,a0
   8012c:	241d0024 	li	sp,36
   80130:	241e0050 	li	at,80
   80134:	149e00f7 	bne	a1,at,80514 <_fail>
   80138:	3c020a01 	lui	v1,0xa01
   8013c:	3442b044 	ori	v1,v1,0xb044
   80140:	24034eb6 	li	a0,20150
   80144:	9c432005 	div	a1,v1,a0
   80148:	241d0025 	li	sp,37
   8014c:	241e208b 	li	at,8331
   80150:	149e00f0 	bne	a1,at,80514 <_fail>
   80154:	24020032 	li	v1,50
   80158:	2403fdde 	li	a0,-546
   8015c:	9c432005 	div	a1,v1,a0
   80160:	241d0029 	li	sp,41
   80164:	148000eb 	bnez	a1,80514 <_fail>
   80168:	2402fdde 	li	v1,-546
   8016c:	24030032 	li	a0,50
   80170:	9c432005 	div	a1,v1,a0
   80174:	241d002a 	li	sp,42
   80178:	241efff6 	li	at,-10
   8017c:	149e00e5 	bne	a1,at,80514 <_fail>
   80180:	3c02ffff 	lui	v1,0xffff
   80184:	34420714 	ori	v1,v1,0x714
   80188:	2403fce7 	li	a0,-793
   8018c:	9c432005 	div	a1,v1,a0
   80190:	241d002b 	li	sp,43
   80194:	241e0050 	li	at,80
   80198:	149e00de 	bne	a1,at,80514 <_fail>
   8019c:	3c020a01 	lui	v1,0xa01
   801a0:	3442b044 	ori	v1,v1,0xb044
   801a4:	2403b14a 	li	a0,-20150
   801a8:	9c432005 	div	a1,v1,a0
   801ac:	241d002c 	li	sp,44
   801b0:	241edf75 	li	at,-8331
   801b4:	149e00d7 	bne	a1,at,80514 <_fail>
   801b8:	3c02dead 	lui	v1,0xdead
   801bc:	3442beef 	ori	v1,v1,0xbeef
   801c0:	3403beef 	li	a0,0xbeef
   801c4:	9c432005 	div	a1,v1,a0
   801c8:	241d0030 	li	sp,48
   801cc:	241ed353 	li	at,-11437
   801d0:	149e00d0 	bne	a1,at,80514 <_fail>
   801d4:	3c02f5fe 	lui	v1,0xf5fe
   801d8:	34424fbc 	ori	v1,v1,0x4fbc
   801dc:	24034eb6 	li	a0,20150
   801e0:	9c432005 	div	a1,v1,a0
   801e4:	241d0031 	li	sp,49
   801e8:	241edf75 	li	at,-8331
   801ec:	149e00c9 	bne	a1,at,80514 <_fail>
   801f0:	3c02f5fe 	lui	v1,0xf5fe
   801f4:	34424fbc 	ori	v1,v1,0x4fbc
   801f8:	2403b14a 	li	a0,-20150
   801fc:	9c432005 	div	a1,v1,a0
   80200:	241d0032 	li	sp,50
   80204:	241e208b 	li	at,8331
   80208:	149e00c2 	bne	a1,at,80514 <_fail>
   8020c:	2402008f 	li	v1,143
   80210:	2403000b 	li	a0,11
   80214:	9c431005 	div	v1,v1,a0
   80218:	241d0038 	li	sp,56
   8021c:	241e000d 	li	at,13
   80220:	145e00bc 	bne	v1,at,80514 <_fail>
   80224:	2402009a 	li	v1,154
   80228:	2403000b 	li	a0,11
   8022c:	9c431805 	div	a0,v1,a0
   80230:	241d0039 	li	sp,57
   80234:	241e000e 	li	at,14
   80238:	147e00b6 	bne	a0,at,80514 <_fail>
   8023c:	2402000f 	li	v1,15
   80240:	9c421805 	div	a0,v1,v1
   80244:	241d003a 	li	sp,58
   80248:	241e0001 	li	at,1
   8024c:	147e00b1 	bne	a0,at,80514 <_fail>
   80250:	24020010 	li	v1,16
   80254:	9c421005 	div	v1,v1,v1
   80258:	241d003b 	li	sp,59
   8025c:	241e0001 	li	at,1
   80260:	145e00ac 	bne	v1,at,80514 <_fail>
   80264:	2402008f 	li	v1,143
   80268:	2403000b 	li	a0,11
   8026c:	9c432005 	div	a1,v1,a0
   80270:	24870000 	addiu	a4,a1,0
   80274:	241d0041 	li	sp,65
   80278:	241e000d 	li	at,13
   8027c:	14fe00a5 	bne	a4,at,80514 <_fail>
   80280:	2402009a 	li	v1,154
   80284:	2403000b 	li	a0,11
   80288:	9c432005 	div	a1,v1,a0
   8028c:	00000000 	nop
   80290:	24870000 	addiu	a4,a1,0
   80294:	241d0042 	li	sp,66
   80298:	241e000e 	li	at,14
   8029c:	14fe009d 	bne	a4,at,80514 <_fail>
   802a0:	240200a5 	li	v1,165
   802a4:	2403000b 	li	a0,11
   802a8:	9c432005 	div	a1,v1,a0
   802ac:	00000000 	nop
   802b0:	00000000 	nop
   802b4:	24870000 	addiu	a4,a1,0
   802b8:	241d0043 	li	sp,67
   802bc:	241e000f 	li	at,15
   802c0:	14fe0094 	bne	a4,at,80514 <_fail>
   802c4:	240200b0 	li	v1,176
   802c8:	2403000b 	li	a0,11
   802cc:	9c432005 	div	a1,v1,a0
   802d0:	00000000 	nop
   802d4:	00000000 	nop
   802d8:	00000000 	nop
   802dc:	24870000 	addiu	a4,a1,0
   802e0:	241d0044 	li	sp,68
   802e4:	241e0010 	li	at,16
   802e8:	14fe008a 	bne	a4,at,80514 <_fail>
   802ec:	240200bb 	li	v1,187
   802f0:	2403000b 	li	a0,11
   802f4:	9c432005 	div	a1,v1,a0
   802f8:	00000000 	nop
   802fc:	00000000 	nop
   80300:	00000000 	nop
   80304:	00000000 	nop
   80308:	24870000 	addiu	a4,a1,0
   8030c:	241d0045 	li	sp,69
   80310:	241e0011 	li	at,17
   80314:	14fe007f 	bne	a4,at,80514 <_fail>
   80318:	2402008f 	li	v1,143
   8031c:	2403000b 	li	a0,11
   80320:	9c432005 	div	a1,v1,a0
   80324:	241d0047 	li	sp,71
   80328:	241e000d 	li	at,13
   8032c:	149e0079 	bne	a1,at,80514 <_fail>
   80330:	2402009a 	li	v1,154
   80334:	2403000b 	li	a0,11
   80338:	00000000 	nop
   8033c:	9c432005 	div	a1,v1,a0
   80340:	241d0048 	li	sp,72
   80344:	241e000e 	li	at,14
   80348:	149e0072 	bne	a1,at,80514 <_fail>
   8034c:	240200a5 	li	v1,165
   80350:	2403000b 	li	a0,11
   80354:	00000000 	nop
   80358:	00000000 	nop
   8035c:	9c432005 	div	a1,v1,a0
   80360:	241d0049 	li	sp,73
   80364:	241e000f 	li	at,15
   80368:	149e006a 	bne	a1,at,80514 <_fail>
   8036c:	240200b0 	li	v1,176
   80370:	2403000b 	li	a0,11
   80374:	00000000 	nop
   80378:	00000000 	nop
   8037c:	00000000 	nop
   80380:	9c432005 	div	a1,v1,a0
   80384:	241d004a 	li	sp,74
   80388:	241e0010 	li	at,16
   8038c:	149e0061 	bne	a1,at,80514 <_fail>
   80390:	240200bb 	li	v1,187
   80394:	2403000b 	li	a0,11
   80398:	00000000 	nop
   8039c:	00000000 	nop
   803a0:	00000000 	nop
   803a4:	00000000 	nop
   803a8:	9c432005 	div	a1,v1,a0
   803ac:	241d004b 	li	sp,75
   803b0:	241e0011 	li	at,17
   803b4:	149e0057 	bne	a1,at,80514 <_fail>
   803b8:	2402008f 	li	v1,143
   803bc:	00000000 	nop
   803c0:	2403000b 	li	a0,11
   803c4:	9c432005 	div	a1,v1,a0
   803c8:	241d004d 	li	sp,77
   803cc:	241e000d 	li	at,13
   803d0:	149e0050 	bne	a1,at,80514 <_fail>
   803d4:	2402009a 	li	v1,154
   803d8:	00000000 	nop
   803dc:	2403000b 	li	a0,11
   803e0:	00000000 	nop
   803e4:	9c432005 	div	a1,v1,a0
   803e8:	241d004e 	li	sp,78
   803ec:	241e000e 	li	at,14
   803f0:	149e0048 	bne	a1,at,80514 <_fail>
   803f4:	240200a5 	li	v1,165
   803f8:	00000000 	nop
   803fc:	00000000 	nop
   80400:	2403000b 	li	a0,11
   80404:	9c432005 	div	a1,v1,a0
   80408:	241d004f 	li	sp,79
   8040c:	241e000f 	li	at,15
   80410:	149e0040 	bne	a1,at,80514 <_fail>
   80414:	2403000b 	li	a0,11
   80418:	2402008f 	li	v1,143
   8041c:	9c432005 	div	a1,v1,a0
   80420:	241d0051 	li	sp,81
   80424:	241e000d 	li	at,13
   80428:	149e003a 	bne	a1,at,80514 <_fail>
   8042c:	2403000b 	li	a0,11
   80430:	2402009a 	li	v1,154
   80434:	00000000 	nop
   80438:	9c432005 	div	a1,v1,a0
   8043c:	241d0052 	li	sp,82
   80440:	241e000e 	li	at,14
   80444:	149e0033 	bne	a1,at,80514 <_fail>
   80448:	2403000b 	li	a0,11
   8044c:	240200a5 	li	v1,165
   80450:	00000000 	nop
   80454:	00000000 	nop
   80458:	9c432005 	div	a1,v1,a0
   8045c:	241d0053 	li	sp,83
   80460:	241e000f 	li	at,15
   80464:	149e002b 	bne	a1,at,80514 <_fail>
   80468:	2403000b 	li	a0,11
   8046c:	240200b0 	li	v1,176
   80470:	00000000 	nop
   80474:	00000000 	nop
   80478:	00000000 	nop
   8047c:	9c432005 	div	a1,v1,a0
   80480:	241d0054 	li	sp,84
   80484:	241e0010 	li	at,16
   80488:	149e0022 	bne	a1,at,80514 <_fail>
   8048c:	2403000b 	li	a0,11
   80490:	240200bb 	li	v1,187
   80494:	00000000 	nop
   80498:	00000000 	nop
   8049c:	00000000 	nop
   804a0:	00000000 	nop
   804a4:	9c432005 	div	a1,v1,a0
   804a8:	241d0055 	li	sp,85
   804ac:	241e0011 	li	at,17
   804b0:	149e0018 	bne	a1,at,80514 <_fail>
   804b4:	2403000b 	li	a0,11
   804b8:	00000000 	nop
   804bc:	2402008f 	li	v1,143
   804c0:	9c432005 	div	a1,v1,a0
   804c4:	241d0057 	li	sp,87
   804c8:	241e000d 	li	at,13
   804cc:	149e0011 	bne	a1,at,80514 <_fail>
   804d0:	2403000b 	li	a0,11
   804d4:	00000000 	nop
   804d8:	2402009a 	li	v1,154
   804dc:	00000000 	nop
   804e0:	9c432005 	div	a1,v1,a0
   804e4:	241d0058 	li	sp,88
   804e8:	241e000e 	li	at,14
   804ec:	149e0009 	bne	a1,at,80514 <_fail>
   804f0:	2403000b 	li	a0,11
   804f4:	00000000 	nop
   804f8:	00000000 	nop
   804fc:	240200a5 	li	v1,165
   80500:	9c432005 	div	a1,v1,a0
   80504:	241d0059 	li	sp,89
   80508:	241e000f 	li	at,15
   8050c:	149e0001 	bne	a1,at,80514 <_fail>

00080510 <_pass>:
   80510:	241d0001 	li	sp,1

00080514 <_fail>:
   80514:	24020001 	li	v1,1
   80518:	409da800 	mtc0	sp,c0_staten
   8051c:	1402ffff 	bne	zero,v1,8051c <_fail+0x8>
   80520:	00000000 	nop
   80524:	00000000 	nop
   80528:	00000000 	nop
   8052c:	00000000 	nop
   80530:	00000000 	nop
   80534:	00000000 	nop
   80538:	00000000 	nop
   8053c:	00000000 	nop
   80540:	00000000 	nop
   80544:	00000000 	nop
   80548:	00000000 	nop
   8054c:	00000000 	nop
   80550:	00000000 	nop
   80554:	00000000 	nop
   80558:	00000000 	nop
   8055c:	00000000 	nop
   80560:	00000000 	nop
   80564:	00000000 	nop
   80568:	00000000 	nop
   8056c:	00000000 	nop
   80570:	00000000 	nop
   80574:	00000000 	nop
   80578:	00000000 	nop
   8057c:	00000000 	nop
   80580:	00000000 	nop
   80584:	00000000 	nop
   80588:	00000000 	nop
   8058c:	00000000 	nop
   80590:	00000000 	nop
   80594:	00000000 	nop
   80598:	00000000 	nop
   8059c:	00000000 	nop
   805a0:	00000000 	nop
   805a4:	00000000 	nop
   805a8:	00000000 	nop
   805ac:	00000000 	nop
   805b0:	00000000 	nop
   805b4:	00000000 	nop
   805b8:	00000000 	nop
   805bc:	00000000 	nop
