
bin/parcv1-lui:     file format elf32-littlemips


Disassembly of section .text:

00080000 <_test>:
   80000:	24020000 	li	v1,0
   80004:	3c020000 	lui	v1,0x0
   80008:	241d000d 	li	sp,13
   8000c:	14400025 	bnez	v1,800a4 <_fail>
   80010:	24020000 	li	v1,0
   80014:	3c02ffff 	lui	v1,0xffff
   80018:	241d000e 	li	sp,14
   8001c:	3c1effff 	lui	at,0xffff
   80020:	145e0020 	bne	v1,at,800a4 <_fail>
   80024:	24020000 	li	v1,0
   80028:	3c027fff 	lui	v1,0x7fff
   8002c:	241d000f 	li	sp,15
   80030:	3c1e7fff 	lui	at,0x7fff
   80034:	145e001b 	bne	v1,at,800a4 <_fail>
   80038:	24020000 	li	v1,0
   8003c:	3c028000 	lui	v1,0x8000
   80040:	241d0010 	li	sp,16
   80044:	3c1e8000 	lui	at,0x8000
   80048:	145e0016 	bne	v1,at,800a4 <_fail>
   8004c:	24020000 	li	v1,0
   80050:	3c02ffff 	lui	v1,0xffff
   80054:	24430000 	addiu	a0,v1,0
   80058:	241d0016 	li	sp,22
   8005c:	3c1effff 	lui	at,0xffff
   80060:	147e0010 	bne	a0,at,800a4 <_fail>
   80064:	24020000 	li	v1,0
   80068:	3c027fff 	lui	v1,0x7fff
   8006c:	00000000 	nop
   80070:	24430000 	addiu	a0,v1,0
   80074:	241d0017 	li	sp,23
   80078:	3c1e7fff 	lui	at,0x7fff
   8007c:	147e0009 	bne	a0,at,800a4 <_fail>
   80080:	24020000 	li	v1,0
   80084:	3c028000 	lui	v1,0x8000
   80088:	00000000 	nop
   8008c:	00000000 	nop
   80090:	24430000 	addiu	a0,v1,0
   80094:	241d0018 	li	sp,24
   80098:	3c1e8000 	lui	at,0x8000
   8009c:	147e0001 	bne	a0,at,800a4 <_fail>

000800a0 <_pass>:
   800a0:	241d0001 	li	sp,1

000800a4 <_fail>:
   800a4:	24020001 	li	v1,1
   800a8:	409da800 	mtc0	sp,c0_staten
   800ac:	1402ffff 	bne	zero,v1,800ac <_fail+0x8>
   800b0:	00000000 	nop
   800b4:	00000000 	nop
   800b8:	00000000 	nop
   800bc:	00000000 	nop
   800c0:	00000000 	nop
   800c4:	00000000 	nop
   800c8:	00000000 	nop
   800cc:	00000000 	nop
   800d0:	00000000 	nop
   800d4:	00000000 	nop
   800d8:	00000000 	nop
   800dc:	00000000 	nop
   800e0:	00000000 	nop
   800e4:	00000000 	nop
   800e8:	00000000 	nop
   800ec:	00000000 	nop
   800f0:	00000000 	nop
   800f4:	00000000 	nop
   800f8:	00000000 	nop
   800fc:	00000000 	nop
   80100:	00000000 	nop
   80104:	00000000 	nop
   80108:	00000000 	nop
   8010c:	00000000 	nop
   80110:	00000000 	nop
   80114:	00000000 	nop
   80118:	00000000 	nop
   8011c:	00000000 	nop
   80120:	00000000 	nop
   80124:	00000000 	nop
   80128:	00000000 	nop
   8012c:	00000000 	nop
   80130:	00000000 	nop
   80134:	00000000 	nop
   80138:	00000000 	nop
   8013c:	00000000 	nop
   80140:	00000000 	nop
   80144:	00000000 	nop
   80148:	00000000 	nop
   8014c:	00000000 	nop
