
bin/parcv2-blez:     file format elf32-littlemips


Disassembly of section .text:

00080000 <_test>:
   80000:	24020000 	li	v1,0
   80004:	18400004 	blez	v1,80018 <_test+0x18>
   80008:	241d000d 	li	sp,13
   8000c:	17a0003d 	bnez	sp,80104 <_fail>
   80010:	24030001 	li	a0,1
   80014:	14030003 	bne	zero,a0,80024 <_test+0x24>
   80018:	1840fffd 	blez	v1,80010 <_test+0x10>
   8001c:	241d000d 	li	sp,13
   80020:	17a00038 	bnez	sp,80104 <_fail>
   80024:	2402ffff 	li	v1,-1
   80028:	18400004 	blez	v1,8003c <_test+0x3c>
   8002c:	241d000e 	li	sp,14
   80030:	17a00034 	bnez	sp,80104 <_fail>
   80034:	24030001 	li	a0,1
   80038:	14030003 	bne	zero,a0,80048 <_test+0x48>
   8003c:	1840fffd 	blez	v1,80034 <_test+0x34>
   80040:	241d000e 	li	sp,14
   80044:	17a0002f 	bnez	sp,80104 <_fail>
   80048:	24020001 	li	v1,1
   8004c:	18400002 	blez	v1,80058 <_test+0x58>
   80050:	24030001 	li	a0,1
   80054:	14030002 	bne	zero,a0,80060 <_test+0x60>
   80058:	241d0010 	li	sp,16
   8005c:	17a00029 	bnez	sp,80104 <_fail>
   80060:	1840fffd 	blez	v1,80058 <_test+0x58>
   80064:	2402000a 	li	v1,10
   80068:	18400002 	blez	v1,80074 <_test+0x74>
   8006c:	24030001 	li	a0,1
   80070:	14030002 	bne	zero,a0,8007c <_test+0x7c>
   80074:	241d0011 	li	sp,17
   80078:	17a00022 	bnez	sp,80104 <_fail>
   8007c:	1840fffd 	blez	v1,80074 <_test+0x74>
   80080:	24020001 	li	v1,1
   80084:	18400002 	blez	v1,80090 <_test+0x90>
   80088:	24030001 	li	a0,1
   8008c:	14030002 	bne	zero,a0,80098 <_test+0x98>
   80090:	241d0017 	li	sp,23
   80094:	17a0001b 	bnez	sp,80104 <_fail>
   80098:	24020001 	li	v1,1
   8009c:	00000000 	nop
   800a0:	18400002 	blez	v1,800ac <_test+0xac>
   800a4:	24030001 	li	a0,1
   800a8:	14030002 	bne	zero,a0,800b4 <_test+0xb4>
   800ac:	241d0018 	li	sp,24
   800b0:	17a00014 	bnez	sp,80104 <_fail>
   800b4:	24020001 	li	v1,1
   800b8:	00000000 	nop
   800bc:	00000000 	nop
   800c0:	18400002 	blez	v1,800cc <_test+0xcc>
   800c4:	24030001 	li	a0,1
   800c8:	14030002 	bne	zero,a0,800d4 <_test+0xd4>
   800cc:	241d0019 	li	sp,25
   800d0:	17a0000c 	bnez	sp,80104 <_fail>
   800d4:	24020001 	li	v1,1
   800d8:	18000004 	blez	zero,800ec <_test+0xec>
   800dc:	24420001 	addiu	v1,v1,1
   800e0:	24420001 	addiu	v1,v1,1
   800e4:	24420001 	addiu	v1,v1,1
   800e8:	24420001 	addiu	v1,v1,1
   800ec:	24420001 	addiu	v1,v1,1
   800f0:	24420001 	addiu	v1,v1,1
   800f4:	241d0027 	li	sp,39
   800f8:	241e0003 	li	at,3
   800fc:	145e0001 	bne	v1,at,80104 <_fail>

00080100 <_pass>:
   80100:	241d0001 	li	sp,1

00080104 <_fail>:
   80104:	24020001 	li	v1,1
   80108:	409da800 	mtc0	sp,c0_staten
   8010c:	1402ffff 	bne	zero,v1,8010c <_fail+0x8>
   80110:	00000000 	nop
   80114:	00000000 	nop
   80118:	00000000 	nop
   8011c:	00000000 	nop
   80120:	00000000 	nop
   80124:	00000000 	nop
   80128:	00000000 	nop
   8012c:	00000000 	nop
   80130:	00000000 	nop
   80134:	00000000 	nop
   80138:	00000000 	nop
   8013c:	00000000 	nop
   80140:	00000000 	nop
   80144:	00000000 	nop
   80148:	00000000 	nop
   8014c:	00000000 	nop
   80150:	00000000 	nop
   80154:	00000000 	nop
   80158:	00000000 	nop
   8015c:	00000000 	nop
   80160:	00000000 	nop
   80164:	00000000 	nop
   80168:	00000000 	nop
   8016c:	00000000 	nop
   80170:	00000000 	nop
   80174:	00000000 	nop
   80178:	00000000 	nop
   8017c:	00000000 	nop
   80180:	00000000 	nop
   80184:	00000000 	nop
   80188:	00000000 	nop
   8018c:	00000000 	nop
   80190:	00000000 	nop
   80194:	00000000 	nop
   80198:	00000000 	nop
   8019c:	00000000 	nop
   801a0:	00000000 	nop
   801a4:	00000000 	nop
   801a8:	00000000 	nop
   801ac:	00000000 	nop
