
bin/parcv2-mul:     file format elf32-littlemips


Disassembly of section .text:

00080000 <_test>:
   80000:	24020000 	li	v1,0
   80004:	24030000 	li	a0,0
   80008:	70432002 	mul	a1,v1,a0
   8000c:	241d000f 	li	sp,15
   80010:	14800117 	bnez	a1,80470 <_fail>
   80014:	24020000 	li	v1,0
   80018:	24030001 	li	a0,1
   8001c:	70432002 	mul	a1,v1,a0
   80020:	241d0010 	li	sp,16
   80024:	14800112 	bnez	a1,80470 <_fail>
   80028:	24020001 	li	v1,1
   8002c:	24030000 	li	a0,0
   80030:	70432002 	mul	a1,v1,a0
   80034:	241d0011 	li	sp,17
   80038:	1480010d 	bnez	a1,80470 <_fail>
   8003c:	24020001 	li	v1,1
   80040:	24030001 	li	a0,1
   80044:	70432002 	mul	a1,v1,a0
   80048:	241d0012 	li	sp,18
   8004c:	241e0001 	li	at,1
   80050:	149e0107 	bne	a1,at,80470 <_fail>
   80054:	24020000 	li	v1,0
   80058:	2403ffff 	li	a0,-1
   8005c:	70432002 	mul	a1,v1,a0
   80060:	241d0013 	li	sp,19
   80064:	14800102 	bnez	a1,80470 <_fail>
   80068:	2402ffff 	li	v1,-1
   8006c:	24030000 	li	a0,0
   80070:	70432002 	mul	a1,v1,a0
   80074:	241d0014 	li	sp,20
   80078:	148000fd 	bnez	a1,80470 <_fail>
   8007c:	2402ffff 	li	v1,-1
   80080:	2403ffff 	li	a0,-1
   80084:	70432002 	mul	a1,v1,a0
   80088:	241d0015 	li	sp,21
   8008c:	241e0001 	li	at,1
   80090:	149e00f7 	bne	a1,at,80470 <_fail>
   80094:	2402002a 	li	v1,42
   80098:	2403000d 	li	a0,13
   8009c:	70432002 	mul	a1,v1,a0
   800a0:	241d0019 	li	sp,25
   800a4:	241e0222 	li	at,546
   800a8:	149e00f1 	bne	a1,at,80470 <_fail>
   800ac:	240202cc 	li	v1,716
   800b0:	24030059 	li	a0,89
   800b4:	70432002 	mul	a1,v1,a0
   800b8:	241d001a 	li	sp,26
   800bc:	341ef8ec 	li	at,0xf8ec
   800c0:	149e00eb 	bne	a1,at,80470 <_fail>
   800c4:	24024eba 	li	v1,20154
   800c8:	2403208a 	li	a0,8330
   800cc:	70432002 	mul	a1,v1,a0
   800d0:	241d001b 	li	sp,27
   800d4:	3c1e0a01 	lui	at,0xa01
   800d8:	37deb044 	ori	at,at,0xb044
   800dc:	149e00e4 	bne	a1,at,80470 <_fail>
   800e0:	2402002a 	li	v1,42
   800e4:	2403fff3 	li	a0,-13
   800e8:	70432002 	mul	a1,v1,a0
   800ec:	241d001f 	li	sp,31
   800f0:	241efdde 	li	at,-546
   800f4:	149e00de 	bne	a1,at,80470 <_fail>
   800f8:	2402fd34 	li	v1,-716
   800fc:	24030059 	li	a0,89
   80100:	70432002 	mul	a1,v1,a0
   80104:	241d0020 	li	sp,32
   80108:	3c1effff 	lui	at,0xffff
   8010c:	37de0714 	ori	at,at,0x714
   80110:	149e00d7 	bne	a1,at,80470 <_fail>
   80114:	2402b146 	li	v1,-20154
   80118:	2403df76 	li	a0,-8330
   8011c:	70432002 	mul	a1,v1,a0
   80120:	241d0021 	li	sp,33
   80124:	3c1e0a01 	lui	at,0xa01
   80128:	37deb044 	ori	at,at,0xb044
   8012c:	149e00d0 	bne	a1,at,80470 <_fail>
   80130:	3c020dea 	lui	v1,0xdea
   80134:	3442dbee 	ori	v1,v1,0xdbee
   80138:	3c031000 	lui	a0,0x1000
   8013c:	70432002 	mul	a1,v1,a0
   80140:	241d0025 	li	sp,37
   80144:	3c1ee000 	lui	at,0xe000
   80148:	149e00c9 	bne	a1,at,80470 <_fail>
   8014c:	3c02dead 	lui	v1,0xdead
   80150:	3442beef 	ori	v1,v1,0xbeef
   80154:	3c031000 	lui	a0,0x1000
   80158:	70432002 	mul	a1,v1,a0
   8015c:	241d0026 	li	sp,38
   80160:	3c1ef000 	lui	at,0xf000
   80164:	149e00c2 	bne	a1,at,80470 <_fail>
   80168:	2402000d 	li	v1,13
   8016c:	2403000b 	li	a0,11
   80170:	70431002 	mul	v1,v1,a0
   80174:	241d002c 	li	sp,44
   80178:	241e008f 	li	at,143
   8017c:	145e00bc 	bne	v1,at,80470 <_fail>
   80180:	2402000e 	li	v1,14
   80184:	2403000b 	li	a0,11
   80188:	70431802 	mul	a0,v1,a0
   8018c:	241d002d 	li	sp,45
   80190:	241e009a 	li	at,154
   80194:	147e00b6 	bne	a0,at,80470 <_fail>
   80198:	2402000f 	li	v1,15
   8019c:	70421802 	mul	a0,v1,v1
   801a0:	241d002e 	li	sp,46
   801a4:	241e00e1 	li	at,225
   801a8:	147e00b1 	bne	a0,at,80470 <_fail>
   801ac:	24020010 	li	v1,16
   801b0:	70421002 	mul	v1,v1,v1
   801b4:	241d002f 	li	sp,47
   801b8:	241e0100 	li	at,256
   801bc:	145e00ac 	bne	v1,at,80470 <_fail>
   801c0:	2402000d 	li	v1,13
   801c4:	2403000b 	li	a0,11
   801c8:	70432002 	mul	a1,v1,a0
   801cc:	24870000 	addiu	a4,a1,0
   801d0:	241d0035 	li	sp,53
   801d4:	241e008f 	li	at,143
   801d8:	14fe00a5 	bne	a4,at,80470 <_fail>
   801dc:	2402000e 	li	v1,14
   801e0:	2403000b 	li	a0,11
   801e4:	70432002 	mul	a1,v1,a0
   801e8:	00000000 	nop
   801ec:	24870000 	addiu	a4,a1,0
   801f0:	241d0036 	li	sp,54
   801f4:	241e009a 	li	at,154
   801f8:	14fe009d 	bne	a4,at,80470 <_fail>
   801fc:	2402000f 	li	v1,15
   80200:	2403000b 	li	a0,11
   80204:	70432002 	mul	a1,v1,a0
   80208:	00000000 	nop
   8020c:	00000000 	nop
   80210:	24870000 	addiu	a4,a1,0
   80214:	241d0037 	li	sp,55
   80218:	241e00a5 	li	at,165
   8021c:	14fe0094 	bne	a4,at,80470 <_fail>
   80220:	24020010 	li	v1,16
   80224:	2403000b 	li	a0,11
   80228:	70432002 	mul	a1,v1,a0
   8022c:	00000000 	nop
   80230:	00000000 	nop
   80234:	00000000 	nop
   80238:	24870000 	addiu	a4,a1,0
   8023c:	241d0038 	li	sp,56
   80240:	241e00b0 	li	at,176
   80244:	14fe008a 	bne	a4,at,80470 <_fail>
   80248:	24020011 	li	v1,17
   8024c:	2403000b 	li	a0,11
   80250:	70432002 	mul	a1,v1,a0
   80254:	00000000 	nop
   80258:	00000000 	nop
   8025c:	00000000 	nop
   80260:	00000000 	nop
   80264:	24870000 	addiu	a4,a1,0
   80268:	241d0039 	li	sp,57
   8026c:	241e00bb 	li	at,187
   80270:	14fe007f 	bne	a4,at,80470 <_fail>
   80274:	2402000d 	li	v1,13
   80278:	2403000b 	li	a0,11
   8027c:	70432002 	mul	a1,v1,a0
   80280:	241d003b 	li	sp,59
   80284:	241e008f 	li	at,143
   80288:	149e0079 	bne	a1,at,80470 <_fail>
   8028c:	2402000e 	li	v1,14
   80290:	2403000b 	li	a0,11
   80294:	00000000 	nop
   80298:	70432002 	mul	a1,v1,a0
   8029c:	241d003c 	li	sp,60
   802a0:	241e009a 	li	at,154
   802a4:	149e0072 	bne	a1,at,80470 <_fail>
   802a8:	2402000f 	li	v1,15
   802ac:	2403000b 	li	a0,11
   802b0:	00000000 	nop
   802b4:	00000000 	nop
   802b8:	70432002 	mul	a1,v1,a0
   802bc:	241d003d 	li	sp,61
   802c0:	241e00a5 	li	at,165
   802c4:	149e006a 	bne	a1,at,80470 <_fail>
   802c8:	24020010 	li	v1,16
   802cc:	2403000b 	li	a0,11
   802d0:	00000000 	nop
   802d4:	00000000 	nop
   802d8:	00000000 	nop
   802dc:	70432002 	mul	a1,v1,a0
   802e0:	241d003e 	li	sp,62
   802e4:	241e00b0 	li	at,176
   802e8:	149e0061 	bne	a1,at,80470 <_fail>
   802ec:	24020011 	li	v1,17
   802f0:	2403000b 	li	a0,11
   802f4:	00000000 	nop
   802f8:	00000000 	nop
   802fc:	00000000 	nop
   80300:	00000000 	nop
   80304:	70432002 	mul	a1,v1,a0
   80308:	241d003f 	li	sp,63
   8030c:	241e00bb 	li	at,187
   80310:	149e0057 	bne	a1,at,80470 <_fail>
   80314:	2402000d 	li	v1,13
   80318:	00000000 	nop
   8031c:	2403000b 	li	a0,11
   80320:	70432002 	mul	a1,v1,a0
   80324:	241d0041 	li	sp,65
   80328:	241e008f 	li	at,143
   8032c:	149e0050 	bne	a1,at,80470 <_fail>
   80330:	2402000e 	li	v1,14
   80334:	00000000 	nop
   80338:	2403000b 	li	a0,11
   8033c:	00000000 	nop
   80340:	70432002 	mul	a1,v1,a0
   80344:	241d0042 	li	sp,66
   80348:	241e009a 	li	at,154
   8034c:	149e0048 	bne	a1,at,80470 <_fail>
   80350:	2402000f 	li	v1,15
   80354:	00000000 	nop
   80358:	00000000 	nop
   8035c:	2403000b 	li	a0,11
   80360:	70432002 	mul	a1,v1,a0
   80364:	241d0043 	li	sp,67
   80368:	241e00a5 	li	at,165
   8036c:	149e0040 	bne	a1,at,80470 <_fail>
   80370:	2403000b 	li	a0,11
   80374:	2402000d 	li	v1,13
   80378:	70432002 	mul	a1,v1,a0
   8037c:	241d0045 	li	sp,69
   80380:	241e008f 	li	at,143
   80384:	149e003a 	bne	a1,at,80470 <_fail>
   80388:	2403000b 	li	a0,11
   8038c:	2402000e 	li	v1,14
   80390:	00000000 	nop
   80394:	70432002 	mul	a1,v1,a0
   80398:	241d0046 	li	sp,70
   8039c:	241e009a 	li	at,154
   803a0:	149e0033 	bne	a1,at,80470 <_fail>
   803a4:	2403000b 	li	a0,11
   803a8:	2402000f 	li	v1,15
   803ac:	00000000 	nop
   803b0:	00000000 	nop
   803b4:	70432002 	mul	a1,v1,a0
   803b8:	241d0047 	li	sp,71
   803bc:	241e00a5 	li	at,165
   803c0:	149e002b 	bne	a1,at,80470 <_fail>
   803c4:	2403000b 	li	a0,11
   803c8:	24020010 	li	v1,16
   803cc:	00000000 	nop
   803d0:	00000000 	nop
   803d4:	00000000 	nop
   803d8:	70432002 	mul	a1,v1,a0
   803dc:	241d0048 	li	sp,72
   803e0:	241e00b0 	li	at,176
   803e4:	149e0022 	bne	a1,at,80470 <_fail>
   803e8:	2403000b 	li	a0,11
   803ec:	24020011 	li	v1,17
   803f0:	00000000 	nop
   803f4:	00000000 	nop
   803f8:	00000000 	nop
   803fc:	00000000 	nop
   80400:	70432002 	mul	a1,v1,a0
   80404:	241d0049 	li	sp,73
   80408:	241e00bb 	li	at,187
   8040c:	149e0018 	bne	a1,at,80470 <_fail>
   80410:	2403000b 	li	a0,11
   80414:	00000000 	nop
   80418:	2402000d 	li	v1,13
   8041c:	70432002 	mul	a1,v1,a0
   80420:	241d004b 	li	sp,75
   80424:	241e008f 	li	at,143
   80428:	149e0011 	bne	a1,at,80470 <_fail>
   8042c:	2403000b 	li	a0,11
   80430:	00000000 	nop
   80434:	2402000e 	li	v1,14
   80438:	00000000 	nop
   8043c:	70432002 	mul	a1,v1,a0
   80440:	241d004c 	li	sp,76
   80444:	241e009a 	li	at,154
   80448:	149e0009 	bne	a1,at,80470 <_fail>
   8044c:	2403000b 	li	a0,11
   80450:	00000000 	nop
   80454:	00000000 	nop
   80458:	2402000f 	li	v1,15
   8045c:	70432002 	mul	a1,v1,a0
   80460:	241d004d 	li	sp,77
   80464:	241e00a5 	li	at,165
   80468:	149e0001 	bne	a1,at,80470 <_fail>

0008046c <_pass>:
   8046c:	241d0001 	li	sp,1

00080470 <_fail>:
   80470:	24020001 	li	v1,1
   80474:	409da800 	mtc0	sp,c0_staten
   80478:	1402ffff 	bne	zero,v1,80478 <_fail+0x8>
   8047c:	00000000 	nop
   80480:	00000000 	nop
   80484:	00000000 	nop
   80488:	00000000 	nop
   8048c:	00000000 	nop
   80490:	00000000 	nop
   80494:	00000000 	nop
   80498:	00000000 	nop
   8049c:	00000000 	nop
   804a0:	00000000 	nop
   804a4:	00000000 	nop
   804a8:	00000000 	nop
   804ac:	00000000 	nop
   804b0:	00000000 	nop
   804b4:	00000000 	nop
   804b8:	00000000 	nop
   804bc:	00000000 	nop
   804c0:	00000000 	nop
   804c4:	00000000 	nop
   804c8:	00000000 	nop
   804cc:	00000000 	nop
   804d0:	00000000 	nop
   804d4:	00000000 	nop
   804d8:	00000000 	nop
   804dc:	00000000 	nop
   804e0:	00000000 	nop
   804e4:	00000000 	nop
   804e8:	00000000 	nop
   804ec:	00000000 	nop
   804f0:	00000000 	nop
   804f4:	00000000 	nop
   804f8:	00000000 	nop
   804fc:	00000000 	nop
   80500:	00000000 	nop
   80504:	00000000 	nop
   80508:	00000000 	nop
   8050c:	00000000 	nop
   80510:	00000000 	nop
   80514:	00000000 	nop
   80518:	00000000 	nop
   8051c:	00000000 	nop
