
bin/parcv2-subu:     file format elf32-littlemips


Disassembly of section .text:

00080000 <_test>:
   80000:	24020000 	li	v1,0
   80004:	24030000 	li	a0,0
   80008:	00432023 	subu	a1,v1,a0
   8000c:	241d000d 	li	sp,13
   80010:	148000d5 	bnez	a1,80368 <_fail>
   80014:	24020001 	li	v1,1
   80018:	24030001 	li	a0,1
   8001c:	00432023 	subu	a1,v1,a0
   80020:	241d000e 	li	sp,14
   80024:	148000d0 	bnez	a1,80368 <_fail>
   80028:	24020003 	li	v1,3
   8002c:	24030007 	li	a0,7
   80030:	00432023 	subu	a1,v1,a0
   80034:	241d000f 	li	sp,15
   80038:	241efffc 	li	at,-4
   8003c:	149e00ca 	bne	a1,at,80368 <_fail>
   80040:	24020000 	li	v1,0
   80044:	24038000 	li	a0,-32768
   80048:	00432023 	subu	a1,v1,a0
   8004c:	241d0011 	li	sp,17
   80050:	341e8000 	li	at,0x8000
   80054:	149e00c4 	bne	a1,at,80368 <_fail>
   80058:	3c028000 	lui	v1,0x8000
   8005c:	24030000 	li	a0,0
   80060:	00432023 	subu	a1,v1,a0
   80064:	241d0012 	li	sp,18
   80068:	3c1e8000 	lui	at,0x8000
   8006c:	149e00be 	bne	a1,at,80368 <_fail>
   80070:	3c028000 	lui	v1,0x8000
   80074:	24038000 	li	a0,-32768
   80078:	00432023 	subu	a1,v1,a0
   8007c:	241d0013 	li	sp,19
   80080:	3c1e8000 	lui	at,0x8000
   80084:	37de8000 	ori	at,at,0x8000
   80088:	149e00b7 	bne	a1,at,80368 <_fail>
   8008c:	24020000 	li	v1,0
   80090:	24037fff 	li	a0,32767
   80094:	00432023 	subu	a1,v1,a0
   80098:	241d0015 	li	sp,21
   8009c:	241e8001 	li	at,-32767
   800a0:	149e00b1 	bne	a1,at,80368 <_fail>
   800a4:	3c027fff 	lui	v1,0x7fff
   800a8:	3442ffff 	ori	v1,v1,0xffff
   800ac:	24030000 	li	a0,0
   800b0:	00432023 	subu	a1,v1,a0
   800b4:	241d0016 	li	sp,22
   800b8:	3c1e7fff 	lui	at,0x7fff
   800bc:	37deffff 	ori	at,at,0xffff
   800c0:	149e00a9 	bne	a1,at,80368 <_fail>
   800c4:	3c027fff 	lui	v1,0x7fff
   800c8:	3442ffff 	ori	v1,v1,0xffff
   800cc:	24037fff 	li	a0,32767
   800d0:	00432023 	subu	a1,v1,a0
   800d4:	241d0017 	li	sp,23
   800d8:	3c1e7fff 	lui	at,0x7fff
   800dc:	37de8000 	ori	at,at,0x8000
   800e0:	149e00a1 	bne	a1,at,80368 <_fail>
   800e4:	3c028000 	lui	v1,0x8000
   800e8:	24037fff 	li	a0,32767
   800ec:	00432023 	subu	a1,v1,a0
   800f0:	241d0019 	li	sp,25
   800f4:	3c1e7fff 	lui	at,0x7fff
   800f8:	37de8001 	ori	at,at,0x8001
   800fc:	149e009a 	bne	a1,at,80368 <_fail>
   80100:	3c027fff 	lui	v1,0x7fff
   80104:	3442ffff 	ori	v1,v1,0xffff
   80108:	24038000 	li	a0,-32768
   8010c:	00432023 	subu	a1,v1,a0
   80110:	241d001a 	li	sp,26
   80114:	3c1e8000 	lui	at,0x8000
   80118:	37de7fff 	ori	at,at,0x7fff
   8011c:	149e0092 	bne	a1,at,80368 <_fail>
   80120:	24020000 	li	v1,0
   80124:	2403ffff 	li	a0,-1
   80128:	00432023 	subu	a1,v1,a0
   8012c:	241d001c 	li	sp,28
   80130:	241e0001 	li	at,1
   80134:	149e008c 	bne	a1,at,80368 <_fail>
   80138:	2402ffff 	li	v1,-1
   8013c:	24030001 	li	a0,1
   80140:	00432023 	subu	a1,v1,a0
   80144:	241d001d 	li	sp,29
   80148:	241efffe 	li	at,-2
   8014c:	149e0086 	bne	a1,at,80368 <_fail>
   80150:	2402ffff 	li	v1,-1
   80154:	2403ffff 	li	a0,-1
   80158:	00432023 	subu	a1,v1,a0
   8015c:	241d001e 	li	sp,30
   80160:	14800081 	bnez	a1,80368 <_fail>
   80164:	2402000d 	li	v1,13
   80168:	2403000b 	li	a0,11
   8016c:	00431023 	subu	v1,v1,a0
   80170:	241d0024 	li	sp,36
   80174:	241e0002 	li	at,2
   80178:	145e007b 	bne	v1,at,80368 <_fail>
   8017c:	2402000e 	li	v1,14
   80180:	2403000b 	li	a0,11
   80184:	00431823 	subu	a0,v1,a0
   80188:	241d0025 	li	sp,37
   8018c:	241e0003 	li	at,3
   80190:	147e0075 	bne	a0,at,80368 <_fail>
   80194:	2402000d 	li	v1,13
   80198:	00421023 	subu	v1,v1,v1
   8019c:	241d0026 	li	sp,38
   801a0:	14400071 	bnez	v1,80368 <_fail>
   801a4:	2402000d 	li	v1,13
   801a8:	2403000b 	li	a0,11
   801ac:	00432023 	subu	a1,v1,a0
   801b0:	24870000 	addiu	a4,a1,0
   801b4:	241d002c 	li	sp,44
   801b8:	241e0002 	li	at,2
   801bc:	14fe006a 	bne	a4,at,80368 <_fail>
   801c0:	2402000e 	li	v1,14
   801c4:	2403000b 	li	a0,11
   801c8:	00432023 	subu	a1,v1,a0
   801cc:	00000000 	nop
   801d0:	24870000 	addiu	a4,a1,0
   801d4:	241d002d 	li	sp,45
   801d8:	241e0003 	li	at,3
   801dc:	14fe0062 	bne	a4,at,80368 <_fail>
   801e0:	2402000f 	li	v1,15
   801e4:	2403000b 	li	a0,11
   801e8:	00432023 	subu	a1,v1,a0
   801ec:	00000000 	nop
   801f0:	00000000 	nop
   801f4:	24870000 	addiu	a4,a1,0
   801f8:	241d002e 	li	sp,46
   801fc:	241e0004 	li	at,4
   80200:	14fe0059 	bne	a4,at,80368 <_fail>
   80204:	2402000d 	li	v1,13
   80208:	2403000b 	li	a0,11
   8020c:	00432023 	subu	a1,v1,a0
   80210:	241d0030 	li	sp,48
   80214:	241e0002 	li	at,2
   80218:	149e0053 	bne	a1,at,80368 <_fail>
   8021c:	2402000e 	li	v1,14
   80220:	2403000b 	li	a0,11
   80224:	00000000 	nop
   80228:	00432023 	subu	a1,v1,a0
   8022c:	241d0031 	li	sp,49
   80230:	241e0003 	li	at,3
   80234:	149e004c 	bne	a1,at,80368 <_fail>
   80238:	2402000f 	li	v1,15
   8023c:	2403000b 	li	a0,11
   80240:	00000000 	nop
   80244:	00000000 	nop
   80248:	00432023 	subu	a1,v1,a0
   8024c:	241d0032 	li	sp,50
   80250:	241e0004 	li	at,4
   80254:	149e0044 	bne	a1,at,80368 <_fail>
   80258:	2402000d 	li	v1,13
   8025c:	00000000 	nop
   80260:	2403000b 	li	a0,11
   80264:	00432023 	subu	a1,v1,a0
   80268:	241d0033 	li	sp,51
   8026c:	241e0002 	li	at,2
   80270:	149e003d 	bne	a1,at,80368 <_fail>
   80274:	2402000e 	li	v1,14
   80278:	00000000 	nop
   8027c:	2403000b 	li	a0,11
   80280:	00000000 	nop
   80284:	00432023 	subu	a1,v1,a0
   80288:	241d0034 	li	sp,52
   8028c:	241e0003 	li	at,3
   80290:	149e0035 	bne	a1,at,80368 <_fail>
   80294:	2402000f 	li	v1,15
   80298:	00000000 	nop
   8029c:	00000000 	nop
   802a0:	2403000b 	li	a0,11
   802a4:	00432023 	subu	a1,v1,a0
   802a8:	241d0035 	li	sp,53
   802ac:	241e0004 	li	at,4
   802b0:	149e002d 	bne	a1,at,80368 <_fail>
   802b4:	2403000b 	li	a0,11
   802b8:	2402000d 	li	v1,13
   802bc:	00432023 	subu	a1,v1,a0
   802c0:	241d0037 	li	sp,55
   802c4:	241e0002 	li	at,2
   802c8:	149e0027 	bne	a1,at,80368 <_fail>
   802cc:	2403000b 	li	a0,11
   802d0:	2402000e 	li	v1,14
   802d4:	00000000 	nop
   802d8:	00432023 	subu	a1,v1,a0
   802dc:	241d0038 	li	sp,56
   802e0:	241e0003 	li	at,3
   802e4:	149e0020 	bne	a1,at,80368 <_fail>
   802e8:	2403000b 	li	a0,11
   802ec:	2402000f 	li	v1,15
   802f0:	00000000 	nop
   802f4:	00000000 	nop
   802f8:	00432023 	subu	a1,v1,a0
   802fc:	241d0039 	li	sp,57
   80300:	241e0004 	li	at,4
   80304:	149e0018 	bne	a1,at,80368 <_fail>
   80308:	2403000b 	li	a0,11
   8030c:	00000000 	nop
   80310:	2402000d 	li	v1,13
   80314:	00432023 	subu	a1,v1,a0
   80318:	241d003a 	li	sp,58
   8031c:	241e0002 	li	at,2
   80320:	149e0011 	bne	a1,at,80368 <_fail>
   80324:	2403000b 	li	a0,11
   80328:	00000000 	nop
   8032c:	2402000e 	li	v1,14
   80330:	00000000 	nop
   80334:	00432023 	subu	a1,v1,a0
   80338:	241d003b 	li	sp,59
   8033c:	241e0003 	li	at,3
   80340:	149e0009 	bne	a1,at,80368 <_fail>
   80344:	2403000b 	li	a0,11
   80348:	00000000 	nop
   8034c:	00000000 	nop
   80350:	2402000f 	li	v1,15
   80354:	00432023 	subu	a1,v1,a0
   80358:	241d003c 	li	sp,60
   8035c:	241e0004 	li	at,4
   80360:	149e0001 	bne	a1,at,80368 <_fail>

00080364 <_pass>:
   80364:	241d0001 	li	sp,1

00080368 <_fail>:
   80368:	24020001 	li	v1,1
   8036c:	409da800 	mtc0	sp,c0_staten
   80370:	1402ffff 	bne	zero,v1,80370 <_fail+0x8>
   80374:	00000000 	nop
   80378:	00000000 	nop
   8037c:	00000000 	nop
   80380:	00000000 	nop
   80384:	00000000 	nop
   80388:	00000000 	nop
   8038c:	00000000 	nop
   80390:	00000000 	nop
   80394:	00000000 	nop
   80398:	00000000 	nop
   8039c:	00000000 	nop
   803a0:	00000000 	nop
   803a4:	00000000 	nop
   803a8:	00000000 	nop
   803ac:	00000000 	nop
   803b0:	00000000 	nop
   803b4:	00000000 	nop
   803b8:	00000000 	nop
   803bc:	00000000 	nop
   803c0:	00000000 	nop
   803c4:	00000000 	nop
   803c8:	00000000 	nop
   803cc:	00000000 	nop
   803d0:	00000000 	nop
   803d4:	00000000 	nop
   803d8:	00000000 	nop
   803dc:	00000000 	nop
   803e0:	00000000 	nop
   803e4:	00000000 	nop
   803e8:	00000000 	nop
   803ec:	00000000 	nop
   803f0:	00000000 	nop
   803f4:	00000000 	nop
   803f8:	00000000 	nop
   803fc:	00000000 	nop
   80400:	00000000 	nop
   80404:	00000000 	nop
   80408:	00000000 	nop
   8040c:	00000000 	nop
   80410:	00000000 	nop
   80414:	00000000 	nop
   80418:	00000000 	nop
   8041c:	00000000 	nop
