
bin/parcv2-divu:     file format elf32-littlemips


Disassembly of section .text:

00080000 <_test>:
   80000:	24020000 	li	v1,0
   80004:	24030001 	li	a0,1
   80008:	9c432007 	divu	a1,v1,a0
   8000c:	241d000f 	li	sp,15
   80010:	1480011a 	bnez	a1,8047c <_fail>
   80014:	24020001 	li	v1,1
   80018:	24030001 	li	a0,1
   8001c:	9c432007 	divu	a1,v1,a0
   80020:	241d0010 	li	sp,16
   80024:	241e0001 	li	at,1
   80028:	149e0114 	bne	a1,at,8047c <_fail>
   8002c:	24020222 	li	v1,546
   80030:	2403002a 	li	a0,42
   80034:	9c432007 	divu	a1,v1,a0
   80038:	241d0014 	li	sp,20
   8003c:	241e000d 	li	at,13
   80040:	149e010e 	bne	a1,at,8047c <_fail>
   80044:	3402f8ec 	li	v1,0xf8ec
   80048:	240302cc 	li	a0,716
   8004c:	9c432007 	divu	a1,v1,a0
   80050:	241d0015 	li	sp,21
   80054:	241e0059 	li	at,89
   80058:	149e0108 	bne	a1,at,8047c <_fail>
   8005c:	3c020a01 	lui	v1,0xa01
   80060:	3442b044 	ori	v1,v1,0xb044
   80064:	24034eba 	li	a0,20154
   80068:	9c432007 	divu	a1,v1,a0
   8006c:	241d0016 	li	sp,22
   80070:	241e208a 	li	at,8330
   80074:	149e0101 	bne	a1,at,8047c <_fail>
   80078:	24020032 	li	v1,50
   8007c:	24030222 	li	a0,546
   80080:	9c432007 	divu	a1,v1,a0
   80084:	241d001a 	li	sp,26
   80088:	148000fc 	bnez	a1,8047c <_fail>
   8008c:	24020222 	li	v1,546
   80090:	24030032 	li	a0,50
   80094:	9c432007 	divu	a1,v1,a0
   80098:	241d001b 	li	sp,27
   8009c:	241e000a 	li	at,10
   800a0:	149e00f6 	bne	a1,at,8047c <_fail>
   800a4:	3402f8ec 	li	v1,0xf8ec
   800a8:	24030319 	li	a0,793
   800ac:	9c432007 	divu	a1,v1,a0
   800b0:	241d001c 	li	sp,28
   800b4:	241e0050 	li	at,80
   800b8:	149e00f0 	bne	a1,at,8047c <_fail>
   800bc:	3c020a01 	lui	v1,0xa01
   800c0:	3442b044 	ori	v1,v1,0xb044
   800c4:	24034eb6 	li	a0,20150
   800c8:	9c432007 	divu	a1,v1,a0
   800cc:	241d001d 	li	sp,29
   800d0:	241e208b 	li	at,8331
   800d4:	149e00e9 	bne	a1,at,8047c <_fail>
   800d8:	24020000 	li	v1,0
   800dc:	2403ffff 	li	a0,-1
   800e0:	9c432007 	divu	a1,v1,a0
   800e4:	241d0021 	li	sp,33
   800e8:	148000e4 	bnez	a1,8047c <_fail>
   800ec:	2402ffff 	li	v1,-1
   800f0:	2403ffff 	li	a0,-1
   800f4:	9c432007 	divu	a1,v1,a0
   800f8:	241d0022 	li	sp,34
   800fc:	241e0001 	li	at,1
   80100:	149e00de 	bne	a1,at,8047c <_fail>
   80104:	3c020a01 	lui	v1,0xa01
   80108:	3442b044 	ori	v1,v1,0xb044
   8010c:	2403b14a 	li	a0,-20150
   80110:	9c432007 	divu	a1,v1,a0
   80114:	241d0023 	li	sp,35
   80118:	148000d8 	bnez	a1,8047c <_fail>
   8011c:	3c02dead 	lui	v1,0xdead
   80120:	3442beef 	ori	v1,v1,0xbeef
   80124:	3403beef 	li	a0,0xbeef
   80128:	9c432007 	divu	a1,v1,a0
   8012c:	241d0024 	li	sp,36
   80130:	3c1e0001 	lui	at,0x1
   80134:	37de2a90 	ori	at,at,0x2a90
   80138:	149e00d0 	bne	a1,at,8047c <_fail>
   8013c:	3c02f5fe 	lui	v1,0xf5fe
   80140:	34424fbc 	ori	v1,v1,0x4fbc
   80144:	24034eb6 	li	a0,20150
   80148:	9c432007 	divu	a1,v1,a0
   8014c:	241d0025 	li	sp,37
   80150:	3c1e0003 	lui	at,0x3
   80154:	37de2012 	ori	at,at,0x2012
   80158:	149e00c8 	bne	a1,at,8047c <_fail>
   8015c:	3c02f5fe 	lui	v1,0xf5fe
   80160:	34424fbc 	ori	v1,v1,0x4fbc
   80164:	2403b14a 	li	a0,-20150
   80168:	9c432007 	divu	a1,v1,a0
   8016c:	241d0026 	li	sp,38
   80170:	148000c2 	bnez	a1,8047c <_fail>
   80174:	2402008f 	li	v1,143
   80178:	2403000b 	li	a0,11
   8017c:	9c431007 	divu	v1,v1,a0
   80180:	241d002c 	li	sp,44
   80184:	241e000d 	li	at,13
   80188:	145e00bc 	bne	v1,at,8047c <_fail>
   8018c:	2402009a 	li	v1,154
   80190:	2403000b 	li	a0,11
   80194:	9c431807 	divu	a0,v1,a0
   80198:	241d002d 	li	sp,45
   8019c:	241e000e 	li	at,14
   801a0:	147e00b6 	bne	a0,at,8047c <_fail>
   801a4:	2402000f 	li	v1,15
   801a8:	9c421807 	divu	a0,v1,v1
   801ac:	241d002e 	li	sp,46
   801b0:	241e0001 	li	at,1
   801b4:	147e00b1 	bne	a0,at,8047c <_fail>
   801b8:	24020010 	li	v1,16
   801bc:	9c421007 	divu	v1,v1,v1
   801c0:	241d002f 	li	sp,47
   801c4:	241e0001 	li	at,1
   801c8:	145e00ac 	bne	v1,at,8047c <_fail>
   801cc:	2402008f 	li	v1,143
   801d0:	2403000b 	li	a0,11
   801d4:	9c432007 	divu	a1,v1,a0
   801d8:	24870000 	addiu	a4,a1,0
   801dc:	241d0035 	li	sp,53
   801e0:	241e000d 	li	at,13
   801e4:	14fe00a5 	bne	a4,at,8047c <_fail>
   801e8:	2402009a 	li	v1,154
   801ec:	2403000b 	li	a0,11
   801f0:	9c432007 	divu	a1,v1,a0
   801f4:	00000000 	nop
   801f8:	24870000 	addiu	a4,a1,0
   801fc:	241d0036 	li	sp,54
   80200:	241e000e 	li	at,14
   80204:	14fe009d 	bne	a4,at,8047c <_fail>
   80208:	240200a5 	li	v1,165
   8020c:	2403000b 	li	a0,11
   80210:	9c432007 	divu	a1,v1,a0
   80214:	00000000 	nop
   80218:	00000000 	nop
   8021c:	24870000 	addiu	a4,a1,0
   80220:	241d0037 	li	sp,55
   80224:	241e000f 	li	at,15
   80228:	14fe0094 	bne	a4,at,8047c <_fail>
   8022c:	240200b0 	li	v1,176
   80230:	2403000b 	li	a0,11
   80234:	9c432007 	divu	a1,v1,a0
   80238:	00000000 	nop
   8023c:	00000000 	nop
   80240:	00000000 	nop
   80244:	24870000 	addiu	a4,a1,0
   80248:	241d0038 	li	sp,56
   8024c:	241e0010 	li	at,16
   80250:	14fe008a 	bne	a4,at,8047c <_fail>
   80254:	240200bb 	li	v1,187
   80258:	2403000b 	li	a0,11
   8025c:	9c432007 	divu	a1,v1,a0
   80260:	00000000 	nop
   80264:	00000000 	nop
   80268:	00000000 	nop
   8026c:	00000000 	nop
   80270:	24870000 	addiu	a4,a1,0
   80274:	241d0039 	li	sp,57
   80278:	241e0011 	li	at,17
   8027c:	14fe007f 	bne	a4,at,8047c <_fail>
   80280:	2402008f 	li	v1,143
   80284:	2403000b 	li	a0,11
   80288:	9c432007 	divu	a1,v1,a0
   8028c:	241d003b 	li	sp,59
   80290:	241e000d 	li	at,13
   80294:	149e0079 	bne	a1,at,8047c <_fail>
   80298:	2402009a 	li	v1,154
   8029c:	2403000b 	li	a0,11
   802a0:	00000000 	nop
   802a4:	9c432007 	divu	a1,v1,a0
   802a8:	241d003c 	li	sp,60
   802ac:	241e000e 	li	at,14
   802b0:	149e0072 	bne	a1,at,8047c <_fail>
   802b4:	240200a5 	li	v1,165
   802b8:	2403000b 	li	a0,11
   802bc:	00000000 	nop
   802c0:	00000000 	nop
   802c4:	9c432007 	divu	a1,v1,a0
   802c8:	241d003d 	li	sp,61
   802cc:	241e000f 	li	at,15
   802d0:	149e006a 	bne	a1,at,8047c <_fail>
   802d4:	240200b0 	li	v1,176
   802d8:	2403000b 	li	a0,11
   802dc:	00000000 	nop
   802e0:	00000000 	nop
   802e4:	00000000 	nop
   802e8:	9c432007 	divu	a1,v1,a0
   802ec:	241d003e 	li	sp,62
   802f0:	241e0010 	li	at,16
   802f4:	149e0061 	bne	a1,at,8047c <_fail>
   802f8:	240200bb 	li	v1,187
   802fc:	2403000b 	li	a0,11
   80300:	00000000 	nop
   80304:	00000000 	nop
   80308:	00000000 	nop
   8030c:	00000000 	nop
   80310:	9c432007 	divu	a1,v1,a0
   80314:	241d003f 	li	sp,63
   80318:	241e0011 	li	at,17
   8031c:	149e0057 	bne	a1,at,8047c <_fail>
   80320:	2402008f 	li	v1,143
   80324:	00000000 	nop
   80328:	2403000b 	li	a0,11
   8032c:	9c432007 	divu	a1,v1,a0
   80330:	241d0041 	li	sp,65
   80334:	241e000d 	li	at,13
   80338:	149e0050 	bne	a1,at,8047c <_fail>
   8033c:	2402009a 	li	v1,154
   80340:	00000000 	nop
   80344:	2403000b 	li	a0,11
   80348:	00000000 	nop
   8034c:	9c432007 	divu	a1,v1,a0
   80350:	241d0042 	li	sp,66
   80354:	241e000e 	li	at,14
   80358:	149e0048 	bne	a1,at,8047c <_fail>
   8035c:	240200a5 	li	v1,165
   80360:	00000000 	nop
   80364:	00000000 	nop
   80368:	2403000b 	li	a0,11
   8036c:	9c432007 	divu	a1,v1,a0
   80370:	241d0043 	li	sp,67
   80374:	241e000f 	li	at,15
   80378:	149e0040 	bne	a1,at,8047c <_fail>
   8037c:	2403000b 	li	a0,11
   80380:	2402008f 	li	v1,143
   80384:	9c432007 	divu	a1,v1,a0
   80388:	241d0045 	li	sp,69
   8038c:	241e000d 	li	at,13
   80390:	149e003a 	bne	a1,at,8047c <_fail>
   80394:	2403000b 	li	a0,11
   80398:	2402009a 	li	v1,154
   8039c:	00000000 	nop
   803a0:	9c432007 	divu	a1,v1,a0
   803a4:	241d0046 	li	sp,70
   803a8:	241e000e 	li	at,14
   803ac:	149e0033 	bne	a1,at,8047c <_fail>
   803b0:	2403000b 	li	a0,11
   803b4:	240200a5 	li	v1,165
   803b8:	00000000 	nop
   803bc:	00000000 	nop
   803c0:	9c432007 	divu	a1,v1,a0
   803c4:	241d0047 	li	sp,71
   803c8:	241e000f 	li	at,15
   803cc:	149e002b 	bne	a1,at,8047c <_fail>
   803d0:	2403000b 	li	a0,11
   803d4:	240200b0 	li	v1,176
   803d8:	00000000 	nop
   803dc:	00000000 	nop
   803e0:	00000000 	nop
   803e4:	9c432007 	divu	a1,v1,a0
   803e8:	241d0048 	li	sp,72
   803ec:	241e0010 	li	at,16
   803f0:	149e0022 	bne	a1,at,8047c <_fail>
   803f4:	2403000b 	li	a0,11
   803f8:	240200bb 	li	v1,187
   803fc:	00000000 	nop
   80400:	00000000 	nop
   80404:	00000000 	nop
   80408:	00000000 	nop
   8040c:	9c432007 	divu	a1,v1,a0
   80410:	241d0049 	li	sp,73
   80414:	241e0011 	li	at,17
   80418:	149e0018 	bne	a1,at,8047c <_fail>
   8041c:	2403000b 	li	a0,11
   80420:	00000000 	nop
   80424:	2402008f 	li	v1,143
   80428:	9c432007 	divu	a1,v1,a0
   8042c:	241d004b 	li	sp,75
   80430:	241e000d 	li	at,13
   80434:	149e0011 	bne	a1,at,8047c <_fail>
   80438:	2403000b 	li	a0,11
   8043c:	00000000 	nop
   80440:	2402009a 	li	v1,154
   80444:	00000000 	nop
   80448:	9c432007 	divu	a1,v1,a0
   8044c:	241d004c 	li	sp,76
   80450:	241e000e 	li	at,14
   80454:	149e0009 	bne	a1,at,8047c <_fail>
   80458:	2403000b 	li	a0,11
   8045c:	00000000 	nop
   80460:	00000000 	nop
   80464:	240200a5 	li	v1,165
   80468:	9c432007 	divu	a1,v1,a0
   8046c:	241d004d 	li	sp,77
   80470:	241e000f 	li	at,15
   80474:	149e0001 	bne	a1,at,8047c <_fail>

00080478 <_pass>:
   80478:	241d0001 	li	sp,1

0008047c <_fail>:
   8047c:	24020001 	li	v1,1
   80480:	409da800 	mtc0	sp,c0_staten
   80484:	1402ffff 	bne	zero,v1,80484 <_fail+0x8>
   80488:	00000000 	nop
   8048c:	00000000 	nop
   80490:	00000000 	nop
   80494:	00000000 	nop
   80498:	00000000 	nop
   8049c:	00000000 	nop
   804a0:	00000000 	nop
   804a4:	00000000 	nop
   804a8:	00000000 	nop
   804ac:	00000000 	nop
   804b0:	00000000 	nop
   804b4:	00000000 	nop
   804b8:	00000000 	nop
   804bc:	00000000 	nop
   804c0:	00000000 	nop
   804c4:	00000000 	nop
   804c8:	00000000 	nop
   804cc:	00000000 	nop
   804d0:	00000000 	nop
   804d4:	00000000 	nop
   804d8:	00000000 	nop
   804dc:	00000000 	nop
   804e0:	00000000 	nop
   804e4:	00000000 	nop
   804e8:	00000000 	nop
   804ec:	00000000 	nop
   804f0:	00000000 	nop
   804f4:	00000000 	nop
   804f8:	00000000 	nop
   804fc:	00000000 	nop
   80500:	00000000 	nop
   80504:	00000000 	nop
   80508:	00000000 	nop
   8050c:	00000000 	nop
   80510:	00000000 	nop
   80514:	00000000 	nop
   80518:	00000000 	nop
   8051c:	00000000 	nop
   80520:	00000000 	nop
   80524:	00000000 	nop
   80528:	00000000 	nop
   8052c:	00000000 	nop
