
bin/parcv2-rem:     file format elf32-littlemips


Disassembly of section .text:

00080000 <_test>:
   80000:	24020000 	li	v1,0
   80004:	24030001 	li	a0,1
   80008:	9c432006 	rem	a1,v1,a0
   8000c:	241d0012 	li	sp,18
   80010:	1480011a 	bnez	a1,8047c <_fail>
   80014:	24020001 	li	v1,1
   80018:	24030001 	li	a0,1
   8001c:	9c432006 	rem	a1,v1,a0
   80020:	241d0013 	li	sp,19
   80024:	14800115 	bnez	a1,8047c <_fail>
   80028:	24020000 	li	v1,0
   8002c:	2403ffff 	li	a0,-1
   80030:	9c432006 	rem	a1,v1,a0
   80034:	241d0014 	li	sp,20
   80038:	14800110 	bnez	a1,8047c <_fail>
   8003c:	2402ffff 	li	v1,-1
   80040:	2403ffff 	li	a0,-1
   80044:	9c432006 	rem	a1,v1,a0
   80048:	241d0015 	li	sp,21
   8004c:	1480010b 	bnez	a1,8047c <_fail>
   80050:	24020222 	li	v1,546
   80054:	2403002a 	li	a0,42
   80058:	9c432006 	rem	a1,v1,a0
   8005c:	241d0019 	li	sp,25
   80060:	14800106 	bnez	a1,8047c <_fail>
   80064:	3402f8ec 	li	v1,0xf8ec
   80068:	240302cc 	li	a0,716
   8006c:	9c432006 	rem	a1,v1,a0
   80070:	241d001a 	li	sp,26
   80074:	14800101 	bnez	a1,8047c <_fail>
   80078:	3c020a01 	lui	v1,0xa01
   8007c:	3442b044 	ori	v1,v1,0xb044
   80080:	24034eba 	li	a0,20154
   80084:	9c432006 	rem	a1,v1,a0
   80088:	241d001b 	li	sp,27
   8008c:	148000fb 	bnez	a1,8047c <_fail>
   80090:	24020032 	li	v1,50
   80094:	24030222 	li	a0,546
   80098:	9c432006 	rem	a1,v1,a0
   8009c:	241d001f 	li	sp,31
   800a0:	241e0032 	li	at,50
   800a4:	149e00f5 	bne	a1,at,8047c <_fail>
   800a8:	24020222 	li	v1,546
   800ac:	24030032 	li	a0,50
   800b0:	9c432006 	rem	a1,v1,a0
   800b4:	241d0020 	li	sp,32
   800b8:	241e002e 	li	at,46
   800bc:	149e00ef 	bne	a1,at,8047c <_fail>
   800c0:	3402f8ec 	li	v1,0xf8ec
   800c4:	24030319 	li	a0,793
   800c8:	9c432006 	rem	a1,v1,a0
   800cc:	241d0021 	li	sp,33
   800d0:	241e011c 	li	at,284
   800d4:	149e00e9 	bne	a1,at,8047c <_fail>
   800d8:	3c020a01 	lui	v1,0xa01
   800dc:	3442b044 	ori	v1,v1,0xb044
   800e0:	24034eb6 	li	a0,20150
   800e4:	9c432006 	rem	a1,v1,a0
   800e8:	241d0022 	li	sp,34
   800ec:	241e3372 	li	at,13170
   800f0:	149e00e2 	bne	a1,at,8047c <_fail>
   800f4:	3c020a01 	lui	v1,0xa01
   800f8:	3442b044 	ori	v1,v1,0xb044
   800fc:	2403b146 	li	a0,-20154
   80100:	9c432006 	rem	a1,v1,a0
   80104:	241d0026 	li	sp,38
   80108:	148000dc 	bnez	a1,8047c <_fail>
   8010c:	3c020a01 	lui	v1,0xa01
   80110:	3442b044 	ori	v1,v1,0xb044
   80114:	2403b14a 	li	a0,-20150
   80118:	9c432006 	rem	a1,v1,a0
   8011c:	241d0027 	li	sp,39
   80120:	241e3372 	li	at,13170
   80124:	149e00d5 	bne	a1,at,8047c <_fail>
   80128:	3c02dead 	lui	v1,0xdead
   8012c:	3442beef 	ori	v1,v1,0xbeef
   80130:	3403beef 	li	a0,0xbeef
   80134:	9c432006 	rem	a1,v1,a0
   80138:	241d0028 	li	sp,40
   8013c:	241eda72 	li	at,-9614
   80140:	149e00ce 	bne	a1,at,8047c <_fail>
   80144:	3c02f5fe 	lui	v1,0xf5fe
   80148:	34424fbc 	ori	v1,v1,0x4fbc
   8014c:	24034eb6 	li	a0,20150
   80150:	9c432006 	rem	a1,v1,a0
   80154:	241d0029 	li	sp,41
   80158:	241ecc8e 	li	at,-13170
   8015c:	149e00c7 	bne	a1,at,8047c <_fail>
   80160:	3c02f5fe 	lui	v1,0xf5fe
   80164:	34424fbc 	ori	v1,v1,0x4fbc
   80168:	2403b14a 	li	a0,-20150
   8016c:	9c432006 	rem	a1,v1,a0
   80170:	241d002a 	li	sp,42
   80174:	241ecc8e 	li	at,-13170
   80178:	149e00c0 	bne	a1,at,8047c <_fail>
   8017c:	2402008f 	li	v1,143
   80180:	2403000a 	li	a0,10
   80184:	9c431006 	rem	v1,v1,a0
   80188:	241d0030 	li	sp,48
   8018c:	241e0003 	li	at,3
   80190:	145e00ba 	bne	v1,at,8047c <_fail>
   80194:	2402009a 	li	v1,154
   80198:	2403000a 	li	a0,10
   8019c:	9c431806 	rem	a0,v1,a0
   801a0:	241d0031 	li	sp,49
   801a4:	241e0004 	li	at,4
   801a8:	147e00b4 	bne	a0,at,8047c <_fail>
   801ac:	2402000f 	li	v1,15
   801b0:	9c421806 	rem	a0,v1,v1
   801b4:	241d0032 	li	sp,50
   801b8:	146000b0 	bnez	a0,8047c <_fail>
   801bc:	24020010 	li	v1,16
   801c0:	9c421006 	rem	v1,v1,v1
   801c4:	241d0033 	li	sp,51
   801c8:	144000ac 	bnez	v1,8047c <_fail>
   801cc:	2402008f 	li	v1,143
   801d0:	2403000a 	li	a0,10
   801d4:	9c432006 	rem	a1,v1,a0
   801d8:	24870000 	addiu	a4,a1,0
   801dc:	241d0039 	li	sp,57
   801e0:	241e0003 	li	at,3
   801e4:	14fe00a5 	bne	a4,at,8047c <_fail>
   801e8:	2402009a 	li	v1,154
   801ec:	2403000a 	li	a0,10
   801f0:	9c432006 	rem	a1,v1,a0
   801f4:	00000000 	nop
   801f8:	24870000 	addiu	a4,a1,0
   801fc:	241d003a 	li	sp,58
   80200:	241e0004 	li	at,4
   80204:	14fe009d 	bne	a4,at,8047c <_fail>
   80208:	240200a5 	li	v1,165
   8020c:	2403000a 	li	a0,10
   80210:	9c432006 	rem	a1,v1,a0
   80214:	00000000 	nop
   80218:	00000000 	nop
   8021c:	24870000 	addiu	a4,a1,0
   80220:	241d003b 	li	sp,59
   80224:	241e0005 	li	at,5
   80228:	14fe0094 	bne	a4,at,8047c <_fail>
   8022c:	240200b0 	li	v1,176
   80230:	2403000a 	li	a0,10
   80234:	9c432006 	rem	a1,v1,a0
   80238:	00000000 	nop
   8023c:	00000000 	nop
   80240:	00000000 	nop
   80244:	24870000 	addiu	a4,a1,0
   80248:	241d003c 	li	sp,60
   8024c:	241e0006 	li	at,6
   80250:	14fe008a 	bne	a4,at,8047c <_fail>
   80254:	240200bb 	li	v1,187
   80258:	2403000a 	li	a0,10
   8025c:	9c432006 	rem	a1,v1,a0
   80260:	00000000 	nop
   80264:	00000000 	nop
   80268:	00000000 	nop
   8026c:	00000000 	nop
   80270:	24870000 	addiu	a4,a1,0
   80274:	241d003d 	li	sp,61
   80278:	241e0007 	li	at,7
   8027c:	14fe007f 	bne	a4,at,8047c <_fail>
   80280:	2402008f 	li	v1,143
   80284:	2403000a 	li	a0,10
   80288:	9c432006 	rem	a1,v1,a0
   8028c:	241d003f 	li	sp,63
   80290:	241e0003 	li	at,3
   80294:	149e0079 	bne	a1,at,8047c <_fail>
   80298:	2402009a 	li	v1,154
   8029c:	2403000a 	li	a0,10
   802a0:	00000000 	nop
   802a4:	9c432006 	rem	a1,v1,a0
   802a8:	241d0040 	li	sp,64
   802ac:	241e0004 	li	at,4
   802b0:	149e0072 	bne	a1,at,8047c <_fail>
   802b4:	240200a5 	li	v1,165
   802b8:	2403000a 	li	a0,10
   802bc:	00000000 	nop
   802c0:	00000000 	nop
   802c4:	9c432006 	rem	a1,v1,a0
   802c8:	241d0041 	li	sp,65
   802cc:	241e0005 	li	at,5
   802d0:	149e006a 	bne	a1,at,8047c <_fail>
   802d4:	240200b0 	li	v1,176
   802d8:	2403000a 	li	a0,10
   802dc:	00000000 	nop
   802e0:	00000000 	nop
   802e4:	00000000 	nop
   802e8:	9c432006 	rem	a1,v1,a0
   802ec:	241d0042 	li	sp,66
   802f0:	241e0006 	li	at,6
   802f4:	149e0061 	bne	a1,at,8047c <_fail>
   802f8:	240200bb 	li	v1,187
   802fc:	2403000a 	li	a0,10
   80300:	00000000 	nop
   80304:	00000000 	nop
   80308:	00000000 	nop
   8030c:	00000000 	nop
   80310:	9c432006 	rem	a1,v1,a0
   80314:	241d0043 	li	sp,67
   80318:	241e0007 	li	at,7
   8031c:	149e0057 	bne	a1,at,8047c <_fail>
   80320:	2402008f 	li	v1,143
   80324:	00000000 	nop
   80328:	2403000a 	li	a0,10
   8032c:	9c432006 	rem	a1,v1,a0
   80330:	241d0045 	li	sp,69
   80334:	241e0003 	li	at,3
   80338:	149e0050 	bne	a1,at,8047c <_fail>
   8033c:	2402009a 	li	v1,154
   80340:	00000000 	nop
   80344:	2403000a 	li	a0,10
   80348:	00000000 	nop
   8034c:	9c432006 	rem	a1,v1,a0
   80350:	241d0046 	li	sp,70
   80354:	241e0004 	li	at,4
   80358:	149e0048 	bne	a1,at,8047c <_fail>
   8035c:	240200a5 	li	v1,165
   80360:	00000000 	nop
   80364:	00000000 	nop
   80368:	2403000a 	li	a0,10
   8036c:	9c432006 	rem	a1,v1,a0
   80370:	241d0047 	li	sp,71
   80374:	241e0005 	li	at,5
   80378:	149e0040 	bne	a1,at,8047c <_fail>
   8037c:	2403000a 	li	a0,10
   80380:	2402008f 	li	v1,143
   80384:	9c432006 	rem	a1,v1,a0
   80388:	241d0049 	li	sp,73
   8038c:	241e0003 	li	at,3
   80390:	149e003a 	bne	a1,at,8047c <_fail>
   80394:	2403000a 	li	a0,10
   80398:	2402009a 	li	v1,154
   8039c:	00000000 	nop
   803a0:	9c432006 	rem	a1,v1,a0
   803a4:	241d004a 	li	sp,74
   803a8:	241e0004 	li	at,4
   803ac:	149e0033 	bne	a1,at,8047c <_fail>
   803b0:	2403000a 	li	a0,10
   803b4:	240200a5 	li	v1,165
   803b8:	00000000 	nop
   803bc:	00000000 	nop
   803c0:	9c432006 	rem	a1,v1,a0
   803c4:	241d004b 	li	sp,75
   803c8:	241e0005 	li	at,5
   803cc:	149e002b 	bne	a1,at,8047c <_fail>
   803d0:	2403000a 	li	a0,10
   803d4:	240200b0 	li	v1,176
   803d8:	00000000 	nop
   803dc:	00000000 	nop
   803e0:	00000000 	nop
   803e4:	9c432006 	rem	a1,v1,a0
   803e8:	241d004c 	li	sp,76
   803ec:	241e0006 	li	at,6
   803f0:	149e0022 	bne	a1,at,8047c <_fail>
   803f4:	2403000a 	li	a0,10
   803f8:	240200bb 	li	v1,187
   803fc:	00000000 	nop
   80400:	00000000 	nop
   80404:	00000000 	nop
   80408:	00000000 	nop
   8040c:	9c432006 	rem	a1,v1,a0
   80410:	241d004d 	li	sp,77
   80414:	241e0007 	li	at,7
   80418:	149e0018 	bne	a1,at,8047c <_fail>
   8041c:	2403000a 	li	a0,10
   80420:	00000000 	nop
   80424:	2402008f 	li	v1,143
   80428:	9c432006 	rem	a1,v1,a0
   8042c:	241d004f 	li	sp,79
   80430:	241e0003 	li	at,3
   80434:	149e0011 	bne	a1,at,8047c <_fail>
   80438:	2403000a 	li	a0,10
   8043c:	00000000 	nop
   80440:	2402009a 	li	v1,154
   80444:	00000000 	nop
   80448:	9c432006 	rem	a1,v1,a0
   8044c:	241d0050 	li	sp,80
   80450:	241e0004 	li	at,4
   80454:	149e0009 	bne	a1,at,8047c <_fail>
   80458:	2403000a 	li	a0,10
   8045c:	00000000 	nop
   80460:	00000000 	nop
   80464:	240200a5 	li	v1,165
   80468:	9c432006 	rem	a1,v1,a0
   8046c:	241d0051 	li	sp,81
   80470:	241e0005 	li	at,5
   80474:	149e0001 	bne	a1,at,8047c <_fail>

00080478 <_pass>:
   80478:	241d0001 	li	sp,1

0008047c <_fail>:
   8047c:	24020001 	li	v1,1
   80480:	409da800 	mtc0	sp,c0_staten
   80484:	1402ffff 	bne	zero,v1,80484 <_fail+0x8>
   80488:	00000000 	nop
   8048c:	00000000 	nop
   80490:	00000000 	nop
   80494:	00000000 	nop
   80498:	00000000 	nop
   8049c:	00000000 	nop
   804a0:	00000000 	nop
   804a4:	00000000 	nop
   804a8:	00000000 	nop
   804ac:	00000000 	nop
   804b0:	00000000 	nop
   804b4:	00000000 	nop
   804b8:	00000000 	nop
   804bc:	00000000 	nop
   804c0:	00000000 	nop
   804c4:	00000000 	nop
   804c8:	00000000 	nop
   804cc:	00000000 	nop
   804d0:	00000000 	nop
   804d4:	00000000 	nop
   804d8:	00000000 	nop
   804dc:	00000000 	nop
   804e0:	00000000 	nop
   804e4:	00000000 	nop
   804e8:	00000000 	nop
   804ec:	00000000 	nop
   804f0:	00000000 	nop
   804f4:	00000000 	nop
   804f8:	00000000 	nop
   804fc:	00000000 	nop
   80500:	00000000 	nop
   80504:	00000000 	nop
   80508:	00000000 	nop
   8050c:	00000000 	nop
   80510:	00000000 	nop
   80514:	00000000 	nop
   80518:	00000000 	nop
   8051c:	00000000 	nop
   80520:	00000000 	nop
   80524:	00000000 	nop
   80528:	00000000 	nop
   8052c:	00000000 	nop
