
bin/parcv2-srav:     file format elf32-littlemips


Disassembly of section .text:

00080000 <_test>:
   80000:	3c028000 	lui	v1,0x8000
   80004:	24030000 	li	a0,0
   80008:	00622007 	srav	a1,v1,a0
   8000c:	241d000d 	li	sp,13
   80010:	3c1e8000 	lui	at,0x8000
   80014:	149e010e 	bne	a1,at,80450 <_fail>
   80018:	3c028000 	lui	v1,0x8000
   8001c:	24030001 	li	a0,1
   80020:	00622007 	srav	a1,v1,a0
   80024:	241d000e 	li	sp,14
   80028:	3c1ec000 	lui	at,0xc000
   8002c:	149e0108 	bne	a1,at,80450 <_fail>
   80030:	3c028000 	lui	v1,0x8000
   80034:	24030007 	li	a0,7
   80038:	00622007 	srav	a1,v1,a0
   8003c:	241d000f 	li	sp,15
   80040:	3c1eff00 	lui	at,0xff00
   80044:	149e0102 	bne	a1,at,80450 <_fail>
   80048:	3c028000 	lui	v1,0x8000
   8004c:	2403000e 	li	a0,14
   80050:	00622007 	srav	a1,v1,a0
   80054:	241d0010 	li	sp,16
   80058:	3c1efffe 	lui	at,0xfffe
   8005c:	149e00fc 	bne	a1,at,80450 <_fail>
   80060:	3c028000 	lui	v1,0x8000
   80064:	34420001 	ori	v1,v1,0x1
   80068:	2403001f 	li	a0,31
   8006c:	00622007 	srav	a1,v1,a0
   80070:	241d0011 	li	sp,17
   80074:	241effff 	li	at,-1
   80078:	149e00f5 	bne	a1,at,80450 <_fail>
   8007c:	3c027fff 	lui	v1,0x7fff
   80080:	3442ffff 	ori	v1,v1,0xffff
   80084:	24030000 	li	a0,0
   80088:	00622007 	srav	a1,v1,a0
   8008c:	241d0013 	li	sp,19
   80090:	3c1e7fff 	lui	at,0x7fff
   80094:	37deffff 	ori	at,at,0xffff
   80098:	149e00ed 	bne	a1,at,80450 <_fail>
   8009c:	3c027fff 	lui	v1,0x7fff
   800a0:	3442ffff 	ori	v1,v1,0xffff
   800a4:	24030001 	li	a0,1
   800a8:	00622007 	srav	a1,v1,a0
   800ac:	241d0014 	li	sp,20
   800b0:	3c1e3fff 	lui	at,0x3fff
   800b4:	37deffff 	ori	at,at,0xffff
   800b8:	149e00e5 	bne	a1,at,80450 <_fail>
   800bc:	3c027fff 	lui	v1,0x7fff
   800c0:	3442ffff 	ori	v1,v1,0xffff
   800c4:	24030007 	li	a0,7
   800c8:	00622007 	srav	a1,v1,a0
   800cc:	241d0015 	li	sp,21
   800d0:	3c1e00ff 	lui	at,0xff
   800d4:	37deffff 	ori	at,at,0xffff
   800d8:	149e00dd 	bne	a1,at,80450 <_fail>
   800dc:	3c027fff 	lui	v1,0x7fff
   800e0:	3442ffff 	ori	v1,v1,0xffff
   800e4:	2403000e 	li	a0,14
   800e8:	00622007 	srav	a1,v1,a0
   800ec:	241d0016 	li	sp,22
   800f0:	3c1e0001 	lui	at,0x1
   800f4:	37deffff 	ori	at,at,0xffff
   800f8:	149e00d5 	bne	a1,at,80450 <_fail>
   800fc:	3c027fff 	lui	v1,0x7fff
   80100:	3442ffff 	ori	v1,v1,0xffff
   80104:	2403001f 	li	a0,31
   80108:	00622007 	srav	a1,v1,a0
   8010c:	241d0017 	li	sp,23
   80110:	148000cf 	bnez	a1,80450 <_fail>
   80114:	3c028181 	lui	v1,0x8181
   80118:	34428181 	ori	v1,v1,0x8181
   8011c:	24030000 	li	a0,0
   80120:	00622007 	srav	a1,v1,a0
   80124:	241d0019 	li	sp,25
   80128:	3c1e8181 	lui	at,0x8181
   8012c:	37de8181 	ori	at,at,0x8181
   80130:	149e00c7 	bne	a1,at,80450 <_fail>
   80134:	3c028181 	lui	v1,0x8181
   80138:	34428181 	ori	v1,v1,0x8181
   8013c:	24030001 	li	a0,1
   80140:	00622007 	srav	a1,v1,a0
   80144:	241d001a 	li	sp,26
   80148:	3c1ec0c0 	lui	at,0xc0c0
   8014c:	37dec0c0 	ori	at,at,0xc0c0
   80150:	149e00bf 	bne	a1,at,80450 <_fail>
   80154:	3c028181 	lui	v1,0x8181
   80158:	34428181 	ori	v1,v1,0x8181
   8015c:	24030007 	li	a0,7
   80160:	00622007 	srav	a1,v1,a0
   80164:	241d001b 	li	sp,27
   80168:	3c1eff03 	lui	at,0xff03
   8016c:	37de0303 	ori	at,at,0x303
   80170:	149e00b7 	bne	a1,at,80450 <_fail>
   80174:	3c028181 	lui	v1,0x8181
   80178:	34428181 	ori	v1,v1,0x8181
   8017c:	2403000e 	li	a0,14
   80180:	00622007 	srav	a1,v1,a0
   80184:	241d001c 	li	sp,28
   80188:	3c1efffe 	lui	at,0xfffe
   8018c:	37de0606 	ori	at,at,0x606
   80190:	149e00af 	bne	a1,at,80450 <_fail>
   80194:	3c028181 	lui	v1,0x8181
   80198:	34428181 	ori	v1,v1,0x8181
   8019c:	2403001f 	li	a0,31
   801a0:	00622007 	srav	a1,v1,a0
   801a4:	241d001d 	li	sp,29
   801a8:	241effff 	li	at,-1
   801ac:	149e00a8 	bne	a1,at,80450 <_fail>
   801b0:	3c028181 	lui	v1,0x8181
   801b4:	34428181 	ori	v1,v1,0x8181
   801b8:	2403ffe0 	li	a0,-32
   801bc:	00622007 	srav	a1,v1,a0
   801c0:	241d0021 	li	sp,33
   801c4:	3c1e8181 	lui	at,0x8181
   801c8:	37de8181 	ori	at,at,0x8181
   801cc:	149e00a0 	bne	a1,at,80450 <_fail>
   801d0:	3c028181 	lui	v1,0x8181
   801d4:	34428181 	ori	v1,v1,0x8181
   801d8:	2403ffe1 	li	a0,-31
   801dc:	00622007 	srav	a1,v1,a0
   801e0:	241d0022 	li	sp,34
   801e4:	3c1ec0c0 	lui	at,0xc0c0
   801e8:	37dec0c0 	ori	at,at,0xc0c0
   801ec:	149e0098 	bne	a1,at,80450 <_fail>
   801f0:	3c028181 	lui	v1,0x8181
   801f4:	34428181 	ori	v1,v1,0x8181
   801f8:	2403ffe7 	li	a0,-25
   801fc:	00622007 	srav	a1,v1,a0
   80200:	241d0023 	li	sp,35
   80204:	3c1eff03 	lui	at,0xff03
   80208:	37de0303 	ori	at,at,0x303
   8020c:	149e0090 	bne	a1,at,80450 <_fail>
   80210:	3c028181 	lui	v1,0x8181
   80214:	34428181 	ori	v1,v1,0x8181
   80218:	2403ffee 	li	a0,-18
   8021c:	00622007 	srav	a1,v1,a0
   80220:	241d0024 	li	sp,36
   80224:	3c1efffe 	lui	at,0xfffe
   80228:	37de0606 	ori	at,at,0x606
   8022c:	149e0088 	bne	a1,at,80450 <_fail>
   80230:	3c028181 	lui	v1,0x8181
   80234:	34428181 	ori	v1,v1,0x8181
   80238:	2403ffff 	li	a0,-1
   8023c:	00622007 	srav	a1,v1,a0
   80240:	241d0025 	li	sp,37
   80244:	241effff 	li	at,-1
   80248:	149e0081 	bne	a1,at,80450 <_fail>
   8024c:	3c028000 	lui	v1,0x8000
   80250:	24030007 	li	a0,7
   80254:	00621007 	srav	v1,v1,a0
   80258:	241d002b 	li	sp,43
   8025c:	3c1eff00 	lui	at,0xff00
   80260:	145e007b 	bne	v1,at,80450 <_fail>
   80264:	3c028000 	lui	v1,0x8000
   80268:	2403000e 	li	a0,14
   8026c:	00621807 	srav	a0,v1,a0
   80270:	241d002c 	li	sp,44
   80274:	3c1efffe 	lui	at,0xfffe
   80278:	147e0075 	bne	a0,at,80450 <_fail>
   8027c:	24020007 	li	v1,7
   80280:	00421007 	srav	v1,v1,v1
   80284:	241d002d 	li	sp,45
   80288:	14400071 	bnez	v1,80450 <_fail>
   8028c:	3c028000 	lui	v1,0x8000
   80290:	24030007 	li	a0,7
   80294:	00622007 	srav	a1,v1,a0
   80298:	24870000 	addiu	a4,a1,0
   8029c:	241d0033 	li	sp,51
   802a0:	3c1eff00 	lui	at,0xff00
   802a4:	14fe006a 	bne	a4,at,80450 <_fail>
   802a8:	3c028000 	lui	v1,0x8000
   802ac:	2403000e 	li	a0,14
   802b0:	00622007 	srav	a1,v1,a0
   802b4:	00000000 	nop
   802b8:	24870000 	addiu	a4,a1,0
   802bc:	241d0034 	li	sp,52
   802c0:	3c1efffe 	lui	at,0xfffe
   802c4:	14fe0062 	bne	a4,at,80450 <_fail>
   802c8:	3c028000 	lui	v1,0x8000
   802cc:	2403001f 	li	a0,31
   802d0:	00622007 	srav	a1,v1,a0
   802d4:	00000000 	nop
   802d8:	00000000 	nop
   802dc:	24870000 	addiu	a4,a1,0
   802e0:	241d0035 	li	sp,53
   802e4:	241effff 	li	at,-1
   802e8:	14fe0059 	bne	a4,at,80450 <_fail>
   802ec:	3c028000 	lui	v1,0x8000
   802f0:	24030007 	li	a0,7
   802f4:	00622007 	srav	a1,v1,a0
   802f8:	241d0037 	li	sp,55
   802fc:	3c1eff00 	lui	at,0xff00
   80300:	149e0053 	bne	a1,at,80450 <_fail>
   80304:	3c028000 	lui	v1,0x8000
   80308:	2403000e 	li	a0,14
   8030c:	00000000 	nop
   80310:	00622007 	srav	a1,v1,a0
   80314:	241d0038 	li	sp,56
   80318:	3c1efffe 	lui	at,0xfffe
   8031c:	149e004c 	bne	a1,at,80450 <_fail>
   80320:	3c028000 	lui	v1,0x8000
   80324:	2403001f 	li	a0,31
   80328:	00000000 	nop
   8032c:	00000000 	nop
   80330:	00622007 	srav	a1,v1,a0
   80334:	241d0039 	li	sp,57
   80338:	241effff 	li	at,-1
   8033c:	149e0044 	bne	a1,at,80450 <_fail>
   80340:	3c028000 	lui	v1,0x8000
   80344:	00000000 	nop
   80348:	24030007 	li	a0,7
   8034c:	00622007 	srav	a1,v1,a0
   80350:	241d003a 	li	sp,58
   80354:	3c1eff00 	lui	at,0xff00
   80358:	149e003d 	bne	a1,at,80450 <_fail>
   8035c:	3c028000 	lui	v1,0x8000
   80360:	00000000 	nop
   80364:	2403000e 	li	a0,14
   80368:	00000000 	nop
   8036c:	00622007 	srav	a1,v1,a0
   80370:	241d003b 	li	sp,59
   80374:	3c1efffe 	lui	at,0xfffe
   80378:	149e0035 	bne	a1,at,80450 <_fail>
   8037c:	3c028000 	lui	v1,0x8000
   80380:	00000000 	nop
   80384:	00000000 	nop
   80388:	2403001f 	li	a0,31
   8038c:	00622007 	srav	a1,v1,a0
   80390:	241d003c 	li	sp,60
   80394:	241effff 	li	at,-1
   80398:	149e002d 	bne	a1,at,80450 <_fail>
   8039c:	24030007 	li	a0,7
   803a0:	3c028000 	lui	v1,0x8000
   803a4:	00622007 	srav	a1,v1,a0
   803a8:	241d003e 	li	sp,62
   803ac:	3c1eff00 	lui	at,0xff00
   803b0:	149e0027 	bne	a1,at,80450 <_fail>
   803b4:	2403000e 	li	a0,14
   803b8:	3c028000 	lui	v1,0x8000
   803bc:	00000000 	nop
   803c0:	00622007 	srav	a1,v1,a0
   803c4:	241d003f 	li	sp,63
   803c8:	3c1efffe 	lui	at,0xfffe
   803cc:	149e0020 	bne	a1,at,80450 <_fail>
   803d0:	2403001f 	li	a0,31
   803d4:	3c028000 	lui	v1,0x8000
   803d8:	00000000 	nop
   803dc:	00000000 	nop
   803e0:	00622007 	srav	a1,v1,a0
   803e4:	241d0040 	li	sp,64
   803e8:	241effff 	li	at,-1
   803ec:	149e0018 	bne	a1,at,80450 <_fail>
   803f0:	24030007 	li	a0,7
   803f4:	00000000 	nop
   803f8:	3c028000 	lui	v1,0x8000
   803fc:	00622007 	srav	a1,v1,a0
   80400:	241d0041 	li	sp,65
   80404:	3c1eff00 	lui	at,0xff00
   80408:	149e0011 	bne	a1,at,80450 <_fail>
   8040c:	2403000e 	li	a0,14
   80410:	00000000 	nop
   80414:	3c028000 	lui	v1,0x8000
   80418:	00000000 	nop
   8041c:	00622007 	srav	a1,v1,a0
   80420:	241d0042 	li	sp,66
   80424:	3c1efffe 	lui	at,0xfffe
   80428:	149e0009 	bne	a1,at,80450 <_fail>
   8042c:	2403001f 	li	a0,31
   80430:	00000000 	nop
   80434:	00000000 	nop
   80438:	3c028000 	lui	v1,0x8000
   8043c:	00622007 	srav	a1,v1,a0
   80440:	241d0043 	li	sp,67
   80444:	241effff 	li	at,-1
   80448:	149e0001 	bne	a1,at,80450 <_fail>

0008044c <_pass>:
   8044c:	241d0001 	li	sp,1

00080450 <_fail>:
   80450:	24020001 	li	v1,1
   80454:	409da800 	mtc0	sp,c0_staten
   80458:	1402ffff 	bne	zero,v1,80458 <_fail+0x8>
   8045c:	00000000 	nop
   80460:	00000000 	nop
   80464:	00000000 	nop
   80468:	00000000 	nop
   8046c:	00000000 	nop
   80470:	00000000 	nop
   80474:	00000000 	nop
   80478:	00000000 	nop
   8047c:	00000000 	nop
   80480:	00000000 	nop
   80484:	00000000 	nop
   80488:	00000000 	nop
   8048c:	00000000 	nop
   80490:	00000000 	nop
   80494:	00000000 	nop
   80498:	00000000 	nop
   8049c:	00000000 	nop
   804a0:	00000000 	nop
   804a4:	00000000 	nop
   804a8:	00000000 	nop
   804ac:	00000000 	nop
   804b0:	00000000 	nop
   804b4:	00000000 	nop
   804b8:	00000000 	nop
   804bc:	00000000 	nop
   804c0:	00000000 	nop
   804c4:	00000000 	nop
   804c8:	00000000 	nop
   804cc:	00000000 	nop
   804d0:	00000000 	nop
   804d4:	00000000 	nop
   804d8:	00000000 	nop
   804dc:	00000000 	nop
   804e0:	00000000 	nop
   804e4:	00000000 	nop
   804e8:	00000000 	nop
   804ec:	00000000 	nop
   804f0:	00000000 	nop
   804f4:	00000000 	nop
   804f8:	00000000 	nop
   804fc:	00000000 	nop
