
bin/parcv2-sltiu:     file format elf32-littlemips


Disassembly of section .text:

00080000 <_test>:
   80000:	24020000 	li	v1,0
   80004:	2c440000 	sltiu	a1,v1,0
   80008:	241d000d 	li	sp,13
   8000c:	1480006b 	bnez	a1,801bc <_fail>
   80010:	24020001 	li	v1,1
   80014:	2c440001 	sltiu	a1,v1,1
   80018:	241d000e 	li	sp,14
   8001c:	14800067 	bnez	a1,801bc <_fail>
   80020:	24020003 	li	v1,3
   80024:	2c440007 	sltiu	a1,v1,7
   80028:	241d000f 	li	sp,15
   8002c:	241e0001 	li	at,1
   80030:	149e0062 	bne	a1,at,801bc <_fail>
   80034:	24020007 	li	v1,7
   80038:	2c440003 	sltiu	a1,v1,3
   8003c:	241d0010 	li	sp,16
   80040:	1480005e 	bnez	a1,801bc <_fail>
   80044:	24020000 	li	v1,0
   80048:	2c448000 	sltiu	a1,v1,-32768
   8004c:	241d0012 	li	sp,18
   80050:	241e0001 	li	at,1
   80054:	149e0059 	bne	a1,at,801bc <_fail>
   80058:	3c028000 	lui	v1,0x8000
   8005c:	2c440000 	sltiu	a1,v1,0
   80060:	241d0013 	li	sp,19
   80064:	14800055 	bnez	a1,801bc <_fail>
   80068:	3c028000 	lui	v1,0x8000
   8006c:	2c448000 	sltiu	a1,v1,-32768
   80070:	241d0014 	li	sp,20
   80074:	241e0001 	li	at,1
   80078:	149e0050 	bne	a1,at,801bc <_fail>
   8007c:	24020000 	li	v1,0
   80080:	2c447fff 	sltiu	a1,v1,32767
   80084:	241d0016 	li	sp,22
   80088:	241e0001 	li	at,1
   8008c:	149e004b 	bne	a1,at,801bc <_fail>
   80090:	3c027fff 	lui	v1,0x7fff
   80094:	3442ffff 	ori	v1,v1,0xffff
   80098:	2c440000 	sltiu	a1,v1,0
   8009c:	241d0017 	li	sp,23
   800a0:	14800046 	bnez	a1,801bc <_fail>
   800a4:	3c027fff 	lui	v1,0x7fff
   800a8:	3442ffff 	ori	v1,v1,0xffff
   800ac:	2c447fff 	sltiu	a1,v1,32767
   800b0:	241d0018 	li	sp,24
   800b4:	14800041 	bnez	a1,801bc <_fail>
   800b8:	3c028000 	lui	v1,0x8000
   800bc:	2c447fff 	sltiu	a1,v1,32767
   800c0:	241d001a 	li	sp,26
   800c4:	1480003d 	bnez	a1,801bc <_fail>
   800c8:	3c027fff 	lui	v1,0x7fff
   800cc:	3442ffff 	ori	v1,v1,0xffff
   800d0:	2c448000 	sltiu	a1,v1,-32768
   800d4:	241d001b 	li	sp,27
   800d8:	241e0001 	li	at,1
   800dc:	149e0037 	bne	a1,at,801bc <_fail>
   800e0:	24020000 	li	v1,0
   800e4:	2c44ffff 	sltiu	a1,v1,-1
   800e8:	241d001d 	li	sp,29
   800ec:	241e0001 	li	at,1
   800f0:	149e0032 	bne	a1,at,801bc <_fail>
   800f4:	2402ffff 	li	v1,-1
   800f8:	2c440001 	sltiu	a1,v1,1
   800fc:	241d001e 	li	sp,30
   80100:	1480002e 	bnez	a1,801bc <_fail>
   80104:	2402ffff 	li	v1,-1
   80108:	2c44ffff 	sltiu	a1,v1,-1
   8010c:	241d001f 	li	sp,31
   80110:	1480002a 	bnez	a1,801bc <_fail>
   80114:	2402000b 	li	v1,11
   80118:	2c42000d 	sltiu	v1,v1,13
   8011c:	241d0025 	li	sp,37
   80120:	241e0001 	li	at,1
   80124:	145e0025 	bne	v1,at,801bc <_fail>
   80128:	2402000f 	li	v1,15
   8012c:	2c44000a 	sltiu	a1,v1,10
   80130:	24870000 	addiu	a4,a1,0
   80134:	241d002b 	li	sp,43
   80138:	14e00020 	bnez	a4,801bc <_fail>
   8013c:	2402000a 	li	v1,10
   80140:	2c440010 	sltiu	a1,v1,16
   80144:	00000000 	nop
   80148:	24870000 	addiu	a4,a1,0
   8014c:	241d002c 	li	sp,44
   80150:	241e0001 	li	at,1
   80154:	14fe0019 	bne	a4,at,801bc <_fail>
   80158:	24020010 	li	v1,16
   8015c:	2c440009 	sltiu	a1,v1,9
   80160:	00000000 	nop
   80164:	00000000 	nop
   80168:	24870000 	addiu	a4,a1,0
   8016c:	241d002d 	li	sp,45
   80170:	14e00012 	bnez	a4,801bc <_fail>
   80174:	2402000b 	li	v1,11
   80178:	2c44000f 	sltiu	a1,v1,15
   8017c:	241d002f 	li	sp,47
   80180:	241e0001 	li	at,1
   80184:	149e000d 	bne	a1,at,801bc <_fail>
   80188:	24020011 	li	v1,17
   8018c:	00000000 	nop
   80190:	2c440008 	sltiu	a1,v1,8
   80194:	241d0030 	li	sp,48
   80198:	14800008 	bnez	a1,801bc <_fail>
   8019c:	2402000c 	li	v1,12
   801a0:	00000000 	nop
   801a4:	00000000 	nop
   801a8:	2c44000e 	sltiu	a1,v1,14
   801ac:	241d0031 	li	sp,49
   801b0:	241e0001 	li	at,1
   801b4:	149e0001 	bne	a1,at,801bc <_fail>

000801b8 <_pass>:
   801b8:	241d0001 	li	sp,1

000801bc <_fail>:
   801bc:	24020001 	li	v1,1
   801c0:	409da800 	mtc0	sp,c0_staten
   801c4:	1402ffff 	bne	zero,v1,801c4 <_fail+0x8>
   801c8:	00000000 	nop
   801cc:	00000000 	nop
   801d0:	00000000 	nop
   801d4:	00000000 	nop
   801d8:	00000000 	nop
   801dc:	00000000 	nop
   801e0:	00000000 	nop
   801e4:	00000000 	nop
   801e8:	00000000 	nop
   801ec:	00000000 	nop
   801f0:	00000000 	nop
   801f4:	00000000 	nop
   801f8:	00000000 	nop
   801fc:	00000000 	nop
   80200:	00000000 	nop
   80204:	00000000 	nop
   80208:	00000000 	nop
   8020c:	00000000 	nop
   80210:	00000000 	nop
   80214:	00000000 	nop
   80218:	00000000 	nop
   8021c:	00000000 	nop
   80220:	00000000 	nop
   80224:	00000000 	nop
   80228:	00000000 	nop
   8022c:	00000000 	nop
   80230:	00000000 	nop
   80234:	00000000 	nop
   80238:	00000000 	nop
   8023c:	00000000 	nop
   80240:	00000000 	nop
   80244:	00000000 	nop
   80248:	00000000 	nop
   8024c:	00000000 	nop
   80250:	00000000 	nop
   80254:	00000000 	nop
   80258:	00000000 	nop
   8025c:	00000000 	nop
   80260:	00000000 	nop
   80264:	00000000 	nop
   80268:	00000000 	nop
   8026c:	00000000 	nop
