
bin/parcv2-lbu:     file format elf32-littlemips


Disassembly of section .text:

00080000 <_test>:
   80000:	3c020008 	lui	v1,0x8
   80004:	244204c0 	addiu	v1,v1,1216
   80008:	90440000 	lbu	a1,0(v1)
   8000c:	241d000d 	li	sp,13
   80010:	241e00ef 	li	at,239
   80014:	149e00fc 	bne	a1,at,80408 <_fail>
   80018:	3c020008 	lui	v1,0x8
   8001c:	244204c0 	addiu	v1,v1,1216
   80020:	90440001 	lbu	a1,1(v1)
   80024:	241d000e 	li	sp,14
   80028:	241e00be 	li	at,190
   8002c:	149e00f6 	bne	a1,at,80408 <_fail>
   80030:	3c020008 	lui	v1,0x8
   80034:	244204c0 	addiu	v1,v1,1216
   80038:	90440002 	lbu	a1,2(v1)
   8003c:	241d000f 	li	sp,15
   80040:	241e00ad 	li	at,173
   80044:	149e00f0 	bne	a1,at,80408 <_fail>
   80048:	3c020008 	lui	v1,0x8
   8004c:	244204c0 	addiu	v1,v1,1216
   80050:	90440003 	lbu	a1,3(v1)
   80054:	241d0010 	li	sp,16
   80058:	241e00de 	li	at,222
   8005c:	149e00ea 	bne	a1,at,80408 <_fail>
   80060:	3c020008 	lui	v1,0x8
   80064:	244204c0 	addiu	v1,v1,1216
   80068:	90440004 	lbu	a1,4(v1)
   8006c:	241d0012 	li	sp,18
   80070:	241e0001 	li	at,1
   80074:	149e00e4 	bne	a1,at,80408 <_fail>
   80078:	3c020008 	lui	v1,0x8
   8007c:	244204c0 	addiu	v1,v1,1216
   80080:	90440005 	lbu	a1,5(v1)
   80084:	241d0013 	li	sp,19
   80088:	241e00ef 	li	at,239
   8008c:	149e00de 	bne	a1,at,80408 <_fail>
   80090:	3c020008 	lui	v1,0x8
   80094:	244204c0 	addiu	v1,v1,1216
   80098:	90440006 	lbu	a1,6(v1)
   8009c:	241d0014 	li	sp,20
   800a0:	241e00cd 	li	at,205
   800a4:	149e00d8 	bne	a1,at,80408 <_fail>
   800a8:	3c020008 	lui	v1,0x8
   800ac:	244204c0 	addiu	v1,v1,1216
   800b0:	90440007 	lbu	a1,7(v1)
   800b4:	241d0015 	li	sp,21
   800b8:	241e00ab 	li	at,171
   800bc:	149e00d2 	bne	a1,at,80408 <_fail>
   800c0:	3c020008 	lui	v1,0x8
   800c4:	244204c0 	addiu	v1,v1,1216
   800c8:	90440008 	lbu	a1,8(v1)
   800cc:	241d0017 	li	sp,23
   800d0:	241e00f0 	li	at,240
   800d4:	149e00cc 	bne	a1,at,80408 <_fail>
   800d8:	3c020008 	lui	v1,0x8
   800dc:	244204c0 	addiu	v1,v1,1216
   800e0:	90440009 	lbu	a1,9(v1)
   800e4:	241d0018 	li	sp,24
   800e8:	241e000f 	li	at,15
   800ec:	149e00c6 	bne	a1,at,80408 <_fail>
   800f0:	3c020008 	lui	v1,0x8
   800f4:	244204c0 	addiu	v1,v1,1216
   800f8:	9044000a 	lbu	a1,10(v1)
   800fc:	241d0019 	li	sp,25
   80100:	241e00f0 	li	at,240
   80104:	149e00c0 	bne	a1,at,80408 <_fail>
   80108:	3c020008 	lui	v1,0x8
   8010c:	244204c0 	addiu	v1,v1,1216
   80110:	9044000b 	lbu	a1,11(v1)
   80114:	241d001a 	li	sp,26
   80118:	241e000f 	li	at,15
   8011c:	149e00ba 	bne	a1,at,80408 <_fail>
   80120:	3c020008 	lui	v1,0x8
   80124:	244204c8 	addiu	v1,v1,1224
   80128:	9044fff8 	lbu	a1,-8(v1)
   8012c:	241d001d 	li	sp,29
   80130:	241e00ef 	li	at,239
   80134:	149e00b4 	bne	a1,at,80408 <_fail>
   80138:	3c020008 	lui	v1,0x8
   8013c:	244204c8 	addiu	v1,v1,1224
   80140:	9044fff9 	lbu	a1,-7(v1)
   80144:	241d001e 	li	sp,30
   80148:	241e00be 	li	at,190
   8014c:	149e00ae 	bne	a1,at,80408 <_fail>
   80150:	3c020008 	lui	v1,0x8
   80154:	244204c8 	addiu	v1,v1,1224
   80158:	9044fffa 	lbu	a1,-6(v1)
   8015c:	241d001f 	li	sp,31
   80160:	241e00ad 	li	at,173
   80164:	149e00a8 	bne	a1,at,80408 <_fail>
   80168:	3c020008 	lui	v1,0x8
   8016c:	244204c8 	addiu	v1,v1,1224
   80170:	9044fffb 	lbu	a1,-5(v1)
   80174:	241d0020 	li	sp,32
   80178:	241e00de 	li	at,222
   8017c:	149e00a2 	bne	a1,at,80408 <_fail>
   80180:	3c020008 	lui	v1,0x8
   80184:	244204c8 	addiu	v1,v1,1224
   80188:	9044fffc 	lbu	a1,-4(v1)
   8018c:	241d0022 	li	sp,34
   80190:	241e0001 	li	at,1
   80194:	149e009c 	bne	a1,at,80408 <_fail>
   80198:	3c020008 	lui	v1,0x8
   8019c:	244204c8 	addiu	v1,v1,1224
   801a0:	9044fffd 	lbu	a1,-3(v1)
   801a4:	241d0023 	li	sp,35
   801a8:	241e00ef 	li	at,239
   801ac:	149e0096 	bne	a1,at,80408 <_fail>
   801b0:	3c020008 	lui	v1,0x8
   801b4:	244204c8 	addiu	v1,v1,1224
   801b8:	9044fffe 	lbu	a1,-2(v1)
   801bc:	241d0024 	li	sp,36
   801c0:	241e00cd 	li	at,205
   801c4:	149e0090 	bne	a1,at,80408 <_fail>
   801c8:	3c020008 	lui	v1,0x8
   801cc:	244204c8 	addiu	v1,v1,1224
   801d0:	9044ffff 	lbu	a1,-1(v1)
   801d4:	241d0025 	li	sp,37
   801d8:	241e00ab 	li	at,171
   801dc:	149e008a 	bne	a1,at,80408 <_fail>
   801e0:	3c020008 	lui	v1,0x8
   801e4:	244204c8 	addiu	v1,v1,1224
   801e8:	90440000 	lbu	a1,0(v1)
   801ec:	241d0027 	li	sp,39
   801f0:	241e00f0 	li	at,240
   801f4:	149e0084 	bne	a1,at,80408 <_fail>
   801f8:	3c020008 	lui	v1,0x8
   801fc:	244204c8 	addiu	v1,v1,1224
   80200:	90440001 	lbu	a1,1(v1)
   80204:	241d0028 	li	sp,40
   80208:	241e000f 	li	at,15
   8020c:	149e007e 	bne	a1,at,80408 <_fail>
   80210:	3c020008 	lui	v1,0x8
   80214:	244204c8 	addiu	v1,v1,1224
   80218:	90440002 	lbu	a1,2(v1)
   8021c:	241d0029 	li	sp,41
   80220:	241e00f0 	li	at,240
   80224:	149e0078 	bne	a1,at,80408 <_fail>
   80228:	3c020008 	lui	v1,0x8
   8022c:	244204c8 	addiu	v1,v1,1224
   80230:	90440003 	lbu	a1,3(v1)
   80234:	241d002a 	li	sp,42
   80238:	241e000f 	li	at,15
   8023c:	149e0072 	bne	a1,at,80408 <_fail>
   80240:	3c020008 	lui	v1,0x8
   80244:	244204c0 	addiu	v1,v1,1216
   80248:	2442ffe0 	addiu	v1,v1,-32
   8024c:	90440021 	lbu	a1,33(v1)
   80250:	241d0031 	li	sp,49
   80254:	241e00be 	li	at,190
   80258:	149e006b 	bne	a1,at,80408 <_fail>
   8025c:	3c020008 	lui	v1,0x8
   80260:	244204c0 	addiu	v1,v1,1216
   80264:	2442fffd 	addiu	v1,v1,-3
   80268:	90440006 	lbu	a1,6(v1)
   8026c:	241d0038 	li	sp,56
   80270:	241e00de 	li	at,222
   80274:	149e0064 	bne	a1,at,80408 <_fail>
   80278:	3c020008 	lui	v1,0x8
   8027c:	244204c0 	addiu	v1,v1,1216
   80280:	90440000 	lbu	a1,0(v1)
   80284:	24870000 	addiu	a4,a1,0
   80288:	241d003e 	li	sp,62
   8028c:	241e00ef 	li	at,239
   80290:	14fe005d 	bne	a4,at,80408 <_fail>
   80294:	3c020008 	lui	v1,0x8
   80298:	244204c8 	addiu	v1,v1,1224
   8029c:	90440000 	lbu	a1,0(v1)
   802a0:	00000000 	nop
   802a4:	24870000 	addiu	a4,a1,0
   802a8:	241d003f 	li	sp,63
   802ac:	241e00f0 	li	at,240
   802b0:	14fe0055 	bne	a4,at,80408 <_fail>
   802b4:	3c020008 	lui	v1,0x8
   802b8:	244204c8 	addiu	v1,v1,1224
   802bc:	90440001 	lbu	a1,1(v1)
   802c0:	00000000 	nop
   802c4:	00000000 	nop
   802c8:	24870000 	addiu	a4,a1,0
   802cc:	241d0040 	li	sp,64
   802d0:	241e000f 	li	at,15
   802d4:	14fe004c 	bne	a4,at,80408 <_fail>
   802d8:	3c020008 	lui	v1,0x8
   802dc:	244204c8 	addiu	v1,v1,1224
   802e0:	90440002 	lbu	a1,2(v1)
   802e4:	00000000 	nop
   802e8:	00000000 	nop
   802ec:	00000000 	nop
   802f0:	24870000 	addiu	a4,a1,0
   802f4:	241d0041 	li	sp,65
   802f8:	241e00f0 	li	at,240
   802fc:	14fe0042 	bne	a4,at,80408 <_fail>
   80300:	3c020008 	lui	v1,0x8
   80304:	244204c8 	addiu	v1,v1,1224
   80308:	90440003 	lbu	a1,3(v1)
   8030c:	00000000 	nop
   80310:	00000000 	nop
   80314:	00000000 	nop
   80318:	00000000 	nop
   8031c:	24870000 	addiu	a4,a1,0
   80320:	241d0042 	li	sp,66
   80324:	241e000f 	li	at,15
   80328:	14fe0037 	bne	a4,at,80408 <_fail>
   8032c:	3c020008 	lui	v1,0x8
   80330:	244204c0 	addiu	v1,v1,1216
   80334:	90440000 	lbu	a1,0(v1)
   80338:	241d0044 	li	sp,68
   8033c:	241e00ef 	li	at,239
   80340:	149e0031 	bne	a1,at,80408 <_fail>
   80344:	3c020008 	lui	v1,0x8
   80348:	244204c8 	addiu	v1,v1,1224
   8034c:	00000000 	nop
   80350:	90440000 	lbu	a1,0(v1)
   80354:	241d0045 	li	sp,69
   80358:	241e00f0 	li	at,240
   8035c:	149e002a 	bne	a1,at,80408 <_fail>
   80360:	3c020008 	lui	v1,0x8
   80364:	244204c8 	addiu	v1,v1,1224
   80368:	00000000 	nop
   8036c:	00000000 	nop
   80370:	90440001 	lbu	a1,1(v1)
   80374:	241d0046 	li	sp,70
   80378:	241e000f 	li	at,15
   8037c:	149e0022 	bne	a1,at,80408 <_fail>
   80380:	3c020008 	lui	v1,0x8
   80384:	244204c8 	addiu	v1,v1,1224
   80388:	00000000 	nop
   8038c:	00000000 	nop
   80390:	00000000 	nop
   80394:	90440002 	lbu	a1,2(v1)
   80398:	241d0047 	li	sp,71
   8039c:	241e00f0 	li	at,240
   803a0:	149e0019 	bne	a1,at,80408 <_fail>
   803a4:	3c020008 	lui	v1,0x8
   803a8:	244204c8 	addiu	v1,v1,1224
   803ac:	00000000 	nop
   803b0:	00000000 	nop
   803b4:	00000000 	nop
   803b8:	00000000 	nop
   803bc:	90440003 	lbu	a1,3(v1)
   803c0:	241d0048 	li	sp,72
   803c4:	241e000f 	li	at,15
   803c8:	149e000f 	bne	a1,at,80408 <_fail>
   803cc:	3c040008 	lui	a1,0x8
   803d0:	248404c0 	addiu	a1,a1,1216
   803d4:	90830001 	lbu	a0,1(a1)
   803d8:	24030002 	li	a0,2
   803dc:	241d004f 	li	sp,79
   803e0:	241e0002 	li	at,2
   803e4:	147e0008 	bne	a0,at,80408 <_fail>
   803e8:	3c050008 	lui	a2,0x8
   803ec:	24a504c0 	addiu	a2,a2,1216
   803f0:	90a60001 	lbu	a3,1(a2)
   803f4:	24c70001 	addiu	a4,a3,1
   803f8:	241d0056 	li	sp,86
   803fc:	241e00bf 	li	at,191
   80400:	14fe0001 	bne	a4,at,80408 <_fail>

00080404 <_pass>:
   80404:	241d0001 	li	sp,1

00080408 <_fail>:
   80408:	24020001 	li	v1,1
   8040c:	409da800 	mtc0	sp,c0_staten
   80410:	1402ffff 	bne	zero,v1,80410 <_fail+0x8>
   80414:	00000000 	nop
   80418:	00000000 	nop
   8041c:	00000000 	nop
   80420:	00000000 	nop
   80424:	00000000 	nop
   80428:	00000000 	nop
   8042c:	00000000 	nop
   80430:	00000000 	nop
   80434:	00000000 	nop
   80438:	00000000 	nop
   8043c:	00000000 	nop
   80440:	00000000 	nop
   80444:	00000000 	nop
   80448:	00000000 	nop
   8044c:	00000000 	nop
   80450:	00000000 	nop
   80454:	00000000 	nop
   80458:	00000000 	nop
   8045c:	00000000 	nop
   80460:	00000000 	nop
   80464:	00000000 	nop
   80468:	00000000 	nop
   8046c:	00000000 	nop
   80470:	00000000 	nop
   80474:	00000000 	nop
   80478:	00000000 	nop
   8047c:	00000000 	nop
   80480:	00000000 	nop
   80484:	00000000 	nop
   80488:	00000000 	nop
   8048c:	00000000 	nop
   80490:	00000000 	nop
   80494:	00000000 	nop
   80498:	00000000 	nop
   8049c:	00000000 	nop
   804a0:	00000000 	nop
   804a4:	00000000 	nop
   804a8:	00000000 	nop
   804ac:	00000000 	nop
   804b0:	00000000 	nop
   804b4:	00000000 	nop
   804b8:	00000000 	nop
   804bc:	00000000 	nop
