
bin/parcv2-beq:     file format elf32-littlemips


Disassembly of section .text:

00080000 <_test>:
   80000:	24020000 	li	v1,0
   80004:	24030000 	li	a0,0
   80008:	10430004 	beq	v1,a0,8001c <_test+0x1c>
   8000c:	241d000d 	li	sp,13
   80010:	17a000a9 	bnez	sp,802b8 <_fail>
   80014:	24040001 	li	a1,1
   80018:	14040003 	bne	zero,a1,80028 <_test+0x28>
   8001c:	1043fffd 	beq	v1,a0,80014 <_test+0x14>
   80020:	241d000d 	li	sp,13
   80024:	17a000a4 	bnez	sp,802b8 <_fail>
   80028:	24020001 	li	v1,1
   8002c:	24030001 	li	a0,1
   80030:	10430004 	beq	v1,a0,80044 <_test+0x44>
   80034:	241d000e 	li	sp,14
   80038:	17a0009f 	bnez	sp,802b8 <_fail>
   8003c:	24040001 	li	a1,1
   80040:	14040003 	bne	zero,a1,80050 <_test+0x50>
   80044:	1043fffd 	beq	v1,a0,8003c <_test+0x3c>
   80048:	241d000e 	li	sp,14
   8004c:	17a0009a 	bnez	sp,802b8 <_fail>
   80050:	2402ffff 	li	v1,-1
   80054:	2403ffff 	li	a0,-1
   80058:	10430004 	beq	v1,a0,8006c <_test+0x6c>
   8005c:	241d000f 	li	sp,15
   80060:	17a00095 	bnez	sp,802b8 <_fail>
   80064:	24040001 	li	a1,1
   80068:	14040003 	bne	zero,a1,80078 <_test+0x78>
   8006c:	1043fffd 	beq	v1,a0,80064 <_test+0x64>
   80070:	241d000f 	li	sp,15
   80074:	17a00090 	bnez	sp,802b8 <_fail>
   80078:	24020000 	li	v1,0
   8007c:	24030001 	li	a0,1
   80080:	10430002 	beq	v1,a0,8008c <_test+0x8c>
   80084:	24040001 	li	a1,1
   80088:	14040002 	bne	zero,a1,80094 <_test+0x94>
   8008c:	241d0011 	li	sp,17
   80090:	17a00089 	bnez	sp,802b8 <_fail>
   80094:	1043fffd 	beq	v1,a0,8008c <_test+0x8c>
   80098:	24020001 	li	v1,1
   8009c:	24030000 	li	a0,0
   800a0:	10430002 	beq	v1,a0,800ac <_test+0xac>
   800a4:	24040001 	li	a1,1
   800a8:	14040002 	bne	zero,a1,800b4 <_test+0xb4>
   800ac:	241d0012 	li	sp,18
   800b0:	17a00081 	bnez	sp,802b8 <_fail>
   800b4:	1043fffd 	beq	v1,a0,800ac <_test+0xac>
   800b8:	2402ffff 	li	v1,-1
   800bc:	24030001 	li	a0,1
   800c0:	10430002 	beq	v1,a0,800cc <_test+0xcc>
   800c4:	24040001 	li	a1,1
   800c8:	14040002 	bne	zero,a1,800d4 <_test+0xd4>
   800cc:	241d0013 	li	sp,19
   800d0:	17a00079 	bnez	sp,802b8 <_fail>
   800d4:	1043fffd 	beq	v1,a0,800cc <_test+0xcc>
   800d8:	24020001 	li	v1,1
   800dc:	2403ffff 	li	a0,-1
   800e0:	10430002 	beq	v1,a0,800ec <_test+0xec>
   800e4:	24040001 	li	a1,1
   800e8:	14040002 	bne	zero,a1,800f4 <_test+0xf4>
   800ec:	241d0014 	li	sp,20
   800f0:	17a00071 	bnez	sp,802b8 <_fail>
   800f4:	1043fffd 	beq	v1,a0,800ec <_test+0xec>
   800f8:	24020000 	li	v1,0
   800fc:	2403ffff 	li	a0,-1
   80100:	10430002 	beq	v1,a0,8010c <_test+0x10c>
   80104:	24040001 	li	a1,1
   80108:	14040002 	bne	zero,a1,80114 <_test+0x114>
   8010c:	241d001a 	li	sp,26
   80110:	17a00069 	bnez	sp,802b8 <_fail>
   80114:	24020000 	li	v1,0
   80118:	2403ffff 	li	a0,-1
   8011c:	00000000 	nop
   80120:	10430002 	beq	v1,a0,8012c <_test+0x12c>
   80124:	24040001 	li	a1,1
   80128:	14040002 	bne	zero,a1,80134 <_test+0x134>
   8012c:	241d001b 	li	sp,27
   80130:	17a00061 	bnez	sp,802b8 <_fail>
   80134:	24020000 	li	v1,0
   80138:	2403ffff 	li	a0,-1
   8013c:	00000000 	nop
   80140:	00000000 	nop
   80144:	10430002 	beq	v1,a0,80150 <_test+0x150>
   80148:	24040001 	li	a1,1
   8014c:	14040002 	bne	zero,a1,80158 <_test+0x158>
   80150:	241d001c 	li	sp,28
   80154:	17a00058 	bnez	sp,802b8 <_fail>
   80158:	24020000 	li	v1,0
   8015c:	00000000 	nop
   80160:	2403ffff 	li	a0,-1
   80164:	10430002 	beq	v1,a0,80170 <_test+0x170>
   80168:	24040001 	li	a1,1
   8016c:	14040002 	bne	zero,a1,80178 <_test+0x178>
   80170:	241d001d 	li	sp,29
   80174:	17a00050 	bnez	sp,802b8 <_fail>
   80178:	24020000 	li	v1,0
   8017c:	00000000 	nop
   80180:	2403ffff 	li	a0,-1
   80184:	00000000 	nop
   80188:	10430002 	beq	v1,a0,80194 <_test+0x194>
   8018c:	24040001 	li	a1,1
   80190:	14040002 	bne	zero,a1,8019c <_test+0x19c>
   80194:	241d001e 	li	sp,30
   80198:	17a00047 	bnez	sp,802b8 <_fail>
   8019c:	24020000 	li	v1,0
   801a0:	00000000 	nop
   801a4:	00000000 	nop
   801a8:	2403ffff 	li	a0,-1
   801ac:	10430002 	beq	v1,a0,801b8 <_test+0x1b8>
   801b0:	24040001 	li	a1,1
   801b4:	14040002 	bne	zero,a1,801c0 <_test+0x1c0>
   801b8:	241d001f 	li	sp,31
   801bc:	17a0003e 	bnez	sp,802b8 <_fail>
   801c0:	2403ffff 	li	a0,-1
   801c4:	24020000 	li	v1,0
   801c8:	10430002 	beq	v1,a0,801d4 <_test+0x1d4>
   801cc:	24040001 	li	a1,1
   801d0:	14040002 	bne	zero,a1,801dc <_test+0x1dc>
   801d4:	241d0021 	li	sp,33
   801d8:	17a00037 	bnez	sp,802b8 <_fail>
   801dc:	2403ffff 	li	a0,-1
   801e0:	24020000 	li	v1,0
   801e4:	00000000 	nop
   801e8:	10430002 	beq	v1,a0,801f4 <_test+0x1f4>
   801ec:	24040001 	li	a1,1
   801f0:	14040002 	bne	zero,a1,801fc <_test+0x1fc>
   801f4:	241d0022 	li	sp,34
   801f8:	17a0002f 	bnez	sp,802b8 <_fail>
   801fc:	2403ffff 	li	a0,-1
   80200:	24020000 	li	v1,0
   80204:	00000000 	nop
   80208:	00000000 	nop
   8020c:	10430002 	beq	v1,a0,80218 <_test+0x218>
   80210:	24040001 	li	a1,1
   80214:	14040002 	bne	zero,a1,80220 <_test+0x220>
   80218:	241d0023 	li	sp,35
   8021c:	17a00026 	bnez	sp,802b8 <_fail>
   80220:	2403ffff 	li	a0,-1
   80224:	00000000 	nop
   80228:	24020000 	li	v1,0
   8022c:	10430002 	beq	v1,a0,80238 <_test+0x238>
   80230:	24040001 	li	a1,1
   80234:	14040002 	bne	zero,a1,80240 <_test+0x240>
   80238:	241d0024 	li	sp,36
   8023c:	17a0001e 	bnez	sp,802b8 <_fail>
   80240:	2403ffff 	li	a0,-1
   80244:	00000000 	nop
   80248:	24020000 	li	v1,0
   8024c:	00000000 	nop
   80250:	10430002 	beq	v1,a0,8025c <_test+0x25c>
   80254:	24040001 	li	a1,1
   80258:	14040002 	bne	zero,a1,80264 <_test+0x264>
   8025c:	241d0025 	li	sp,37
   80260:	17a00015 	bnez	sp,802b8 <_fail>
   80264:	2403ffff 	li	a0,-1
   80268:	00000000 	nop
   8026c:	00000000 	nop
   80270:	24020000 	li	v1,0
   80274:	10430002 	beq	v1,a0,80280 <_test+0x280>
   80278:	24040001 	li	a1,1
   8027c:	14040002 	bne	zero,a1,80288 <_test+0x288>
   80280:	241d0026 	li	sp,38
   80284:	17a0000c 	bnez	sp,802b8 <_fail>
   80288:	24020001 	li	v1,1
   8028c:	10000004 	b	802a0 <_test+0x2a0>
   80290:	24420001 	addiu	v1,v1,1
   80294:	24420001 	addiu	v1,v1,1
   80298:	24420001 	addiu	v1,v1,1
   8029c:	24420001 	addiu	v1,v1,1
   802a0:	24420001 	addiu	v1,v1,1
   802a4:	24420001 	addiu	v1,v1,1
   802a8:	241d0032 	li	sp,50
   802ac:	241e0003 	li	at,3
   802b0:	145e0001 	bne	v1,at,802b8 <_fail>

000802b4 <_pass>:
   802b4:	241d0001 	li	sp,1

000802b8 <_fail>:
   802b8:	24020001 	li	v1,1
   802bc:	409da800 	mtc0	sp,c0_staten
   802c0:	1402ffff 	bne	zero,v1,802c0 <_fail+0x8>
   802c4:	00000000 	nop
   802c8:	00000000 	nop
   802cc:	00000000 	nop
   802d0:	00000000 	nop
   802d4:	00000000 	nop
   802d8:	00000000 	nop
   802dc:	00000000 	nop
   802e0:	00000000 	nop
   802e4:	00000000 	nop
   802e8:	00000000 	nop
   802ec:	00000000 	nop
   802f0:	00000000 	nop
   802f4:	00000000 	nop
   802f8:	00000000 	nop
   802fc:	00000000 	nop
   80300:	00000000 	nop
   80304:	00000000 	nop
   80308:	00000000 	nop
   8030c:	00000000 	nop
   80310:	00000000 	nop
   80314:	00000000 	nop
   80318:	00000000 	nop
   8031c:	00000000 	nop
   80320:	00000000 	nop
   80324:	00000000 	nop
   80328:	00000000 	nop
   8032c:	00000000 	nop
   80330:	00000000 	nop
   80334:	00000000 	nop
   80338:	00000000 	nop
   8033c:	00000000 	nop
   80340:	00000000 	nop
   80344:	00000000 	nop
   80348:	00000000 	nop
   8034c:	00000000 	nop
   80350:	00000000 	nop
   80354:	00000000 	nop
   80358:	00000000 	nop
   8035c:	00000000 	nop
   80360:	00000000 	nop
   80364:	00000000 	nop
   80368:	00000000 	nop
   8036c:	00000000 	nop
