
bin/parcv2-srl:     file format elf32-littlemips


Disassembly of section .text:

00080000 <_test>:
   80000:	3c028000 	lui	v1,0x8000
   80004:	00022002 	srl	a1,v1,0x0
   80008:	241d000d 	li	sp,13
   8000c:	3c1e8000 	lui	at,0x8000
   80010:	149e0080 	bne	a1,at,80214 <_fail>
   80014:	3c028000 	lui	v1,0x8000
   80018:	00022042 	srl	a1,v1,0x1
   8001c:	241d000e 	li	sp,14
   80020:	3c1e4000 	lui	at,0x4000
   80024:	149e007b 	bne	a1,at,80214 <_fail>
   80028:	3c028000 	lui	v1,0x8000
   8002c:	000221c2 	srl	a1,v1,0x7
   80030:	241d000f 	li	sp,15
   80034:	3c1e0100 	lui	at,0x100
   80038:	149e0076 	bne	a1,at,80214 <_fail>
   8003c:	3c028000 	lui	v1,0x8000
   80040:	00022382 	srl	a1,v1,0xe
   80044:	241d0010 	li	sp,16
   80048:	3c1e0002 	lui	at,0x2
   8004c:	149e0071 	bne	a1,at,80214 <_fail>
   80050:	3c028000 	lui	v1,0x8000
   80054:	34420001 	ori	v1,v1,0x1
   80058:	000227c2 	srl	a1,v1,0x1f
   8005c:	241d0011 	li	sp,17
   80060:	241e0001 	li	at,1
   80064:	149e006b 	bne	a1,at,80214 <_fail>
   80068:	2402ffff 	li	v1,-1
   8006c:	00022002 	srl	a1,v1,0x0
   80070:	241d0013 	li	sp,19
   80074:	241effff 	li	at,-1
   80078:	149e0066 	bne	a1,at,80214 <_fail>
   8007c:	2402ffff 	li	v1,-1
   80080:	00022042 	srl	a1,v1,0x1
   80084:	241d0014 	li	sp,20
   80088:	3c1e7fff 	lui	at,0x7fff
   8008c:	37deffff 	ori	at,at,0xffff
   80090:	149e0060 	bne	a1,at,80214 <_fail>
   80094:	2402ffff 	li	v1,-1
   80098:	000221c2 	srl	a1,v1,0x7
   8009c:	241d0015 	li	sp,21
   800a0:	3c1e01ff 	lui	at,0x1ff
   800a4:	37deffff 	ori	at,at,0xffff
   800a8:	149e005a 	bne	a1,at,80214 <_fail>
   800ac:	2402ffff 	li	v1,-1
   800b0:	00022382 	srl	a1,v1,0xe
   800b4:	241d0016 	li	sp,22
   800b8:	3c1e0003 	lui	at,0x3
   800bc:	37deffff 	ori	at,at,0xffff
   800c0:	149e0054 	bne	a1,at,80214 <_fail>
   800c4:	2402ffff 	li	v1,-1
   800c8:	000227c2 	srl	a1,v1,0x1f
   800cc:	241d0017 	li	sp,23
   800d0:	241e0001 	li	at,1
   800d4:	149e004f 	bne	a1,at,80214 <_fail>
   800d8:	3c022121 	lui	v1,0x2121
   800dc:	34422121 	ori	v1,v1,0x2121
   800e0:	00022002 	srl	a1,v1,0x0
   800e4:	241d0019 	li	sp,25
   800e8:	3c1e2121 	lui	at,0x2121
   800ec:	37de2121 	ori	at,at,0x2121
   800f0:	149e0048 	bne	a1,at,80214 <_fail>
   800f4:	3c022121 	lui	v1,0x2121
   800f8:	34422121 	ori	v1,v1,0x2121
   800fc:	00022042 	srl	a1,v1,0x1
   80100:	241d001a 	li	sp,26
   80104:	3c1e1090 	lui	at,0x1090
   80108:	37de9090 	ori	at,at,0x9090
   8010c:	149e0041 	bne	a1,at,80214 <_fail>
   80110:	3c022121 	lui	v1,0x2121
   80114:	34422121 	ori	v1,v1,0x2121
   80118:	000221c2 	srl	a1,v1,0x7
   8011c:	241d001b 	li	sp,27
   80120:	3c1e0042 	lui	at,0x42
   80124:	37de4242 	ori	at,at,0x4242
   80128:	149e003a 	bne	a1,at,80214 <_fail>
   8012c:	3c022121 	lui	v1,0x2121
   80130:	34422121 	ori	v1,v1,0x2121
   80134:	00022382 	srl	a1,v1,0xe
   80138:	241d001c 	li	sp,28
   8013c:	341e8484 	li	at,0x8484
   80140:	149e0034 	bne	a1,at,80214 <_fail>
   80144:	3c022121 	lui	v1,0x2121
   80148:	34422121 	ori	v1,v1,0x2121
   8014c:	000227c2 	srl	a1,v1,0x1f
   80150:	241d001d 	li	sp,29
   80154:	1480002f 	bnez	a1,80214 <_fail>
   80158:	3c028000 	lui	v1,0x8000
   8015c:	000211c2 	srl	v1,v1,0x7
   80160:	241d0023 	li	sp,35
   80164:	3c1e0100 	lui	at,0x100
   80168:	145e002a 	bne	v1,at,80214 <_fail>
   8016c:	3c028000 	lui	v1,0x8000
   80170:	000221c2 	srl	a1,v1,0x7
   80174:	24870000 	addiu	a4,a1,0
   80178:	241d0029 	li	sp,41
   8017c:	3c1e0100 	lui	at,0x100
   80180:	14fe0024 	bne	a4,at,80214 <_fail>
   80184:	3c028000 	lui	v1,0x8000
   80188:	00022382 	srl	a1,v1,0xe
   8018c:	00000000 	nop
   80190:	24870000 	addiu	a4,a1,0
   80194:	241d002a 	li	sp,42
   80198:	3c1e0002 	lui	at,0x2
   8019c:	14fe001d 	bne	a4,at,80214 <_fail>
   801a0:	3c028000 	lui	v1,0x8000
   801a4:	34420001 	ori	v1,v1,0x1
   801a8:	000227c2 	srl	a1,v1,0x1f
   801ac:	00000000 	nop
   801b0:	00000000 	nop
   801b4:	24870000 	addiu	a4,a1,0
   801b8:	241d002b 	li	sp,43
   801bc:	241e0001 	li	at,1
   801c0:	14fe0014 	bne	a4,at,80214 <_fail>
   801c4:	3c028000 	lui	v1,0x8000
   801c8:	000221c2 	srl	a1,v1,0x7
   801cc:	241d002d 	li	sp,45
   801d0:	3c1e0100 	lui	at,0x100
   801d4:	149e000f 	bne	a1,at,80214 <_fail>
   801d8:	3c028000 	lui	v1,0x8000
   801dc:	00000000 	nop
   801e0:	00022382 	srl	a1,v1,0xe
   801e4:	241d002e 	li	sp,46
   801e8:	3c1e0002 	lui	at,0x2
   801ec:	149e0009 	bne	a1,at,80214 <_fail>
   801f0:	3c028000 	lui	v1,0x8000
   801f4:	34420001 	ori	v1,v1,0x1
   801f8:	00000000 	nop
   801fc:	00000000 	nop
   80200:	000227c2 	srl	a1,v1,0x1f
   80204:	241d002f 	li	sp,47
   80208:	241e0001 	li	at,1
   8020c:	149e0001 	bne	a1,at,80214 <_fail>

00080210 <_pass>:
   80210:	241d0001 	li	sp,1

00080214 <_fail>:
   80214:	24020001 	li	v1,1
   80218:	409da800 	mtc0	sp,c0_staten
   8021c:	1402ffff 	bne	zero,v1,8021c <_fail+0x8>
   80220:	00000000 	nop
   80224:	00000000 	nop
   80228:	00000000 	nop
   8022c:	00000000 	nop
   80230:	00000000 	nop
   80234:	00000000 	nop
   80238:	00000000 	nop
   8023c:	00000000 	nop
   80240:	00000000 	nop
   80244:	00000000 	nop
   80248:	00000000 	nop
   8024c:	00000000 	nop
   80250:	00000000 	nop
   80254:	00000000 	nop
   80258:	00000000 	nop
   8025c:	00000000 	nop
   80260:	00000000 	nop
   80264:	00000000 	nop
   80268:	00000000 	nop
   8026c:	00000000 	nop
   80270:	00000000 	nop
   80274:	00000000 	nop
   80278:	00000000 	nop
   8027c:	00000000 	nop
   80280:	00000000 	nop
   80284:	00000000 	nop
   80288:	00000000 	nop
   8028c:	00000000 	nop
   80290:	00000000 	nop
   80294:	00000000 	nop
   80298:	00000000 	nop
   8029c:	00000000 	nop
   802a0:	00000000 	nop
   802a4:	00000000 	nop
   802a8:	00000000 	nop
   802ac:	00000000 	nop
   802b0:	00000000 	nop
   802b4:	00000000 	nop
   802b8:	00000000 	nop
   802bc:	00000000 	nop
