
bin/parcv2-sll:     file format elf32-littlemips


Disassembly of section .text:

00080000 <_test>:
   80000:	24020001 	li	v1,1
   80004:	00022000 	sll	a1,v1,0x0
   80008:	241d000d 	li	sp,13
   8000c:	241e0001 	li	at,1
   80010:	149e007c 	bne	a1,at,80204 <_fail>
   80014:	24020001 	li	v1,1
   80018:	00022040 	sll	a1,v1,0x1
   8001c:	241d000e 	li	sp,14
   80020:	241e0002 	li	at,2
   80024:	149e0077 	bne	a1,at,80204 <_fail>
   80028:	24020001 	li	v1,1
   8002c:	000221c0 	sll	a1,v1,0x7
   80030:	241d000f 	li	sp,15
   80034:	241e0080 	li	at,128
   80038:	149e0072 	bne	a1,at,80204 <_fail>
   8003c:	24020001 	li	v1,1
   80040:	00022380 	sll	a1,v1,0xe
   80044:	241d0010 	li	sp,16
   80048:	241e4000 	li	at,16384
   8004c:	149e006d 	bne	a1,at,80204 <_fail>
   80050:	24020001 	li	v1,1
   80054:	000227c0 	sll	a1,v1,0x1f
   80058:	241d0011 	li	sp,17
   8005c:	3c1e8000 	lui	at,0x8000
   80060:	149e0068 	bne	a1,at,80204 <_fail>
   80064:	2402ffff 	li	v1,-1
   80068:	00022000 	sll	a1,v1,0x0
   8006c:	241d0013 	li	sp,19
   80070:	241effff 	li	at,-1
   80074:	149e0063 	bne	a1,at,80204 <_fail>
   80078:	2402ffff 	li	v1,-1
   8007c:	00022040 	sll	a1,v1,0x1
   80080:	241d0014 	li	sp,20
   80084:	241efffe 	li	at,-2
   80088:	149e005e 	bne	a1,at,80204 <_fail>
   8008c:	2402ffff 	li	v1,-1
   80090:	000221c0 	sll	a1,v1,0x7
   80094:	241d0015 	li	sp,21
   80098:	241eff80 	li	at,-128
   8009c:	149e0059 	bne	a1,at,80204 <_fail>
   800a0:	2402ffff 	li	v1,-1
   800a4:	00022380 	sll	a1,v1,0xe
   800a8:	241d0016 	li	sp,22
   800ac:	241ec000 	li	at,-16384
   800b0:	149e0054 	bne	a1,at,80204 <_fail>
   800b4:	2402ffff 	li	v1,-1
   800b8:	000227c0 	sll	a1,v1,0x1f
   800bc:	241d0017 	li	sp,23
   800c0:	3c1e8000 	lui	at,0x8000
   800c4:	149e004f 	bne	a1,at,80204 <_fail>
   800c8:	3c022121 	lui	v1,0x2121
   800cc:	34422121 	ori	v1,v1,0x2121
   800d0:	00022000 	sll	a1,v1,0x0
   800d4:	241d0019 	li	sp,25
   800d8:	3c1e2121 	lui	at,0x2121
   800dc:	37de2121 	ori	at,at,0x2121
   800e0:	149e0048 	bne	a1,at,80204 <_fail>
   800e4:	3c022121 	lui	v1,0x2121
   800e8:	34422121 	ori	v1,v1,0x2121
   800ec:	00022040 	sll	a1,v1,0x1
   800f0:	241d001a 	li	sp,26
   800f4:	3c1e4242 	lui	at,0x4242
   800f8:	37de4242 	ori	at,at,0x4242
   800fc:	149e0041 	bne	a1,at,80204 <_fail>
   80100:	3c022121 	lui	v1,0x2121
   80104:	34422121 	ori	v1,v1,0x2121
   80108:	000221c0 	sll	a1,v1,0x7
   8010c:	241d001b 	li	sp,27
   80110:	3c1e9090 	lui	at,0x9090
   80114:	37de9080 	ori	at,at,0x9080
   80118:	149e003a 	bne	a1,at,80204 <_fail>
   8011c:	3c022121 	lui	v1,0x2121
   80120:	34422121 	ori	v1,v1,0x2121
   80124:	00022380 	sll	a1,v1,0xe
   80128:	241d001c 	li	sp,28
   8012c:	3c1e4848 	lui	at,0x4848
   80130:	37de4000 	ori	at,at,0x4000
   80134:	149e0033 	bne	a1,at,80204 <_fail>
   80138:	3c022121 	lui	v1,0x2121
   8013c:	34422121 	ori	v1,v1,0x2121
   80140:	000227c0 	sll	a1,v1,0x1f
   80144:	241d001d 	li	sp,29
   80148:	3c1e8000 	lui	at,0x8000
   8014c:	149e002d 	bne	a1,at,80204 <_fail>
   80150:	24020001 	li	v1,1
   80154:	000211c0 	sll	v1,v1,0x7
   80158:	241d0023 	li	sp,35
   8015c:	241e0080 	li	at,128
   80160:	145e0028 	bne	v1,at,80204 <_fail>
   80164:	24020001 	li	v1,1
   80168:	000221c0 	sll	a1,v1,0x7
   8016c:	24870000 	addiu	a4,a1,0
   80170:	241d0029 	li	sp,41
   80174:	241e0080 	li	at,128
   80178:	14fe0022 	bne	a4,at,80204 <_fail>
   8017c:	24020001 	li	v1,1
   80180:	00022380 	sll	a1,v1,0xe
   80184:	00000000 	nop
   80188:	24870000 	addiu	a4,a1,0
   8018c:	241d002a 	li	sp,42
   80190:	241e4000 	li	at,16384
   80194:	14fe001b 	bne	a4,at,80204 <_fail>
   80198:	24020001 	li	v1,1
   8019c:	000227c0 	sll	a1,v1,0x1f
   801a0:	00000000 	nop
   801a4:	00000000 	nop
   801a8:	24870000 	addiu	a4,a1,0
   801ac:	241d002b 	li	sp,43
   801b0:	3c1e8000 	lui	at,0x8000
   801b4:	14fe0013 	bne	a4,at,80204 <_fail>
   801b8:	24020001 	li	v1,1
   801bc:	000221c0 	sll	a1,v1,0x7
   801c0:	241d002d 	li	sp,45
   801c4:	241e0080 	li	at,128
   801c8:	149e000e 	bne	a1,at,80204 <_fail>
   801cc:	24020001 	li	v1,1
   801d0:	00000000 	nop
   801d4:	00022380 	sll	a1,v1,0xe
   801d8:	241d002e 	li	sp,46
   801dc:	241e4000 	li	at,16384
   801e0:	149e0008 	bne	a1,at,80204 <_fail>
   801e4:	24020001 	li	v1,1
   801e8:	00000000 	nop
   801ec:	00000000 	nop
   801f0:	000227c0 	sll	a1,v1,0x1f
   801f4:	241d002f 	li	sp,47
   801f8:	3c1e8000 	lui	at,0x8000
   801fc:	149e0001 	bne	a1,at,80204 <_fail>

00080200 <_pass>:
   80200:	241d0001 	li	sp,1

00080204 <_fail>:
   80204:	24020001 	li	v1,1
   80208:	409da800 	mtc0	sp,c0_staten
   8020c:	1402ffff 	bne	zero,v1,8020c <_fail+0x8>
   80210:	00000000 	nop
   80214:	00000000 	nop
   80218:	00000000 	nop
   8021c:	00000000 	nop
   80220:	00000000 	nop
   80224:	00000000 	nop
   80228:	00000000 	nop
   8022c:	00000000 	nop
   80230:	00000000 	nop
   80234:	00000000 	nop
   80238:	00000000 	nop
   8023c:	00000000 	nop
   80240:	00000000 	nop
   80244:	00000000 	nop
   80248:	00000000 	nop
   8024c:	00000000 	nop
   80250:	00000000 	nop
   80254:	00000000 	nop
   80258:	00000000 	nop
   8025c:	00000000 	nop
   80260:	00000000 	nop
   80264:	00000000 	nop
   80268:	00000000 	nop
   8026c:	00000000 	nop
   80270:	00000000 	nop
   80274:	00000000 	nop
   80278:	00000000 	nop
   8027c:	00000000 	nop
   80280:	00000000 	nop
   80284:	00000000 	nop
   80288:	00000000 	nop
   8028c:	00000000 	nop
   80290:	00000000 	nop
   80294:	00000000 	nop
   80298:	00000000 	nop
   8029c:	00000000 	nop
   802a0:	00000000 	nop
   802a4:	00000000 	nop
   802a8:	00000000 	nop
   802ac:	00000000 	nop
