
bin/parcv2-lh:     file format elf32-littlemips


Disassembly of section .text:

00080000 <_test>:
   80000:	3c020008 	lui	v1,0x8
   80004:	24420370 	addiu	v1,v1,880
   80008:	84440000 	lh	a1,0(v1)
   8000c:	241d000d 	li	sp,13
   80010:	241ebeef 	li	at,-16657
   80014:	149e00a8 	bne	a1,at,802b8 <_fail>
   80018:	3c020008 	lui	v1,0x8
   8001c:	24420370 	addiu	v1,v1,880
   80020:	84440002 	lh	a1,2(v1)
   80024:	241d000e 	li	sp,14
   80028:	241edead 	li	at,-8531
   8002c:	149e00a2 	bne	a1,at,802b8 <_fail>
   80030:	3c020008 	lui	v1,0x8
   80034:	24420370 	addiu	v1,v1,880
   80038:	84440004 	lh	a1,4(v1)
   8003c:	241d000f 	li	sp,15
   80040:	241e00ff 	li	at,255
   80044:	149e009c 	bne	a1,at,802b8 <_fail>
   80048:	3c020008 	lui	v1,0x8
   8004c:	24420370 	addiu	v1,v1,880
   80050:	84440006 	lh	a1,6(v1)
   80054:	241d0010 	li	sp,16
   80058:	241eff00 	li	at,-256
   8005c:	149e0096 	bne	a1,at,802b8 <_fail>
   80060:	3c020008 	lui	v1,0x8
   80064:	24420378 	addiu	v1,v1,888
   80068:	8444fff8 	lh	a1,-8(v1)
   8006c:	241d0012 	li	sp,18
   80070:	241ebeef 	li	at,-16657
   80074:	149e0090 	bne	a1,at,802b8 <_fail>
   80078:	3c020008 	lui	v1,0x8
   8007c:	24420378 	addiu	v1,v1,888
   80080:	8444fffa 	lh	a1,-6(v1)
   80084:	241d0013 	li	sp,19
   80088:	241edead 	li	at,-8531
   8008c:	149e008a 	bne	a1,at,802b8 <_fail>
   80090:	3c020008 	lui	v1,0x8
   80094:	24420378 	addiu	v1,v1,888
   80098:	8444fffc 	lh	a1,-4(v1)
   8009c:	241d0014 	li	sp,20
   800a0:	241e00ff 	li	at,255
   800a4:	149e0084 	bne	a1,at,802b8 <_fail>
   800a8:	3c020008 	lui	v1,0x8
   800ac:	24420378 	addiu	v1,v1,888
   800b0:	8444fffe 	lh	a1,-2(v1)
   800b4:	241d0015 	li	sp,21
   800b8:	241eff00 	li	at,-256
   800bc:	149e007e 	bne	a1,at,802b8 <_fail>
   800c0:	3c020008 	lui	v1,0x8
   800c4:	24420378 	addiu	v1,v1,888
   800c8:	84440000 	lh	a1,0(v1)
   800cc:	241d0016 	li	sp,22
   800d0:	241eff00 	li	at,-256
   800d4:	149e0078 	bne	a1,at,802b8 <_fail>
   800d8:	3c020008 	lui	v1,0x8
   800dc:	24420378 	addiu	v1,v1,888
   800e0:	84440002 	lh	a1,2(v1)
   800e4:	241d0017 	li	sp,23
   800e8:	241e00ff 	li	at,255
   800ec:	149e0072 	bne	a1,at,802b8 <_fail>
   800f0:	3c020008 	lui	v1,0x8
   800f4:	24420370 	addiu	v1,v1,880
   800f8:	2442ffe0 	addiu	v1,v1,-32
   800fc:	84440022 	lh	a1,34(v1)
   80100:	241d001e 	li	sp,30
   80104:	241edead 	li	at,-8531
   80108:	149e006b 	bne	a1,at,802b8 <_fail>
   8010c:	3c020008 	lui	v1,0x8
   80110:	24420370 	addiu	v1,v1,880
   80114:	2442fffd 	addiu	v1,v1,-3
   80118:	84440005 	lh	a1,5(v1)
   8011c:	241d0025 	li	sp,37
   80120:	241edead 	li	at,-8531
   80124:	149e0064 	bne	a1,at,802b8 <_fail>
   80128:	3c020008 	lui	v1,0x8
   8012c:	24420370 	addiu	v1,v1,880
   80130:	84440000 	lh	a1,0(v1)
   80134:	24870000 	addiu	a4,a1,0
   80138:	241d002b 	li	sp,43
   8013c:	241ebeef 	li	at,-16657
   80140:	14fe005d 	bne	a4,at,802b8 <_fail>
   80144:	3c020008 	lui	v1,0x8
   80148:	24420370 	addiu	v1,v1,880
   8014c:	84440002 	lh	a1,2(v1)
   80150:	00000000 	nop
   80154:	24870000 	addiu	a4,a1,0
   80158:	241d002c 	li	sp,44
   8015c:	241edead 	li	at,-8531
   80160:	14fe0055 	bne	a4,at,802b8 <_fail>
   80164:	3c020008 	lui	v1,0x8
   80168:	24420374 	addiu	v1,v1,884
   8016c:	84440000 	lh	a1,0(v1)
   80170:	00000000 	nop
   80174:	00000000 	nop
   80178:	24870000 	addiu	a4,a1,0
   8017c:	241d002d 	li	sp,45
   80180:	241e00ff 	li	at,255
   80184:	14fe004c 	bne	a4,at,802b8 <_fail>
   80188:	3c020008 	lui	v1,0x8
   8018c:	24420374 	addiu	v1,v1,884
   80190:	84440002 	lh	a1,2(v1)
   80194:	00000000 	nop
   80198:	00000000 	nop
   8019c:	00000000 	nop
   801a0:	24870000 	addiu	a4,a1,0
   801a4:	241d002e 	li	sp,46
   801a8:	241eff00 	li	at,-256
   801ac:	14fe0042 	bne	a4,at,802b8 <_fail>
   801b0:	3c020008 	lui	v1,0x8
   801b4:	24420378 	addiu	v1,v1,888
   801b8:	84440000 	lh	a1,0(v1)
   801bc:	00000000 	nop
   801c0:	00000000 	nop
   801c4:	00000000 	nop
   801c8:	00000000 	nop
   801cc:	24870000 	addiu	a4,a1,0
   801d0:	241d002f 	li	sp,47
   801d4:	241eff00 	li	at,-256
   801d8:	14fe0037 	bne	a4,at,802b8 <_fail>
   801dc:	3c020008 	lui	v1,0x8
   801e0:	24420370 	addiu	v1,v1,880
   801e4:	84440000 	lh	a1,0(v1)
   801e8:	241d0031 	li	sp,49
   801ec:	241ebeef 	li	at,-16657
   801f0:	149e0031 	bne	a1,at,802b8 <_fail>
   801f4:	3c020008 	lui	v1,0x8
   801f8:	24420370 	addiu	v1,v1,880
   801fc:	00000000 	nop
   80200:	84440002 	lh	a1,2(v1)
   80204:	241d0032 	li	sp,50
   80208:	241edead 	li	at,-8531
   8020c:	149e002a 	bne	a1,at,802b8 <_fail>
   80210:	3c020008 	lui	v1,0x8
   80214:	24420374 	addiu	v1,v1,884
   80218:	00000000 	nop
   8021c:	00000000 	nop
   80220:	84440000 	lh	a1,0(v1)
   80224:	241d0033 	li	sp,51
   80228:	241e00ff 	li	at,255
   8022c:	149e0022 	bne	a1,at,802b8 <_fail>
   80230:	3c020008 	lui	v1,0x8
   80234:	24420374 	addiu	v1,v1,884
   80238:	00000000 	nop
   8023c:	00000000 	nop
   80240:	00000000 	nop
   80244:	84440002 	lh	a1,2(v1)
   80248:	241d0034 	li	sp,52
   8024c:	241eff00 	li	at,-256
   80250:	149e0019 	bne	a1,at,802b8 <_fail>
   80254:	3c020008 	lui	v1,0x8
   80258:	24420378 	addiu	v1,v1,888
   8025c:	00000000 	nop
   80260:	00000000 	nop
   80264:	00000000 	nop
   80268:	00000000 	nop
   8026c:	84440000 	lh	a1,0(v1)
   80270:	241d0035 	li	sp,53
   80274:	241eff00 	li	at,-256
   80278:	149e000f 	bne	a1,at,802b8 <_fail>
   8027c:	3c040008 	lui	a1,0x8
   80280:	24840370 	addiu	a1,a1,880
   80284:	84830002 	lh	a0,2(a1)
   80288:	24030002 	li	a0,2
   8028c:	241d003c 	li	sp,60
   80290:	241e0002 	li	at,2
   80294:	147e0008 	bne	a0,at,802b8 <_fail>
   80298:	3c050008 	lui	a2,0x8
   8029c:	24a50370 	addiu	a2,a2,880
   802a0:	84a60002 	lh	a3,2(a2)
   802a4:	24c70001 	addiu	a4,a3,1
   802a8:	241d0043 	li	sp,67
   802ac:	241edeae 	li	at,-8530
   802b0:	14fe0001 	bne	a4,at,802b8 <_fail>

000802b4 <_pass>:
   802b4:	241d0001 	li	sp,1

000802b8 <_fail>:
   802b8:	24020001 	li	v1,1
   802bc:	409da800 	mtc0	sp,c0_staten
   802c0:	1402ffff 	bne	zero,v1,802c0 <_fail+0x8>
   802c4:	00000000 	nop
   802c8:	00000000 	nop
   802cc:	00000000 	nop
   802d0:	00000000 	nop
   802d4:	00000000 	nop
   802d8:	00000000 	nop
   802dc:	00000000 	nop
   802e0:	00000000 	nop
   802e4:	00000000 	nop
   802e8:	00000000 	nop
   802ec:	00000000 	nop
   802f0:	00000000 	nop
   802f4:	00000000 	nop
   802f8:	00000000 	nop
   802fc:	00000000 	nop
   80300:	00000000 	nop
   80304:	00000000 	nop
   80308:	00000000 	nop
   8030c:	00000000 	nop
   80310:	00000000 	nop
   80314:	00000000 	nop
   80318:	00000000 	nop
   8031c:	00000000 	nop
   80320:	00000000 	nop
   80324:	00000000 	nop
   80328:	00000000 	nop
   8032c:	00000000 	nop
   80330:	00000000 	nop
   80334:	00000000 	nop
   80338:	00000000 	nop
   8033c:	00000000 	nop
   80340:	00000000 	nop
   80344:	00000000 	nop
   80348:	00000000 	nop
   8034c:	00000000 	nop
   80350:	00000000 	nop
   80354:	00000000 	nop
   80358:	00000000 	nop
   8035c:	00000000 	nop
   80360:	00000000 	nop
   80364:	00000000 	nop
   80368:	00000000 	nop
   8036c:	00000000 	nop
