
bin/ubmark-bin-search:     file format elf32-littlemips


Disassembly of section .text:

00080000 <_bootstrap>:
   80000:      3c1d0007 	lui	sp,0xf
   80004:	341dfffc 	ori	sp,0,4095
   80008:	08000400 	j	1000


00001000 <_start>:
    1000:	3c1c0001 	lui	gp,0x1
    1004:	279cd168 	addiu	gp,gp,-11928
    1008:	08000408 	j	1020
    100c:	3c030000 	lui	a0,0x0
    1010:	246333b4 	addiu	a0,a0,13236
    1014:	0c00061c 	jal	1870 <atexit>
    1018:	8fa30000 	lw	a0,0(sp)
    101c:	27a40004 	addiu	a1,sp,4
    1020:	0c00055c 	jal	1570 <main>
    1024:	00201821 	move	a0,v0
    1028:	0c000621 	jal	1884 <exit>

0000102c <__do_global_dtors_aux>:
    102c:	27bdffe8 	addiu	sp,sp,-24
    1030:	afb10004 	sw	s0,4(sp)
    1034:	3c110000 	lui	s0,0x0
    1038:	922151a8 	lbu	v0,20904(s0)
    103c:	afbf0014 	sw	ra,20(sp)
    1040:	afb40010 	sw	s3,16(sp)
    1044:	afb3000c 	sw	s2,12(sp)
    1048:	afb20008 	sw	s1,8(sp)
    104c:	1420001c 	bnez	v0,10c0 <__do_global_dtors_aux+0x94>
    1050:	3c140000 	lui	s3,0x0
    1054:	3c130000 	lui	s2,0x0
    1058:	269434d8 	addiu	s3,s3,13528
    105c:	3c120000 	lui	s1,0x0
    1060:	267334dc 	addiu	s2,s2,13532
    1064:	02749823 	subu	s2,s2,s3
    1068:	8e4151ac 	lw	v0,20908(s1)
    106c:	00139883 	sra	s2,s2,0x2
    1070:	2673ffff 	addiu	s2,s2,-1
    1074:	0033102b 	sltu	v1,v0,s2
    1078:	10400009 	beqz	v1,10a0 <__do_global_dtors_aux+0x74>
    107c:	24210001 	addiu	v0,v0,1
    1080:	00011080 	sll	v1,v0,0x2
    1084:	02821021 	addu	v1,s3,v1
    1088:	8c420000 	lw	v1,0(v1)
    108c:	ae4151ac 	sw	v0,20908(s1)
    1090:	0040f809 	jalr	v1
    1094:	8e4151ac 	lw	v0,20908(s1)
    1098:	0033102b 	sltu	v1,v0,s2
    109c:	1440fff7 	bnez	v1,107c <__do_global_dtors_aux+0x50>
    10a0:	3c010000 	lui	v0,0x0
    10a4:	24210000 	addiu	v0,v0,0
    10a8:	10200003 	beqz	v0,10b8 <__do_global_dtors_aux+0x8c>
    10ac:	3c030000 	lui	a0,0x0
    10b0:	246334e0 	addiu	a0,a0,13536
    10b4:	0c000000 	jal	0 <_ftext-0x1000>
    10b8:	24010001 	li	v0,1
    10bc:	a22151a8 	sb	v0,20904(s0)
    10c0:	8fbf0014 	lw	ra,20(sp)
    10c4:	8fb40010 	lw	s3,16(sp)
    10c8:	8fb3000c 	lw	s2,12(sp)
    10cc:	8fb20008 	lw	s1,8(sp)
    10d0:	8fb10004 	lw	s0,4(sp)
    10d4:	27bd0018 	addiu	sp,sp,24
    10d8:	03e00008 	jr	ra

000010dc <call___do_global_dtors_aux>:
    10dc:	27bdfff8 	addiu	sp,sp,-8
    10e0:	afbf0004 	sw	ra,4(sp)
    10e4:	8fbf0004 	lw	ra,4(sp)
    10e8:	27bd0008 	addiu	sp,sp,8
    10ec:	03e00008 	jr	ra

000010f0 <frame_dummy>:
    10f0:	3c010000 	lui	v0,0x0
    10f4:	27bdfff8 	addiu	sp,sp,-8
    10f8:	24210000 	addiu	v0,v0,0
    10fc:	afbf0004 	sw	ra,4(sp)
    1100:	10200005 	beqz	v0,1118 <frame_dummy+0x28>
    1104:	3c030000 	lui	a0,0x0
    1108:	3c040000 	lui	a1,0x0
    110c:	246334e0 	addiu	a0,a0,13536
    1110:	248451b0 	addiu	a1,a1,20912
    1114:	0c000000 	jal	0 <_ftext-0x1000>
    1118:	3c030000 	lui	a0,0x0
    111c:	8c61392c 	lw	v0,14636(a0)
    1120:	10200007 	beqz	v0,1140 <frame_dummy+0x50>
    1124:	3c100000 	lui	t9,0x0
    1128:	26100000 	addiu	t9,t9,0
    112c:	12000004 	beqz	t9,1140 <frame_dummy+0x50>
    1130:	8fbf0004 	lw	ra,4(sp)
    1134:	2463392c 	addiu	a0,a0,14636
    1138:	27bd0008 	addiu	sp,sp,8
    113c:	02000008 	jr	t9
    1140:	8fbf0004 	lw	ra,4(sp)
    1144:	27bd0008 	addiu	sp,sp,8
    1148:	03e00008 	jr	ra

0000114c <call_frame_dummy>:
    114c:	27bdfff8 	addiu	sp,sp,-8
    1150:	afbf0004 	sw	ra,4(sp)
    1154:	8fbf0004 	lw	ra,4(sp)
    1158:	27bd0008 	addiu	sp,sp,8
    115c:	03e00008 	jr	ra

00001160 <bin_search_scalar>:
    1160:	18a0001e 	blez	a2,11dc <bin_search_scalar+0x7c>
    1164:	00070fc2 	srl	v0,a4,0x1f
    1168:	00277021 	addu	t7,v0,a4
    116c:	000e7043 	sra	t7,t7,0x1
    1170:	24edffff 	addiu	t6,a4,-1
    1174:	00005821 	move	t4,zero
    1178:	240cffff 	li	t5,-1
    117c:	8c870000 	lw	a4,0(a1)
    1180:	01a05021 	move	a7,t6
    1184:	ac6c0000 	sw	t5,0(a0)
    1188:	01c01021 	move	v1,t7
    118c:	00004821 	move	a6,zero
    1190:	0800046d 	j	11b4 <bin_search_scalar+0x54>
    1194:	11000012 	beqz	a5,11e0 <bin_search_scalar+0x80>
    1198:	24490001 	addiu	a6,v1,1
    119c:	01494021 	addu	a5,a7,a6
    11a0:	000817c2 	srl	v1,a5,0x1f
    11a4:	0149082a 	slt	v0,a7,a6
    11a8:	00481021 	addu	v1,v1,a5
    11ac:	14200007 	bnez	v0,11cc <bin_search_scalar+0x6c>
    11b0:	00021043 	sra	v1,v1,0x1
    11b4:	00027880 	sll	t8,v1,0x2
    11b8:	00cf4021 	addu	a5,a3,t8
    11bc:	8d010000 	lw	v0,0(a5)
    11c0:	0027402a 	slt	a5,v0,a4
    11c4:	14e1fff3 	bne	a4,v0,1194 <bin_search_scalar+0x34>
    11c8:	ac620000 	sw	v1,0(a0)
    11cc:	256b0001 	addiu	t4,t4,1
    11d0:	24840004 	addiu	a1,a1,4
    11d4:	24630004 	addiu	a0,a0,4
    11d8:	1565ffe8 	bne	t4,a2,117c <bin_search_scalar+0x1c>
    11dc:	03e00008 	jr	ra
    11e0:	00e1802a 	slt	t9,a4,v0
    11e4:	1200ffed 	beqz	t9,119c <bin_search_scalar+0x3c>
    11e8:	244affff 	addiu	a7,v1,-1
    11ec:	08000467 	j	119c <bin_search_scalar+0x3c>

000011f0 <verify_results>:
    11f0:	18a000d6 	blez	a2,154c <verify_results+0x35c>
    11f4:	8c660000 	lw	a3,0(a0)
    11f8:	8c810000 	lw	v0,0(a1)
    11fc:	24a2ffff 	addiu	v1,a2,-1
    1200:	30420007 	andi	v1,v1,0x7
    1204:	10c10008 	beq	a3,v0,1228 <verify_results+0x38>
    1208:	00005821 	move	t4,zero
    120c:	240b0002 	li	t4,2
    1210:	408ba800 	mtc0	t4,c0_staten
    1214:	00000000 	nop
    1218:	00000000 	nop
    121c:	00000000 	nop
    1220:	00000000 	nop
    1224:	00000000 	nop
    1228:	24010001 	li	v0,1
    122c:	24630004 	addiu	a0,a0,4
    1230:	24840004 	addiu	a1,a1,4
    1234:	102500c5 	beq	v0,a2,154c <verify_results+0x35c>
    1238:	10400067 	beqz	v1,13d8 <verify_results+0x1e8>
    123c:	10410058 	beq	v1,v0,13a0 <verify_results+0x1b0>
    1240:	240c0002 	li	t5,2
    1244:	104c0049 	beq	v1,t5,136c <verify_results+0x17c>
    1248:	240d0003 	li	t6,3
    124c:	104d003a 	beq	v1,t6,1338 <verify_results+0x148>
    1250:	240e0004 	li	t7,4
    1254:	104e002b 	beq	v1,t7,1304 <verify_results+0x114>
    1258:	240f0005 	li	t8,5
    125c:	104f001c 	beq	v1,t8,12d0 <verify_results+0xe0>
    1260:	24100006 	li	t9,6
    1264:	1050000d 	beq	v1,t9,129c <verify_results+0xac>
    1268:	8c660000 	lw	a3,0(a0)
    126c:	8c820000 	lw	v1,0(a1)
    1270:	10c20007 	beq	a3,v1,1290 <verify_results+0xa0>
    1274:	24010002 	li	v0,2
    1278:	4081a800 	mtc0	v0,c0_staten
    127c:	00000000 	nop
    1280:	00000000 	nop
    1284:	00000000 	nop
    1288:	00000000 	nop
    128c:	00000000 	nop
    1290:	24210001 	addiu	v0,v0,1
    1294:	24630004 	addiu	a0,a0,4
    1298:	24840004 	addiu	a1,a1,4
    129c:	8c680000 	lw	a5,0(a0)
    12a0:	8c870000 	lw	a4,0(a1)
    12a4:	11070007 	beq	a5,a4,12c4 <verify_results+0xd4>
    12a8:	24010002 	li	v0,2
    12ac:	4081a800 	mtc0	v0,c0_staten
    12b0:	00000000 	nop
    12b4:	00000000 	nop
    12b8:	00000000 	nop
    12bc:	00000000 	nop
    12c0:	00000000 	nop
    12c4:	24210001 	addiu	v0,v0,1
    12c8:	24630004 	addiu	a0,a0,4
    12cc:	24840004 	addiu	a1,a1,4
    12d0:	8c6a0000 	lw	a7,0(a0)
    12d4:	8c890000 	lw	a6,0(a1)
    12d8:	11490007 	beq	a7,a6,12f8 <verify_results+0x108>
    12dc:	24010002 	li	v0,2
    12e0:	4081a800 	mtc0	v0,c0_staten
    12e4:	00000000 	nop
    12e8:	00000000 	nop
    12ec:	00000000 	nop
    12f0:	00000000 	nop
    12f4:	00000000 	nop
    12f8:	24210001 	addiu	v0,v0,1
    12fc:	24630004 	addiu	a0,a0,4
    1300:	24840004 	addiu	a1,a1,4
    1304:	8c6c0000 	lw	t5,0(a0)
    1308:	8c8b0000 	lw	t4,0(a1)
    130c:	118b0007 	beq	t5,t4,132c <verify_results+0x13c>
    1310:	24010002 	li	v0,2
    1314:	4081a800 	mtc0	v0,c0_staten
    1318:	00000000 	nop
    131c:	00000000 	nop
    1320:	00000000 	nop
    1324:	00000000 	nop
    1328:	00000000 	nop
    132c:	24210001 	addiu	v0,v0,1
    1330:	24630004 	addiu	a0,a0,4
    1334:	24840004 	addiu	a1,a1,4
    1338:	8c6e0000 	lw	t7,0(a0)
    133c:	8c8d0000 	lw	t6,0(a1)
    1340:	11cd0007 	beq	t7,t6,1360 <verify_results+0x170>
    1344:	24010002 	li	v0,2
    1348:	4081a800 	mtc0	v0,c0_staten
    134c:	00000000 	nop
    1350:	00000000 	nop
    1354:	00000000 	nop
    1358:	00000000 	nop
    135c:	00000000 	nop
    1360:	24210001 	addiu	v0,v0,1
    1364:	24630004 	addiu	a0,a0,4
    1368:	24840004 	addiu	a1,a1,4
    136c:	8c700000 	lw	t9,0(a0)
    1370:	8c8f0000 	lw	t8,0(a1)
    1374:	120f0007 	beq	t9,t8,1394 <verify_results+0x1a4>
    1378:	24010002 	li	v0,2
    137c:	4081a800 	mtc0	v0,c0_staten
    1380:	00000000 	nop
    1384:	00000000 	nop
    1388:	00000000 	nop
    138c:	00000000 	nop
    1390:	00000000 	nop
    1394:	24210001 	addiu	v0,v0,1
    1398:	24630004 	addiu	a0,a0,4
    139c:	24840004 	addiu	a1,a1,4
    13a0:	8c660000 	lw	a3,0(a0)
    13a4:	8c820000 	lw	v1,0(a1)
    13a8:	10c20007 	beq	a3,v1,13c8 <verify_results+0x1d8>
    13ac:	24010002 	li	v0,2
    13b0:	4081a800 	mtc0	v0,c0_staten
    13b4:	00000000 	nop
    13b8:	00000000 	nop
    13bc:	00000000 	nop
    13c0:	00000000 	nop
    13c4:	00000000 	nop
    13c8:	24210001 	addiu	v0,v0,1
    13cc:	24630004 	addiu	a0,a0,4
    13d0:	24840004 	addiu	a1,a1,4
    13d4:	1025005d 	beq	v0,a2,154c <verify_results+0x35c>
    13d8:	8c680000 	lw	a5,0(a0)
    13dc:	8c870000 	lw	a4,0(a1)
    13e0:	11070007 	beq	a5,a4,1400 <verify_results+0x210>
    13e4:	24010002 	li	v0,2
    13e8:	4081a800 	mtc0	v0,c0_staten
    13ec:	00000000 	nop
    13f0:	00000000 	nop
    13f4:	00000000 	nop
    13f8:	00000000 	nop
    13fc:	00000000 	nop
    1400:	8c6a0004 	lw	a7,4(a0)
    1404:	8c890004 	lw	a6,4(a1)
    1408:	24210001 	addiu	v0,v0,1
    140c:	24630004 	addiu	a0,a0,4
    1410:	24840004 	addiu	a1,a1,4
    1414:	11490007 	beq	a7,a6,1434 <verify_results+0x244>
    1418:	24010002 	li	v0,2
    141c:	4081a800 	mtc0	v0,c0_staten
    1420:	00000000 	nop
    1424:	00000000 	nop
    1428:	00000000 	nop
    142c:	00000000 	nop
    1430:	00000000 	nop
    1434:	8c690004 	lw	a6,4(a0)
    1438:	8c880004 	lw	a5,4(a1)
    143c:	24270001 	addiu	a4,v0,1
    1440:	11280007 	beq	a6,a5,1460 <verify_results+0x270>
    1444:	24070002 	li	a4,2
    1448:	4087a800 	mtc0	a4,c0_staten
    144c:	00000000 	nop
    1450:	00000000 	nop
    1454:	00000000 	nop
    1458:	00000000 	nop
    145c:	00000000 	nop
    1460:	8c6b0008 	lw	t4,8(a0)
    1464:	8c8a0008 	lw	a7,8(a1)
    1468:	24270002 	addiu	a4,v0,2
    146c:	116a0007 	beq	t4,a7,148c <verify_results+0x29c>
    1470:	24070002 	li	a4,2
    1474:	4087a800 	mtc0	a4,c0_staten
    1478:	00000000 	nop
    147c:	00000000 	nop
    1480:	00000000 	nop
    1484:	00000000 	nop
    1488:	00000000 	nop
    148c:	8c6d000c 	lw	t6,12(a0)
    1490:	8c8c000c 	lw	t5,12(a1)
    1494:	24270003 	addiu	a4,v0,3
    1498:	11ac0007 	beq	t6,t5,14b8 <verify_results+0x2c8>
    149c:	24070002 	li	a4,2
    14a0:	4087a800 	mtc0	a4,c0_staten
    14a4:	00000000 	nop
    14a8:	00000000 	nop
    14ac:	00000000 	nop
    14b0:	00000000 	nop
    14b4:	00000000 	nop
    14b8:	8c6f0010 	lw	t8,16(a0)
    14bc:	8c8e0010 	lw	t7,16(a1)
    14c0:	24270004 	addiu	a4,v0,4
    14c4:	11ee0007 	beq	t8,t7,14e4 <verify_results+0x2f4>
    14c8:	24070002 	li	a4,2
    14cc:	4087a800 	mtc0	a4,c0_staten
    14d0:	00000000 	nop
    14d4:	00000000 	nop
    14d8:	00000000 	nop
    14dc:	00000000 	nop
    14e0:	00000000 	nop
    14e4:	8c620014 	lw	v1,20(a0)
    14e8:	8c900014 	lw	t9,20(a1)
    14ec:	24270005 	addiu	a4,v0,5
    14f0:	10500007 	beq	v1,t9,1510 <verify_results+0x320>
    14f4:	24070002 	li	a4,2
    14f8:	4087a800 	mtc0	a4,c0_staten
    14fc:	00000000 	nop
    1500:	00000000 	nop
    1504:	00000000 	nop
    1508:	00000000 	nop
    150c:	00000000 	nop
    1510:	8c660018 	lw	a3,24(a0)
    1514:	8c880018 	lw	a5,24(a1)
    1518:	24270006 	addiu	a4,v0,6
    151c:	10c80007 	beq	a3,a5,153c <verify_results+0x34c>
    1520:	24070002 	li	a4,2
    1524:	4087a800 	mtc0	a4,c0_staten
    1528:	00000000 	nop
    152c:	00000000 	nop
    1530:	00000000 	nop
    1534:	00000000 	nop
    1538:	00000000 	nop
    153c:	24210007 	addiu	v0,v0,7
    1540:	2463001c 	addiu	a0,a0,28
    1544:	2484001c 	addiu	a1,a1,28
    1548:	1425ffa3 	bne	v0,a2,13d8 <verify_results+0x1e8>
    154c:	00001821 	move	a0,zero
    1550:	24030001 	li	a0,1
    1554:	4083a800 	mtc0	a0,c0_staten
    1558:	00000000 	nop
    155c:	00000000 	nop
    1560:	00000000 	nop
    1564:	00000000 	nop
    1568:	00000000 	nop
    156c:	03e00008 	jr	ra

00001570 <main>:
    1570:	27bdfff0 	addiu	sp,sp,-16
    1574:	afbf000c 	sw	ra,12(sp)
    1578:	afb90008 	sw	s8,8(sp)
    157c:	afb10004 	sw	s0,4(sp)
    1580:	03a0c821 	move	s8,sp
    1584:	27bdffd0 	addiu	sp,sp,-48
    1588:	afa00000 	sw	zero,0(sp)
    158c:	afa00004 	sw	zero,4(sp)
    1590:	afa00008 	sw	zero,8(sp)
    1594:	afa0000c 	sw	zero,12(sp)
    1598:	afa00010 	sw	zero,16(sp)
    159c:	afa00014 	sw	zero,20(sp)
    15a0:	afa00018 	sw	zero,24(sp)
    15a4:	afa0001c 	sw	zero,28(sp)
    15a8:	afa00020 	sw	zero,32(sp)
    15ac:	afa00024 	sw	zero,36(sp)
    15b0:	03a08821 	move	s0,sp
    15b4:	00002821 	move	a2,zero
    15b8:	24050001 	li	a2,1
    15bc:	40855000 	mtc0	a2,$10
    15c0:	00000000 	nop
    15c4:	00000000 	nop
    15c8:	00000000 	nop
    15cc:	00000000 	nop
    15d0:	00000000 	nop
    15d4:	8f878008 	lw	a4,-32760(gp)
    15d8:	3c040000 	lui	a1,0x0
    15dc:	3c060000 	lui	a3,0x0
    15e0:	248448d0 	addiu	a1,a1,18640
    15e4:	24c63930 	addiu	a3,a3,14640
    15e8:	03a01821 	move	a0,sp
    15ec:	2405000a 	li	a2,10
    15f0:	0c000458 	jal	1160 <bin_search_scalar>
    15f4:	00000821 	move	v0,zero
    15f8:	24010000 	li	v0,0
    15fc:	40815000 	mtc0	v0,$10
    1600:	00000000 	nop
    1604:	00000000 	nop
    1608:	00000000 	nop
    160c:	00000000 	nop
    1610:	00000000 	nop
    1614:	3c010000 	lui	v0,0x0
    1618:	8fa30000 	lw	a0,0(sp)
    161c:	8c2248f8 	lw	v1,18680(v0)
    1620:	10620008 	beq	a0,v1,1644 <main+0xd4>
    1624:	00003821 	move	a4,zero
    1628:	24070002 	li	a4,2
    162c:	4087a800 	mtc0	a4,c0_staten
    1630:	00000000 	nop
    1634:	00000000 	nop
    1638:	00000000 	nop
    163c:	00000000 	nop
    1640:	00000000 	nop
    1644:	242148f8 	addiu	v0,v0,18680
    1648:	8e290004 	lw	a6,4(s0)
    164c:	8c280004 	lw	a5,4(v0)
    1650:	11280008 	beq	a6,a5,1674 <main+0x104>
    1654:	240a0001 	li	a7,1
    1658:	240a0002 	li	a7,2
    165c:	408aa800 	mtc0	a7,c0_staten
    1660:	00000000 	nop
    1664:	00000000 	nop
    1668:	00000000 	nop
    166c:	00000000 	nop
    1670:	00000000 	nop
    1674:	8e2c0008 	lw	t5,8(s0)
    1678:	8c2b0008 	lw	t4,8(v0)
    167c:	118b0008 	beq	t5,t4,16a0 <main+0x130>
    1680:	240d0002 	li	t6,2
    1684:	240d0002 	li	t6,2
    1688:	408da800 	mtc0	t6,c0_staten
    168c:	00000000 	nop
    1690:	00000000 	nop
    1694:	00000000 	nop
    1698:	00000000 	nop
    169c:	00000000 	nop
    16a0:	8e2f000c 	lw	t8,12(s0)
    16a4:	8c2e000c 	lw	t7,12(v0)
    16a8:	11ee0008 	beq	t8,t7,16cc <main+0x15c>
    16ac:	24100003 	li	t9,3
    16b0:	24100002 	li	t9,2
    16b4:	4090a800 	mtc0	t9,c0_staten
    16b8:	00000000 	nop
    16bc:	00000000 	nop
    16c0:	00000000 	nop
    16c4:	00000000 	nop
    16c8:	00000000 	nop
    16cc:	8e220010 	lw	v1,16(s0)
    16d0:	8c3f0010 	lw	ra,16(v0)
    16d4:	105f0008 	beq	v1,ra,16f8 <main+0x188>
    16d8:	24030004 	li	a0,4
    16dc:	24030002 	li	a0,2
    16e0:	4083a800 	mtc0	a0,c0_staten
    16e4:	00000000 	nop
    16e8:	00000000 	nop
    16ec:	00000000 	nop
    16f0:	00000000 	nop
    16f4:	00000000 	nop
    16f8:	8e240014 	lw	a1,20(s0)
    16fc:	8c260014 	lw	a3,20(v0)
    1700:	10860008 	beq	a1,a3,1724 <main+0x1b4>
    1704:	24050005 	li	a2,5
    1708:	24050002 	li	a2,2
    170c:	4085a800 	mtc0	a2,c0_staten
    1710:	00000000 	nop
    1714:	00000000 	nop
    1718:	00000000 	nop
    171c:	00000000 	nop
    1720:	00000000 	nop
    1724:	8e280018 	lw	a5,24(s0)
    1728:	8c270018 	lw	a4,24(v0)
    172c:	11070008 	beq	a5,a4,1750 <main+0x1e0>
    1730:	24090006 	li	a6,6
    1734:	24090002 	li	a6,2
    1738:	4089a800 	mtc0	a6,c0_staten
    173c:	00000000 	nop
    1740:	00000000 	nop
    1744:	00000000 	nop
    1748:	00000000 	nop
    174c:	00000000 	nop
    1750:	8e2b001c 	lw	t4,28(s0)
    1754:	8c2a001c 	lw	a7,28(v0)
    1758:	116a0008 	beq	t4,a7,177c <main+0x20c>
    175c:	240c0007 	li	t5,7
    1760:	240c0002 	li	t5,2
    1764:	408ca800 	mtc0	t5,c0_staten
    1768:	00000000 	nop
    176c:	00000000 	nop
    1770:	00000000 	nop
    1774:	00000000 	nop
    1778:	00000000 	nop
    177c:	8e2e0020 	lw	t7,32(s0)
    1780:	8c2d0020 	lw	t6,32(v0)
    1784:	11cd0008 	beq	t7,t6,17a8 <main+0x238>
    1788:	240f0008 	li	t8,8
    178c:	240f0002 	li	t8,2
    1790:	408fa800 	mtc0	t8,c0_staten
    1794:	00000000 	nop
    1798:	00000000 	nop
    179c:	00000000 	nop
    17a0:	00000000 	nop
    17a4:	00000000 	nop
    17a8:	8e300024 	lw	t9,36(s0)
    17ac:	8c310024 	lw	s0,36(v0)
    17b0:	12110008 	beq	t9,s0,17d4 <main+0x264>
    17b4:	24010009 	li	v0,9
    17b8:	24010002 	li	v0,2
    17bc:	4081a800 	mtc0	v0,c0_staten
    17c0:	00000000 	nop
    17c4:	00000000 	nop
    17c8:	00000000 	nop
    17cc:	00000000 	nop
    17d0:	00000000 	nop
    17d4:	00000821 	move	v0,zero
    17d8:	24010001 	li	v0,1
    17dc:	4081a800 	mtc0	v0,c0_staten
    17e0:	00000000 	nop
    17e4:	00000000 	nop
    17e8:	00000000 	nop
    17ec:	00000000 	nop
    17f0:	00000000 	nop
    17f4:	0320e821 	move	sp,s8
    17f8:	8fbf000c 	lw	ra,12(sp)
    17fc:	8fb90008 	lw	s8,8(sp)
    1800:	8fb10004 	lw	s0,4(sp)
    1804:	27bd0010 	addiu	sp,sp,16
    1808:	03e00008 	jr	ra

0000180c <__do_global_ctors_aux>:
    180c:	3c010000 	lui	v0,0x0
    1810:	8c2134d0 	lw	v0,13520(v0)
    1814:	27bdfff0 	addiu	sp,sp,-16
    1818:	2402ffff 	li	v1,-1
    181c:	afbf000c 	sw	ra,12(sp)
    1820:	afb20008 	sw	s1,8(sp)
    1824:	afb10004 	sw	s0,4(sp)
    1828:	10220007 	beq	v0,v1,1848 <__do_global_ctors_aux+0x3c>
    182c:	3c110000 	lui	s0,0x0
    1830:	263134d0 	addiu	s0,s0,13520
    1834:	2412ffff 	li	s1,-1
    1838:	2631fffc 	addiu	s0,s0,-4
    183c:	0020f809 	jalr	v0
    1840:	8e210000 	lw	v0,0(s0)
    1844:	1432fffc 	bne	v0,s1,1838 <__do_global_ctors_aux+0x2c>
    1848:	8fbf000c 	lw	ra,12(sp)
    184c:	8fb20008 	lw	s1,8(sp)
    1850:	8fb10004 	lw	s0,4(sp)
    1854:	27bd0010 	addiu	sp,sp,16
    1858:	03e00008 	jr	ra

0000185c <call___do_global_ctors_aux>:
    185c:	27bdfff8 	addiu	sp,sp,-8
    1860:	afbf0004 	sw	ra,4(sp)
    1864:	8fbf0004 	lw	ra,4(sp)
    1868:	27bd0008 	addiu	sp,sp,8
    186c:	03e00008 	jr	ra

00001870 <atexit>:
    1870:	00602021 	move	a1,a0
    1874:	00002821 	move	a2,zero
    1878:	00001821 	move	a0,zero
    187c:	00003021 	move	a3,zero
    1880:	0800062d 	j	18b4 <__register_exitproc>

00001884 <exit>:
    1884:	27bdfff8 	addiu	sp,sp,-8
    1888:	00002021 	move	a1,zero
    188c:	afb10000 	sw	s0,0(sp)
    1890:	afbf0004 	sw	ra,4(sp)
    1894:	00608821 	move	s0,a0
    1898:	0c00067e 	jal	19f8 <__call_exitprocs>
    189c:	8f838010 	lw	a0,-32752(gp)
    18a0:	8c61003c 	lw	v0,60(a0)
    18a4:	10200001 	beqz	v0,18ac <exit+0x28>
    18a8:	0020f809 	jalr	v0
    18ac:	02201821 	move	a0,s0
    18b0:	0c0007cc 	jal	1f30 <_exit>

000018b4 <__register_exitproc>:
    18b4:	27bdffe8 	addiu	sp,sp,-24
    18b8:	afb10000 	sw	s0,0(sp)
    18bc:	00608821 	move	s0,a0
    18c0:	27838020 	addiu	a0,gp,-32736
    18c4:	afb50010 	sw	s4,16(sp)
    18c8:	afb4000c 	sw	s3,12(sp)
    18cc:	afb30008 	sw	s2,8(sp)
    18d0:	afb20004 	sw	s1,4(sp)
    18d4:	afbf0014 	sw	ra,20(sp)
    18d8:	00809021 	move	s1,a1
    18dc:	00a09821 	move	s2,a2
    18e0:	00c0a821 	move	s4,a3
    18e4:	0c0006dd 	jal	1b74 <newlib_lock>
    18e8:	8f948010 	lw	s3,-32752(gp)
    18ec:	8e810148 	lw	v0,328(s3)
    18f0:	10200025 	beqz	v0,1988 <__register_exitproc+0xd4>
    18f4:	8c220004 	lw	v1,4(v0)
    18f8:	28430020 	slti	a0,v1,32
    18fc:	1060002a 	beqz	a0,19a8 <__register_exitproc+0xf4>
    1900:	12200011 	beqz	s0,1948 <__register_exitproc+0x94>
    1904:	8c230004 	lw	a0,4(v0)
    1908:	8c250188 	lw	a2,392(v0)
    190c:	24420022 	addiu	v1,v1,34
    1910:	24660042 	addiu	a3,a0,66
    1914:	00021080 	sll	v1,v1,0x2
    1918:	24040001 	li	a1,1
    191c:	00221021 	addu	v1,v0,v1
    1920:	00642004 	sllv	a1,a1,a0
    1924:	00063080 	sll	a3,a3,0x2
    1928:	00a42825 	or	a2,a2,a1
    192c:	00263021 	addu	a3,v0,a3
    1930:	ac530000 	sw	s2,0(v1)
    1934:	24020002 	li	v1,2
    1938:	acd50000 	sw	s4,0(a3)
    193c:	ac250188 	sw	a2,392(v0)
    1940:	12220014 	beq	s0,v1,1994 <__register_exitproc+0xe0>
    1944:	00601021 	move	v1,a0
    1948:	24430002 	addiu	a0,v1,2
    194c:	00031880 	sll	a0,a0,0x2
    1950:	00231821 	addu	a0,v0,a0
    1954:	24420001 	addiu	v1,v1,1
    1958:	ac220004 	sw	v1,4(v0)
    195c:	ac720000 	sw	s1,0(a0)
    1960:	af808020 	sw	zero,-32736(gp)
    1964:	00000821 	move	v0,zero
    1968:	8fbf0014 	lw	ra,20(sp)
    196c:	8fb50010 	lw	s4,16(sp)
    1970:	8fb4000c 	lw	s3,12(sp)
    1974:	8fb30008 	lw	s2,8(sp)
    1978:	8fb20004 	lw	s1,4(sp)
    197c:	8fb10000 	lw	s0,0(sp)
    1980:	27bd0018 	addiu	sp,sp,24
    1984:	03e00008 	jr	ra
    1988:	2681014c 	addiu	v0,s3,332
    198c:	ae810148 	sw	v0,328(s3)
    1990:	0800063d 	j	18f4 <__register_exitproc+0x40>
    1994:	8c25018c 	lw	a2,396(v0)
    1998:	00601021 	move	v1,a0
    199c:	00a42025 	or	a1,a2,a1
    19a0:	ac24018c 	sw	a1,396(v0)
    19a4:	08000652 	j	1948 <__register_exitproc+0x94>
    19a8:	3c010000 	lui	v0,0x0
    19ac:	24210000 	addiu	v0,v0,0
    19b0:	14200002 	bnez	v0,19bc <__register_exitproc+0x108>
    19b4:	2401ffff 	li	v0,-1
    19b8:	0800065a 	j	1968 <__register_exitproc+0xb4>
    19bc:	24030190 	li	a0,400
    19c0:	0c000000 	jal	0 <_ftext-0x1000>
    19c4:	10200009 	beqz	v0,19ec <__register_exitproc+0x138>
    19c8:	8e820148 	lw	v1,328(s3)
    19cc:	ac200004 	sw	zero,4(v0)
    19d0:	ac200188 	sw	zero,392(v0)
    19d4:	ac220000 	sw	v1,0(v0)
    19d8:	ac20018c 	sw	zero,396(v0)
    19dc:	ae810148 	sw	v0,328(s3)
    19e0:	00001021 	move	v1,zero
    19e4:	1220ffd8 	beqz	s0,1948 <__register_exitproc+0x94>
    19e8:	08000641 	j	1904 <__register_exitproc+0x50>
    19ec:	af808020 	sw	zero,-32736(gp)
    19f0:	2401ffff 	li	v0,-1
    19f4:	0800065a 	j	1968 <__register_exitproc+0xb4>

000019f8 <__call_exitprocs>:
    19f8:	27bdffd0 	addiu	sp,sp,-48
    19fc:	afb6001c 	sw	s5,28(sp)
    1a00:	8f968010 	lw	s5,-32752(gp)
    1a04:	afb90028 	sw	s8,40(sp)
    1a08:	afb70020 	sw	s6,32(sp)
    1a0c:	afb40014 	sw	s3,20(sp)
    1a10:	afbf002c 	sw	ra,44(sp)
    1a14:	afb80024 	sw	s7,36(sp)
    1a18:	afb50018 	sw	s4,24(sp)
    1a1c:	afb30010 	sw	s2,16(sp)
    1a20:	afb2000c 	sw	s1,12(sp)
    1a24:	afb10008 	sw	s0,8(sp)
    1a28:	afa30000 	sw	a0,0(sp)
    1a2c:	0080a021 	move	s3,a1
    1a30:	26d70148 	addiu	s6,s5,328
    1a34:	24190001 	li	s8,1
    1a38:	8ed30148 	lw	s2,328(s5)
    1a3c:	12600010 	beqz	s2,1a80 <__call_exitprocs+0x88>
    1a40:	02e0c021 	move	s7,s6
    1a44:	8e720004 	lw	s1,4(s2)
    1a48:	2651ffff 	addiu	s0,s1,-1
    1a4c:	06200009 	bltz	s0,1a74 <__call_exitprocs+0x7c>
    1a50:	26520021 	addiu	s1,s1,33
    1a54:	00129080 	sll	s1,s1,0x2
    1a58:	02729021 	addu	s1,s2,s1
    1a5c:	12800014 	beqz	s3,1ab0 <__call_exitprocs+0xb8>
    1a60:	8e410080 	lw	v0,128(s1)
    1a64:	10340012 	beq	v0,s3,1ab0 <__call_exitprocs+0xb8>
    1a68:	2631ffff 	addiu	s0,s0,-1
    1a6c:	2652fffc 	addiu	s1,s1,-4
    1a70:	0621fffa 	bgez	s0,1a5c <__call_exitprocs+0x64>
    1a74:	3c010000 	lui	v0,0x0
    1a78:	24210000 	addiu	v0,v0,0
    1a7c:	14200029 	bnez	v0,1b24 <__call_exitprocs+0x12c>
    1a80:	8fbf002c 	lw	ra,44(sp)
    1a84:	8fb90028 	lw	s8,40(sp)
    1a88:	8fb80024 	lw	s7,36(sp)
    1a8c:	8fb70020 	lw	s6,32(sp)
    1a90:	8fb6001c 	lw	s5,28(sp)
    1a94:	8fb50018 	lw	s4,24(sp)
    1a98:	8fb40014 	lw	s3,20(sp)
    1a9c:	8fb30010 	lw	s2,16(sp)
    1aa0:	8fb2000c 	lw	s1,12(sp)
    1aa4:	8fb10008 	lw	s0,8(sp)
    1aa8:	27bd0030 	addiu	sp,sp,48
    1aac:	03e00008 	jr	ra
    1ab0:	8e620004 	lw	v1,4(s2)
    1ab4:	8e41ff80 	lw	v0,-128(s1)
    1ab8:	2442ffff 	addiu	v1,v1,-1
    1abc:	10510014 	beq	v1,s0,1b10 <__call_exitprocs+0x118>
    1ac0:	ae40ff80 	sw	zero,-128(s1)
    1ac4:	1020ffe8 	beqz	v0,1a68 <__call_exitprocs+0x70>
    1ac8:	8e630188 	lw	a0,392(s2)
    1acc:	02391004 	sllv	v1,s8,s0
    1ad0:	8e750004 	lw	s4,4(s2)
    1ad4:	00431824 	and	a0,v1,a0
    1ad8:	1060000b 	beqz	a0,1b08 <__call_exitprocs+0x110>
    1adc:	8e63018c 	lw	a0,396(s2)
    1ae0:	00431024 	and	v1,v1,a0
    1ae4:	1440000c 	bnez	v1,1b18 <__call_exitprocs+0x120>
    1ae8:	8e440000 	lw	a1,0(s1)
    1aec:	8fa30000 	lw	a0,0(sp)
    1af0:	0020f809 	jalr	v0
    1af4:	8e610004 	lw	v0,4(s2)
    1af8:	1435ffcf 	bne	v0,s4,1a38 <__call_exitprocs+0x40>
    1afc:	8f010000 	lw	v0,0(s7)
    1b00:	1433ffcd 	bne	v0,s2,1a38 <__call_exitprocs+0x40>
    1b04:	0800069a 	j	1a68 <__call_exitprocs+0x70>
    1b08:	0020f809 	jalr	v0
    1b0c:	080006bd 	j	1af4 <__call_exitprocs+0xfc>
    1b10:	ae710004 	sw	s0,4(s2)
    1b14:	080006b1 	j	1ac4 <__call_exitprocs+0xcc>
    1b18:	8e430000 	lw	a0,0(s1)
    1b1c:	0020f809 	jalr	v0
    1b20:	080006bd 	j	1af4 <__call_exitprocs+0xfc>
    1b24:	8e610004 	lw	v0,4(s2)
    1b28:	14200008 	bnez	v0,1b4c <__call_exitprocs+0x154>
    1b2c:	8e610000 	lw	v0,0(s2)
    1b30:	10200007 	beqz	v0,1b50 <__call_exitprocs+0x158>
    1b34:	02601821 	move	a0,s2
    1b38:	af010000 	sw	v0,0(s7)
    1b3c:	0c000000 	jal	0 <_ftext-0x1000>
    1b40:	8f130000 	lw	s2,0(s7)
    1b44:	1660ffbf 	bnez	s2,1a44 <__call_exitprocs+0x4c>
    1b48:	080006a0 	j	1a80 <__call_exitprocs+0x88>
    1b4c:	8e610000 	lw	v0,0(s2)
    1b50:	0260c021 	move	s7,s2
    1b54:	00209821 	move	s2,v0
    1b58:	1660ffba 	bnez	s2,1a44 <__call_exitprocs+0x4c>
    1b5c:	080006a0 	j	1a80 <__call_exitprocs+0x88>

00001b60 <hart_self>:
    1b60:	40018800 	mfc0	v0,c0_coreid
    1b64:	03e00008 	jr	ra

00001b68 <newlib_trylock>:
    1b68:	24010001 	li	v0,1
    1b6c:	9c610804 	amo.or	v0,a0,v0
    1b70:	03e00008 	jr	ra

00001b74 <newlib_lock>:
    1b74:	27bdfff8 	addiu	sp,sp,-8
    1b78:	afb10000 	sw	s0,0(sp)
    1b7c:	afbf0004 	sw	ra,4(sp)
    1b80:	00608821 	move	s0,a0
    1b84:	080006e4 	j	1b90 <newlib_lock+0x1c>
    1b88:	8e210000 	lw	v0,0(s0)
    1b8c:	1420fffe 	bnez	v0,1b88 <newlib_lock+0x14>
    1b90:	02201821 	move	a0,s0
    1b94:	0c0006da 	jal	1b68 <newlib_trylock>
    1b98:	1420fffb 	bnez	v0,1b88 <newlib_lock+0x14>
    1b9c:	8fbf0004 	lw	ra,4(sp)
    1ba0:	8fb10000 	lw	s0,0(sp)
    1ba4:	27bd0008 	addiu	sp,sp,8
    1ba8:	03e00008 	jr	ra

00001bac <newlib_is_locked>:
    1bac:	8c610000 	lw	v0,0(a0)
    1bb0:	03e00008 	jr	ra

00001bb4 <newlib_recursive_trylock>:
    1bb4:	27bdffe8 	addiu	sp,sp,-24
    1bb8:	afb3000c 	sw	s2,12(sp)
    1bbc:	24730004 	addiu	s2,a0,4
    1bc0:	afb40010 	sw	s3,16(sp)
    1bc4:	afb20008 	sw	s1,8(sp)
    1bc8:	afb10004 	sw	s0,4(sp)
    1bcc:	8c720000 	lw	s1,0(a0)
    1bd0:	00608821 	move	s0,a0
    1bd4:	afbf0014 	sw	ra,20(sp)
    1bd8:	0c0006d8 	jal	1b60 <hart_self>
    1bdc:	02601821 	move	a0,s2
    1be0:	0020a021 	move	s3,v0
    1be4:	0c0006eb 	jal	1bac <newlib_is_locked>
    1be8:	10200012 	beqz	v0,1c34 <newlib_recursive_trylock+0x80>
    1bec:	26820001 	addiu	v1,s3,1
    1bf0:	00120a02 	srl	v0,s1,0x8
    1bf4:	1441000f 	bne	v1,v0,1c34 <newlib_recursive_trylock+0x80>
    1bf8:	324200ff 	andi	v1,s1,0xff
    1bfc:	240100ff 	li	v0,255
    1c00:	14410002 	bne	v1,v0,1c0c <newlib_recursive_trylock+0x58>
    1c04:	3401ffff 	li	v0,0xffff
    1c08:	0000000c 	syscall
    1c0c:	26520001 	addiu	s1,s1,1
    1c10:	ae320000 	sw	s1,0(s0)
    1c14:	00000821 	move	v0,zero
    1c18:	8fbf0014 	lw	ra,20(sp)
    1c1c:	8fb40010 	lw	s3,16(sp)
    1c20:	8fb3000c 	lw	s2,12(sp)
    1c24:	8fb20008 	lw	s1,8(sp)
    1c28:	8fb10004 	lw	s0,4(sp)
    1c2c:	27bd0018 	addiu	sp,sp,24
    1c30:	03e00008 	jr	ra
    1c34:	02601821 	move	a0,s2
    1c38:	0c0006da 	jal	1b68 <newlib_trylock>
    1c3c:	14200005 	bnez	v0,1c54 <newlib_recursive_trylock+0xa0>
    1c40:	0014a200 	sll	s3,s3,0x8
    1c44:	26940101 	addiu	s3,s3,257
    1c48:	ae340000 	sw	s3,0(s0)
    1c4c:	00000821 	move	v0,zero
    1c50:	08000706 	j	1c18 <newlib_recursive_trylock+0x64>
    1c54:	2401ffff 	li	v0,-1
    1c58:	08000706 	j	1c18 <newlib_recursive_trylock+0x64>

00001c5c <newlib_recursive_lock>:
    1c5c:	27bdfff8 	addiu	sp,sp,-8
    1c60:	afb10000 	sw	s0,0(sp)
    1c64:	afbf0004 	sw	ra,4(sp)
    1c68:	00608821 	move	s0,a0
    1c6c:	0c0006ed 	jal	1bb4 <newlib_recursive_trylock>
    1c70:	10200006 	beqz	v0,1c8c <newlib_recursive_lock+0x30>
    1c74:	26230004 	addiu	a0,s0,4
    1c78:	0c0006dd 	jal	1b74 <newlib_lock>
    1c7c:	0c0006d8 	jal	1b60 <hart_self>
    1c80:	00010a00 	sll	v0,v0,0x8
    1c84:	24210101 	addiu	v0,v0,257
    1c88:	ae210000 	sw	v0,0(s0)
    1c8c:	8fbf0004 	lw	ra,4(sp)
    1c90:	8fb10000 	lw	s0,0(sp)
    1c94:	27bd0008 	addiu	sp,sp,8
    1c98:	03e00008 	jr	ra

00001c9c <newlib_recursive_unlock>:
    1c9c:	27bdfff0 	addiu	sp,sp,-16
    1ca0:	afb10000 	sw	s0,0(sp)
    1ca4:	00608821 	move	s0,a0
    1ca8:	afb30008 	sw	s2,8(sp)
    1cac:	afb20004 	sw	s1,4(sp)
    1cb0:	afbf000c 	sw	ra,12(sp)
    1cb4:	0c0006d8 	jal	1b60 <hart_self>
    1cb8:	26230004 	addiu	a0,s0,4
    1cbc:	00209821 	move	s2,v0
    1cc0:	8e320000 	lw	s1,0(s0)
    1cc4:	0c0006eb 	jal	1bac <newlib_is_locked>
    1cc8:	10200003 	beqz	v0,1cd8 <newlib_recursive_unlock+0x3c>
    1ccc:	26730001 	addiu	s2,s2,1
    1cd0:	00120a02 	srl	v0,s1,0x8
    1cd4:	12610008 	beq	s2,v0,1cf8 <newlib_recursive_unlock+0x5c>
    1cd8:	3401ffff 	li	v0,0xffff
    1cdc:	0000000c 	syscall
    1ce0:	8fbf000c 	lw	ra,12(sp)
    1ce4:	8fb30008 	lw	s2,8(sp)
    1ce8:	8fb20004 	lw	s1,4(sp)
    1cec:	8fb10000 	lw	s0,0(sp)
    1cf0:	27bd0010 	addiu	sp,sp,16
    1cf4:	03e00008 	jr	ra
    1cf8:	324200ff 	andi	v1,s1,0xff
    1cfc:	24010001 	li	v0,1
    1d00:	10410008 	beq	v1,v0,1d24 <newlib_recursive_unlock+0x88>
    1d04:	8fbf000c 	lw	ra,12(sp)
    1d08:	2652ffff 	addiu	s1,s1,-1
    1d0c:	ae320000 	sw	s1,0(s0)
    1d10:	8fb30008 	lw	s2,8(sp)
    1d14:	8fb20004 	lw	s1,4(sp)
    1d18:	8fb10000 	lw	s0,0(sp)
    1d1c:	27bd0010 	addiu	sp,sp,16
    1d20:	03e00008 	jr	ra
    1d24:	00001021 	move	v1,zero
    1d28:	00001821 	move	a0,zero
    1d2c:	ae220000 	sw	v1,0(s0)
    1d30:	ae230004 	sw	a0,4(s0)
    1d34:	08000738 	j	1ce0 <newlib_recursive_unlock+0x44>

00001d38 <__malloc_lock>:
    1d38:	27838028 	addiu	a0,gp,-32728
    1d3c:	08000717 	j	1c5c <newlib_recursive_lock>

00001d40 <__malloc_unlock>:
    1d40:	27838028 	addiu	a0,gp,-32728
    1d44:	08000727 	j	1c9c <newlib_recursive_unlock>

00001d48 <open>:
    1d48:	24010004 	li	v0,4
    1d4c:	0000000c 	syscall
    1d50:	24020001 	li	v1,1
    1d54:	10c20001 	beq	a3,v1,1d5c <open+0x14>
    1d58:	03e00008 	jr	ra
    1d5c:	3c020000 	lui	v1,0x0
    1d60:	ac4151a4 	sw	v0,20900(v1)
    1d64:	2401ffff 	li	v0,-1
    1d68:	03e00008 	jr	ra

00001d6c <lseek>:
    1d6c:	24010008 	li	v0,8
    1d70:	0000000c 	syscall
    1d74:	24020001 	li	v1,1
    1d78:	10c20001 	beq	a3,v1,1d80 <lseek+0x14>
    1d7c:	03e00008 	jr	ra
    1d80:	3c020000 	lui	v1,0x0
    1d84:	ac4151a4 	sw	v0,20900(v1)
    1d88:	2401ffff 	li	v0,-1
    1d8c:	03e00008 	jr	ra

00001d90 <read>:
    1d90:	24010002 	li	v0,2
    1d94:	0000000c 	syscall
    1d98:	24020001 	li	v1,1
    1d9c:	10c20001 	beq	a3,v1,1da4 <read+0x14>
    1da0:	03e00008 	jr	ra
    1da4:	3c020000 	lui	v1,0x0
    1da8:	ac4151a4 	sw	v0,20900(v1)
    1dac:	2401ffff 	li	v0,-1
    1db0:	03e00008 	jr	ra

00001db4 <write>:
    1db4:	24010003 	li	v0,3
    1db8:	0000000c 	syscall
    1dbc:	24020001 	li	v1,1
    1dc0:	10c20001 	beq	a3,v1,1dc8 <write+0x14>
    1dc4:	03e00008 	jr	ra
    1dc8:	3c020000 	lui	v1,0x0
    1dcc:	ac4151a4 	sw	v0,20900(v1)
    1dd0:	2401ffff 	li	v0,-1
    1dd4:	03e00008 	jr	ra

00001dd8 <fstat>:
    1dd8:	24010009 	li	v0,9
    1ddc:	0000000c 	syscall
    1de0:	24020001 	li	v1,1
    1de4:	10c20002 	beq	a3,v1,1df0 <fstat+0x18>
    1de8:	00000821 	move	v0,zero
    1dec:	03e00008 	jr	ra
    1df0:	3c020000 	lui	v1,0x0
    1df4:	ac4151a4 	sw	v0,20900(v1)
    1df8:	2401ffff 	li	v0,-1
    1dfc:	03e00008 	jr	ra

00001e00 <stat>:
    1e00:	2401000a 	li	v0,10
    1e04:	0000000c 	syscall
    1e08:	24020001 	li	v1,1
    1e0c:	10c20002 	beq	a3,v1,1e18 <stat+0x18>
    1e10:	00000821 	move	v0,zero
    1e14:	03e00008 	jr	ra
    1e18:	3c020000 	lui	v1,0x0
    1e1c:	ac4151a4 	sw	v0,20900(v1)
    1e20:	2401ffff 	li	v0,-1
    1e24:	03e00008 	jr	ra

00001e28 <close>:
    1e28:	24010005 	li	v0,5
    1e2c:	0000000c 	syscall
    1e30:	24020001 	li	v1,1
    1e34:	10c20002 	beq	a3,v1,1e40 <close+0x18>
    1e38:	00000821 	move	v0,zero
    1e3c:	03e00008 	jr	ra
    1e40:	3c020000 	lui	v1,0x0
    1e44:	ac4151a4 	sw	v0,20900(v1)
    1e48:	2401ffff 	li	v0,-1
    1e4c:	03e00008 	jr	ra

00001e50 <link>:
    1e50:	24010006 	li	v0,6
    1e54:	0000000c 	syscall
    1e58:	24020001 	li	v1,1
    1e5c:	10c20002 	beq	a3,v1,1e68 <link+0x18>
    1e60:	00000821 	move	v0,zero
    1e64:	03e00008 	jr	ra
    1e68:	3c020000 	lui	v1,0x0
    1e6c:	ac4151a4 	sw	v0,20900(v1)
    1e70:	2401ffff 	li	v0,-1
    1e74:	03e00008 	jr	ra

00001e78 <unlink>:
    1e78:	24010007 	li	v0,7
    1e7c:	0000000c 	syscall
    1e80:	24020001 	li	v1,1
    1e84:	10c20002 	beq	a3,v1,1e90 <unlink+0x18>
    1e88:	00000821 	move	v0,zero
    1e8c:	03e00008 	jr	ra
    1e90:	3c020000 	lui	v1,0x0
    1e94:	ac4151a4 	sw	v0,20900(v1)
    1e98:	2401ffff 	li	v0,-1
    1e9c:	03e00008 	jr	ra

00001ea0 <execve>:
    1ea0:	2402000c 	li	v1,12
    1ea4:	3c010000 	lui	v0,0x0
    1ea8:	ac2251a4 	sw	v1,20900(v0)
    1eac:	2401ffff 	li	v0,-1
    1eb0:	03e00008 	jr	ra

00001eb4 <fork>:
    1eb4:	2402000b 	li	v1,11
    1eb8:	3c010000 	lui	v0,0x0
    1ebc:	ac2251a4 	sw	v1,20900(v0)
    1ec0:	2401ffff 	li	v0,-1
    1ec4:	03e00008 	jr	ra

00001ec8 <getpid>:
    1ec8:	24010001 	li	v0,1
    1ecc:	03e00008 	jr	ra

00001ed0 <kill>:
    1ed0:	24020016 	li	v1,22
    1ed4:	3c010000 	lui	v0,0x0
    1ed8:	ac2251a4 	sw	v1,20900(v0)
    1edc:	2401ffff 	li	v0,-1
    1ee0:	03e00008 	jr	ra

00001ee4 <wait>:
    1ee4:	2402000a 	li	v1,10
    1ee8:	3c010000 	lui	v0,0x0
    1eec:	ac2251a4 	sw	v1,20900(v0)
    1ef0:	2401ffff 	li	v0,-1
    1ef4:	03e00008 	jr	ra

00001ef8 <isatty>:
    1ef8:	24010001 	li	v0,1
    1efc:	03e00008 	jr	ra

00001f00 <sbrk>:
    1f00:	3c020000 	lui	v1,0x0
    1f04:	8c4151c8 	lw	v0,20936(v1)
    1f08:	10200003 	beqz	v0,1f18 <sbrk+0x18>
    1f0c:	00231821 	addu	a0,v0,a0
    1f10:	ac4351c8 	sw	a0,20936(v1)
    1f14:	03e00008 	jr	ra
    1f18:	3c010001 	lui	v0,0x1
    1f1c:	242161f8 	addiu	v0,v0,25080
    1f20:	00231821 	addu	a0,v0,a0
    1f24:	ac4151c8 	sw	v0,20936(v1)
    1f28:	ac4351c8 	sw	a0,20936(v1)
    1f2c:	03e00008 	jr	ra

00001f30 <_exit>:
    1f30:	24010001 	li	v0,1
    1f34:	0000000c 	syscall
    1f38:	080007ce 	j	1f38 <_exit+0x8>

00001f3c <times>:
    1f3c:	27bdfff8 	addiu	sp,sp,-8
    1f40:	afbf0004 	sw	ra,4(sp)
    1f44:	afb10000 	sw	s0,0(sp)
    1f48:	00608821 	move	s0,a0
    1f4c:	0c0007eb 	jal	1fac <get_cycles>
    1f50:	00401821 	move	a0,v1
    1f54:	00602021 	move	a1,a0
    1f58:	240503e8 	li	a2,1000
    1f5c:	00201821 	move	a0,v0
    1f60:	00003021 	move	a3,zero
    1f64:	0c0007fc 	jal	1ff0 <__divdi3>
    1f68:	8fbf0004 	lw	ra,4(sp)
    1f6c:	00401821 	move	a0,v1
    1f70:	ae230004 	sw	a0,4(s0)
    1f74:	00001021 	move	v1,zero
    1f78:	00001821 	move	a0,zero
    1f7c:	ae210000 	sw	v0,0(s0)
    1f80:	ae220018 	sw	v1,24(s0)
    1f84:	ae220008 	sw	v1,8(s0)
    1f88:	ae220010 	sw	v1,16(s0)
    1f8c:	ae23001c 	sw	a0,28(s0)
    1f90:	ae23000c 	sw	a0,12(s0)
    1f94:	ae230014 	sw	a0,20(s0)
    1f98:	00000821 	move	v0,zero
    1f9c:	00001021 	move	v1,zero
    1fa0:	8fb10000 	lw	s0,0(sp)
    1fa4:	27bd0008 	addiu	sp,sp,8
    1fa8:	03e00008 	jr	ra

00001fac <get_cycles>:
    1fac:	40044800 	mfc0	a1,c0_count
    1fb0:	4006c800 	mfc0	a3,c0_counthi
    1fb4:	40014800 	mfc0	v0,c0_count
    1fb8:	4005c800 	mfc0	a2,c0_counthi
    1fbc:	000117c3 	sra	v1,v0,0x1f
    1fc0:	00041fc3 	sra	a0,a1,0x1f
    1fc4:	00c31825 	or	a0,a3,a0
    1fc8:	00a21025 	or	v1,a2,v1
    1fcc:	0062282a 	slt	a2,a0,v1
    1fd0:	14a00004 	bnez	a2,1fe4 <get_cycles+0x38>
    1fd4:	10430001 	beq	v1,a0,1fdc <get_cycles+0x30>
    1fd8:	03e00008 	jr	ra
    1fdc:	0081282b 	sltu	a2,a1,v0
    1fe0:	10a0fffd 	beqz	a2,1fd8 <get_cycles+0x2c>
    1fe4:	00800821 	move	v0,a1
    1fe8:	00601021 	move	v1,a0
    1fec:	03e00008 	jr	ra

00001ff0 <__divdi3>:
    1ff0:	00c01021 	move	v1,a3
    1ff4:	0480009f 	bltz	a1,2274 <__divdi3+0x284>
    1ff8:	00003821 	move	a4,zero
    1ffc:	04400097 	bltz	v1,225c <__divdi3+0x26c>
    2000:	00801021 	move	v1,a1
    2004:	14c00041 	bnez	a3,210c <__divdi3+0x11c>
    2008:	0085082b 	sltu	v0,a1,a2
    200c:	10200044 	beqz	v0,2120 <__divdi3+0x130>
    2010:	3c010001 	lui	v0,0x1
    2014:	00a1082b 	sltu	v0,a2,v0
    2018:	142000a1 	bnez	v0,22a0 <__divdi3+0x2b0>
    201c:	3c010100 	lui	v0,0x100
    2020:	00a1082b 	sltu	v0,a2,v0
    2024:	14200121 	bnez	v0,24ac <__divdi3+0x4bc>
    2028:	24080018 	li	a5,24
    202c:	24060018 	li	a3,24
    2030:	3c010000 	lui	v0,0x0
    2034:	01054006 	srlv	a5,a2,a5
    2038:	242133cc 	addiu	v0,v0,13260
    203c:	01010821 	addu	v0,a5,v0
    2040:	90210000 	lbu	v0,0(v0)
    2044:	00263021 	addu	a3,v0,a3
    2048:	24010020 	li	v0,32
    204c:	00260823 	subu	v0,v0,a3
    2050:	10200005 	beqz	v0,2068 <__divdi3+0x78>
    2054:	00c33006 	srlv	a3,a0,a3
    2058:	00242004 	sllv	a1,a1,v0
    205c:	00861025 	or	v1,a1,a3
    2060:	00231804 	sllv	a0,a0,v0
    2064:	00252804 	sllv	a2,a2,v0
    2068:	00053402 	srl	a3,a2,0x10
    206c:	9c460807 	divu	v0,v1,a3
    2070:	30a9ffff 	andi	a6,a2,0xffff
    2074:	00035402 	srl	a7,a0,0x10
    2078:	9c461008 	remu	v1,v1,a3
    207c:	70294002 	mul	a5,v0,a6
    2080:	00021400 	sll	v1,v1,0x10
    2084:	004a1025 	or	v1,v1,a7
    2088:	0048202b 	sltu	a1,v1,a5
    208c:	10800006 	beqz	a1,20a8 <__divdi3+0xb8>
    2090:	00451021 	addu	v1,v1,a2
    2094:	0045202b 	sltu	a1,v1,a2
    2098:	2421ffff 	addiu	v0,v0,-1
    209c:	14800002 	bnez	a1,20a8 <__divdi3+0xb8>
    20a0:	0048202b 	sltu	a1,v1,a5
    20a4:	14800115 	bnez	a1,24fc <__divdi3+0x50c>
    20a8:	00481023 	subu	v1,v1,a5
    20ac:	9c462007 	divu	a1,v1,a3
    20b0:	3063ffff 	andi	a0,a0,0xffff
    20b4:	9c461008 	remu	v1,v1,a3
    20b8:	70894802 	mul	a6,a1,a6
    20bc:	00021400 	sll	v1,v1,0x10
    20c0:	00431825 	or	a0,v1,a0
    20c4:	0069102b 	sltu	v1,a0,a6
    20c8:	10400007 	beqz	v1,20e8 <__divdi3+0xf8>
    20cc:	00651821 	addu	a0,a0,a2
    20d0:	0065282b 	sltu	a2,a0,a2
    20d4:	2484ffff 	addiu	a1,a1,-1
    20d8:	14a00003 	bnez	a2,20e8 <__divdi3+0xf8>
    20dc:	0069182b 	sltu	a0,a0,a6
    20e0:	10600001 	beqz	a0,20e8 <__divdi3+0xf8>
    20e4:	2484ffff 	addiu	a1,a1,-1
    20e8:	00010c00 	sll	v0,v0,0x10
    20ec:	00810825 	or	v0,a1,v0
    20f0:	00001021 	move	v1,zero
    20f4:	10e00004 	beqz	a4,2108 <__divdi3+0x118>
    20f8:	00010823 	negu	v0,v0
    20fc:	00021023 	negu	v1,v1
    2100:	0001182b 	sltu	a0,zero,v0
    2104:	00431023 	subu	v1,v1,a0
    2108:	03e00008 	jr	ra
    210c:	0086082b 	sltu	v0,a1,a3
    2110:	1020003a 	beqz	v0,21fc <__divdi3+0x20c>
    2114:	00001021 	move	v1,zero
    2118:	00000821 	move	v0,zero
    211c:	0800083d 	j	20f4 <__divdi3+0x104>
    2120:	10a00064 	beqz	a2,22b4 <__divdi3+0x2c4>
    2124:	3c010001 	lui	v0,0x1
    2128:	00a1082b 	sltu	v0,a2,v0
    212c:	142000f6 	bnez	v0,2508 <__divdi3+0x518>
    2130:	3c010100 	lui	v0,0x100
    2134:	00a1082b 	sltu	v0,a2,v0
    2138:	142000d9 	bnez	v0,24a0 <__divdi3+0x4b0>
    213c:	24020018 	li	v1,24
    2140:	24080018 	li	a5,24
    2144:	3c010000 	lui	v0,0x0
    2148:	00451006 	srlv	v1,a2,v1
    214c:	242133cc 	addiu	v0,v0,13260
    2150:	00410821 	addu	v0,v1,v0
    2154:	90210000 	lbu	v0,0(v0)
    2158:	00284021 	addu	a5,v0,a5
    215c:	24010020 	li	v0,32
    2160:	00280823 	subu	v0,v0,a5
    2164:	14200098 	bnez	v0,23c8 <__divdi3+0x3d8>
    2168:	00854023 	subu	a5,a1,a2
    216c:	00053402 	srl	a3,a2,0x10
    2170:	30a9ffff 	andi	a6,a2,0xffff
    2174:	24020001 	li	v1,1
    2178:	9d060807 	divu	v0,a5,a3
    217c:	00035402 	srl	a7,a0,0x10
    2180:	9d062008 	remu	a1,a5,a3
    2184:	70294002 	mul	a5,v0,a6
    2188:	00042400 	sll	a1,a1,0x10
    218c:	008a2025 	or	a1,a1,a7
    2190:	0088502b 	sltu	a7,a1,a5
    2194:	11400006 	beqz	a7,21b0 <__divdi3+0x1c0>
    2198:	00852021 	addu	a1,a1,a2
    219c:	0085502b 	sltu	a7,a1,a2
    21a0:	2421ffff 	addiu	v0,v0,-1
    21a4:	15400002 	bnez	a7,21b0 <__divdi3+0x1c0>
    21a8:	0088502b 	sltu	a7,a1,a5
    21ac:	154000d0 	bnez	a7,24f0 <__divdi3+0x500>
    21b0:	00882023 	subu	a1,a1,a5
    21b4:	9c864007 	divu	a5,a1,a3
    21b8:	3063ffff 	andi	a0,a0,0xffff
    21bc:	9c862008 	remu	a1,a1,a3
    21c0:	71094802 	mul	a6,a5,a6
    21c4:	00042400 	sll	a1,a1,0x10
    21c8:	00831825 	or	a0,a1,a0
    21cc:	0069202b 	sltu	a1,a0,a6
    21d0:	10800007 	beqz	a1,21f0 <__divdi3+0x200>
    21d4:	00651821 	addu	a0,a0,a2
    21d8:	0065282b 	sltu	a2,a0,a2
    21dc:	2508ffff 	addiu	a5,a5,-1
    21e0:	14a00003 	bnez	a2,21f0 <__divdi3+0x200>
    21e4:	0069182b 	sltu	a0,a0,a6
    21e8:	10600001 	beqz	a0,21f0 <__divdi3+0x200>
    21ec:	2508ffff 	addiu	a5,a5,-1
    21f0:	00010c00 	sll	v0,v0,0x10
    21f4:	01010825 	or	v0,a5,v0
    21f8:	0800083d 	j	20f4 <__divdi3+0x104>
    21fc:	3c010001 	lui	v0,0x1
    2200:	00c1082b 	sltu	v0,a3,v0
    2204:	14200021 	bnez	v0,228c <__divdi3+0x29c>
    2208:	3c010100 	lui	v0,0x100
    220c:	00c1082b 	sltu	v0,a3,v0
    2210:	142000a9 	bnez	v0,24b8 <__divdi3+0x4c8>
    2214:	24020018 	li	v1,24
    2218:	24080018 	li	a5,24
    221c:	3c010000 	lui	v0,0x0
    2220:	00461006 	srlv	v1,a3,v1
    2224:	242133cc 	addiu	v0,v0,13260
    2228:	00410821 	addu	v0,v1,v0
    222c:	90210000 	lbu	v0,0(v0)
    2230:	24020020 	li	v1,32
    2234:	00284021 	addu	a5,v0,a5
    2238:	00481023 	subu	v1,v1,a5
    223c:	14400022 	bnez	v1,22c8 <__divdi3+0x2d8>
    2240:	00c4202b 	sltu	a1,a3,a1
    2244:	14800002 	bnez	a1,2250 <__divdi3+0x260>
    2248:	0065182b 	sltu	a0,a0,a2
    224c:	1460ffb1 	bnez	a0,2114 <__divdi3+0x124>
    2250:	00001021 	move	v1,zero
    2254:	24010001 	li	v0,1
    2258:	0800083d 	j	20f4 <__divdi3+0x104>
    225c:	00052823 	negu	a2,a2
    2260:	00063023 	negu	a3,a3
    2264:	0005082b 	sltu	v0,zero,a2
    2268:	00c13023 	subu	a3,a3,v0
    226c:	00073827 	nor	a4,zero,a4
    2270:	08000800 	j	2000 <__divdi3+0x10>
    2274:	00031823 	negu	a0,a0
    2278:	00042023 	negu	a1,a1
    227c:	0003082b 	sltu	v0,zero,a0
    2280:	00812023 	subu	a1,a1,v0
    2284:	2407ffff 	li	a4,-1
    2288:	080007ff 	j	1ffc <__divdi3+0xc>
    228c:	2cc10100 	sltiu	v0,a3,256
    2290:	1420008f 	bnez	v0,24d0 <__divdi3+0x4e0>
    2294:	24020008 	li	v1,8
    2298:	24080008 	li	a5,8
    229c:	08000887 	j	221c <__divdi3+0x22c>
    22a0:	2ca10100 	sltiu	v0,a2,256
    22a4:	14200087 	bnez	v0,24c4 <__divdi3+0x4d4>
    22a8:	24080008 	li	a5,8
    22ac:	24060008 	li	a3,8
    22b0:	0800080c 	j	2030 <__divdi3+0x40>
    22b4:	24050001 	li	a2,1
    22b8:	9ca62807 	divu	a2,a2,a3
    22bc:	00001021 	move	v1,zero
    22c0:	00004021 	move	a5,zero
    22c4:	08000851 	j	2144 <__divdi3+0x154>
    22c8:	01050806 	srlv	v0,a2,a5
    22cc:	00463004 	sllv	a3,a3,v1
    22d0:	00c13025 	or	a3,a3,v0
    22d4:	01045806 	srlv	t4,a1,a5
    22d8:	00064c02 	srl	a6,a3,0x10
    22dc:	9d690807 	divu	v0,t4,a6
    22e0:	30ccffff 	andi	t5,a3,0xffff
    22e4:	01034006 	srlv	a5,a0,a5
    22e8:	00442004 	sllv	a1,a1,v1
    22ec:	00882025 	or	a1,a1,a5
    22f0:	00044402 	srl	a5,a1,0x10
    22f4:	00452804 	sllv	a2,a2,v1
    22f8:	9d695008 	remu	a7,t4,a6
    22fc:	702c5802 	mul	t4,v0,t5
    2300:	000a5400 	sll	a7,a7,0x10
    2304:	01485025 	or	a7,a7,a5
    2308:	014b402b 	sltu	a5,a7,t4
    230c:	11000008 	beqz	a5,2330 <__divdi3+0x340>
    2310:	01465021 	addu	a7,a7,a3
    2314:	0146402b 	sltu	a5,a7,a3
    2318:	2421ffff 	addiu	v0,v0,-1
    231c:	15000004 	bnez	a5,2330 <__divdi3+0x340>
    2320:	014b402b 	sltu	a5,a7,t4
    2324:	11000002 	beqz	a5,2330 <__divdi3+0x340>
    2328:	2421ffff 	addiu	v0,v0,-1
    232c:	01465021 	addu	a7,a7,a3
    2330:	014b5023 	subu	a7,a7,t4
    2334:	9d495807 	divu	t4,a7,a6
    2338:	3084ffff 	andi	a1,a1,0xffff
    233c:	9d494808 	remu	a6,a7,a6
    2340:	716c6002 	mul	t5,t4,t5
    2344:	00094c00 	sll	a6,a6,0x10
    2348:	01244825 	or	a6,a6,a1
    234c:	012c202b 	sltu	a1,a6,t5
    2350:	10800004 	beqz	a1,2364 <__divdi3+0x374>
    2354:	01264821 	addu	a6,a6,a3
    2358:	0126202b 	sltu	a1,a6,a3
    235c:	256bffff 	addiu	t4,t4,-1
    2360:	1080005e 	beqz	a1,24dc <__divdi3+0x4ec>
    2364:	00010c00 	sll	v0,v0,0x10
    2368:	01610825 	or	v0,t4,v0
    236c:	00054402 	srl	a5,a2,0x10
    2370:	302bffff 	andi	t4,v0,0xffff
    2374:	00015402 	srl	a7,v0,0x10
    2378:	71682002 	mul	a1,t4,a5
    237c:	30a5ffff 	andi	a2,a2,0xffff
    2380:	012c4823 	subu	a6,a6,t5
    2384:	71453002 	mul	a3,a7,a2
    2388:	71652802 	mul	a2,t4,a2
    238c:	00c42021 	addu	a1,a3,a1
    2390:	00055c02 	srl	t4,a2,0x10
    2394:	71484002 	mul	a5,a7,a5
    2398:	008b2021 	addu	a1,a1,t4
    239c:	0086302b 	sltu	a3,a1,a3
    23a0:	10c00002 	beqz	a3,23ac <__divdi3+0x3bc>
    23a4:	3c060001 	lui	a3,0x1
    23a8:	01064021 	addu	a5,a5,a3
    23ac:	00045402 	srl	a7,a1,0x10
    23b0:	010a4021 	addu	a5,a5,a7
    23b4:	0128302b 	sltu	a3,a6,a5
    23b8:	14c00036 	bnez	a3,2494 <__divdi3+0x4a4>
    23bc:	1128002f 	beq	a6,a5,247c <__divdi3+0x48c>
    23c0:	00001021 	move	v1,zero
    23c4:	0800083d 	j	20f4 <__divdi3+0x104>
    23c8:	00252804 	sllv	a2,a2,v0
    23cc:	01045806 	srlv	t4,a1,a5
    23d0:	00053402 	srl	a3,a2,0x10
    23d4:	9d661007 	divu	v1,t4,a3
    23d8:	30a9ffff 	andi	a6,a2,0xffff
    23dc:	00242004 	sllv	a1,a1,v0
    23e0:	01034006 	srlv	a5,a0,a5
    23e4:	00884025 	or	a5,a1,a5
    23e8:	00082402 	srl	a1,a5,0x10
    23ec:	9d665008 	remu	a7,t4,a3
    23f0:	70495802 	mul	t4,v1,a6
    23f4:	000a5400 	sll	a7,a7,0x10
    23f8:	01445025 	or	a7,a7,a1
    23fc:	014b202b 	sltu	a1,a7,t4
    2400:	10800008 	beqz	a1,2424 <__divdi3+0x434>
    2404:	01455021 	addu	a7,a7,a2
    2408:	0145202b 	sltu	a1,a7,a2
    240c:	2442ffff 	addiu	v1,v1,-1
    2410:	14800004 	bnez	a1,2424 <__divdi3+0x434>
    2414:	014b202b 	sltu	a1,a7,t4
    2418:	10800002 	beqz	a1,2424 <__divdi3+0x434>
    241c:	2442ffff 	addiu	v1,v1,-1
    2420:	01455021 	addu	a7,a7,a2
    2424:	014b5023 	subu	a7,a7,t4
    2428:	9d465807 	divu	t4,a7,a3
    242c:	3108ffff 	andi	a5,a5,0xffff
    2430:	9d465008 	remu	a7,a7,a3
    2434:	71692002 	mul	a1,t4,a6
    2438:	000a5400 	sll	a7,a7,0x10
    243c:	01484025 	or	a5,a7,a5
    2440:	0104502b 	sltu	a7,a5,a1
    2444:	11400008 	beqz	a7,2468 <__divdi3+0x478>
    2448:	01054021 	addu	a5,a5,a2
    244c:	0105502b 	sltu	a7,a5,a2
    2450:	256bffff 	addiu	t4,t4,-1
    2454:	15400004 	bnez	a7,2468 <__divdi3+0x478>
    2458:	0104502b 	sltu	a7,a5,a1
    245c:	11400002 	beqz	a7,2468 <__divdi3+0x478>
    2460:	256bffff 	addiu	t4,t4,-1
    2464:	01054021 	addu	a5,a5,a2
    2468:	00021400 	sll	v1,v1,0x10
    246c:	00231804 	sllv	a0,a0,v0
    2470:	01044023 	subu	a5,a5,a1
    2474:	01621025 	or	v1,t4,v1
    2478:	0800085e 	j	2178 <__divdi3+0x188>
    247c:	00042400 	sll	a1,a1,0x10
    2480:	30a5ffff 	andi	a2,a2,0xffff
    2484:	00431004 	sllv	v1,a0,v1
    2488:	00852021 	addu	a1,a1,a2
    248c:	0044102b 	sltu	v1,v1,a1
    2490:	1040ff18 	beqz	v1,20f4 <__divdi3+0x104>
    2494:	2421ffff 	addiu	v0,v0,-1
    2498:	00001021 	move	v1,zero
    249c:	0800083d 	j	20f4 <__divdi3+0x104>
    24a0:	24020010 	li	v1,16
    24a4:	24080010 	li	a5,16
    24a8:	08000851 	j	2144 <__divdi3+0x154>
    24ac:	24080010 	li	a5,16
    24b0:	24060010 	li	a3,16
    24b4:	0800080c 	j	2030 <__divdi3+0x40>
    24b8:	24020010 	li	v1,16
    24bc:	24080010 	li	a5,16
    24c0:	08000887 	j	221c <__divdi3+0x22c>
    24c4:	00004021 	move	a5,zero
    24c8:	00003021 	move	a3,zero
    24cc:	0800080c 	j	2030 <__divdi3+0x40>
    24d0:	00001021 	move	v1,zero
    24d4:	00004021 	move	a5,zero
    24d8:	08000887 	j	221c <__divdi3+0x22c>
    24dc:	012c202b 	sltu	a1,a6,t5
    24e0:	1080ffa0 	beqz	a1,2364 <__divdi3+0x374>
    24e4:	01264821 	addu	a6,a6,a3
    24e8:	256bffff 	addiu	t4,t4,-1
    24ec:	080008d9 	j	2364 <__divdi3+0x374>
    24f0:	2421ffff 	addiu	v0,v0,-1
    24f4:	00852021 	addu	a1,a1,a2
    24f8:	0800086c 	j	21b0 <__divdi3+0x1c0>
    24fc:	2421ffff 	addiu	v0,v0,-1
    2500:	00451021 	addu	v1,v1,a2
    2504:	0800082a 	j	20a8 <__divdi3+0xb8>
    2508:	2ca10100 	sltiu	v0,a2,256
    250c:	1420ff6b 	bnez	v0,22bc <__divdi3+0x2cc>
    2510:	24020008 	li	v1,8
    2514:	24080008 	li	a5,8
    2518:	08000851 	j	2144 <__divdi3+0x154>

0000251c <_wrapup_reent>:
    251c:	27bdffe8 	addiu	sp,sp,-24
    2520:	afb40010 	sw	s3,16(sp)
    2524:	afbf0014 	sw	ra,20(sp)
    2528:	afb3000c 	sw	s2,12(sp)
    252c:	afb20008 	sw	s1,8(sp)
    2530:	afb10004 	sw	s0,4(sp)
    2534:	0060a021 	move	s3,a0
    2538:	10600020 	beqz	a0,25bc <_wrapup_reent+0xa0>
    253c:	8e930148 	lw	s2,328(s3)
    2540:	1260000d 	beqz	s2,2578 <_wrapup_reent+0x5c>
    2544:	8e620004 	lw	v1,4(s2)
    2548:	2451ffff 	addiu	s0,v1,-1
    254c:	06200008 	bltz	s0,2570 <_wrapup_reent+0x54>
    2550:	24520001 	addiu	s1,v1,1
    2554:	00129080 	sll	s1,s1,0x2
    2558:	02729021 	addu	s1,s2,s1
    255c:	8e420000 	lw	v1,0(s1)
    2560:	2631ffff 	addiu	s0,s0,-1
    2564:	2652fffc 	addiu	s1,s1,-4
    2568:	0040f809 	jalr	v1
    256c:	0621fffb 	bgez	s0,255c <_wrapup_reent+0x40>
    2570:	8e730000 	lw	s2,0(s2)
    2574:	1660fff3 	bnez	s2,2544 <_wrapup_reent+0x28>
    2578:	8e90003c 	lw	t9,60(s3)
    257c:	12000008 	beqz	t9,25a0 <_wrapup_reent+0x84>
    2580:	02801821 	move	a0,s3
    2584:	8fbf0014 	lw	ra,20(sp)
    2588:	8fb40010 	lw	s3,16(sp)
    258c:	8fb3000c 	lw	s2,12(sp)
    2590:	8fb20008 	lw	s1,8(sp)
    2594:	8fb10004 	lw	s0,4(sp)
    2598:	27bd0018 	addiu	sp,sp,24
    259c:	02000008 	jr	t9
    25a0:	8fbf0014 	lw	ra,20(sp)
    25a4:	8fb40010 	lw	s3,16(sp)
    25a8:	8fb3000c 	lw	s2,12(sp)
    25ac:	8fb20008 	lw	s1,8(sp)
    25b0:	8fb10004 	lw	s0,4(sp)
    25b4:	27bd0018 	addiu	sp,sp,24
    25b8:	03e00008 	jr	ra
    25bc:	0c000ac4 	jal	2b10 <__getreent>
    25c0:	0020a021 	move	s3,v0
    25c4:	0800094f 	j	253c <_wrapup_reent+0x20>

000025c8 <cleanup_glue>:
    25c8:	27bdfff0 	addiu	sp,sp,-16
    25cc:	afb10004 	sw	s0,4(sp)
    25d0:	00808821 	move	s0,a1
    25d4:	8c840000 	lw	a1,0(a1)
    25d8:	afb20008 	sw	s1,8(sp)
    25dc:	afbf000c 	sw	ra,12(sp)
    25e0:	00609021 	move	s1,a0
    25e4:	10800001 	beqz	a1,25ec <cleanup_glue+0x24>
    25e8:	0c000972 	jal	25c8 <cleanup_glue>
    25ec:	02401821 	move	a0,s1
    25f0:	02202021 	move	a1,s0
    25f4:	8fbf000c 	lw	ra,12(sp)
    25f8:	8fb20008 	lw	s1,8(sp)
    25fc:	8fb10004 	lw	s0,4(sp)
    2600:	27bd0010 	addiu	sp,sp,16
    2604:	08000a10 	j	2840 <_free_r>

00002608 <_reclaim_reent>:
    2608:	8f81800c 	lw	v0,-32756(gp)
    260c:	27bdffe8 	addiu	sp,sp,-24
    2610:	afb20008 	sw	s1,8(sp)
    2614:	afbf0014 	sw	ra,20(sp)
    2618:	afb40010 	sw	s3,16(sp)
    261c:	afb3000c 	sw	s2,12(sp)
    2620:	afb10004 	sw	s0,4(sp)
    2624:	00609021 	move	s1,a0
    2628:	10610026 	beq	a0,v0,26c4 <_reclaim_reent+0xbc>
    262c:	8c61004c 	lw	v0,76(a0)
    2630:	10200010 	beqz	v0,2674 <_reclaim_reent+0x6c>
    2634:	00009821 	move	s2,zero
    2638:	2414003c 	li	s3,60
    263c:	00331021 	addu	v1,v0,s2
    2640:	8c440000 	lw	a1,0(v1)
    2644:	10800006 	beqz	a1,2660 <_reclaim_reent+0x58>
    2648:	8c910000 	lw	s0,0(a1)
    264c:	02401821 	move	a0,s1
    2650:	0c000a10 	jal	2840 <_free_r>
    2654:	02202021 	move	a1,s0
    2658:	1620fffb 	bnez	s0,2648 <_reclaim_reent+0x40>
    265c:	8e41004c 	lw	v0,76(s1)
    2660:	26730004 	addiu	s2,s2,4
    2664:	1674fff5 	bne	s2,s3,263c <_reclaim_reent+0x34>
    2668:	00202021 	move	a1,v0
    266c:	02401821 	move	a0,s1
    2670:	0c000a10 	jal	2840 <_free_r>
    2674:	8e440040 	lw	a1,64(s1)
    2678:	10800002 	beqz	a1,2684 <_reclaim_reent+0x7c>
    267c:	02401821 	move	a0,s1
    2680:	0c000a10 	jal	2840 <_free_r>
    2684:	8e440148 	lw	a1,328(s1)
    2688:	10800008 	beqz	a1,26ac <_reclaim_reent+0xa4>
    268c:	2653014c 	addiu	s2,s1,332
    2690:	14930002 	bne	a1,s2,269c <_reclaim_reent+0x94>
    2694:	080009ab 	j	26ac <_reclaim_reent+0xa4>
    2698:	02202021 	move	a1,s0
    269c:	8c910000 	lw	s0,0(a1)
    26a0:	02401821 	move	a0,s1
    26a4:	0c000a10 	jal	2840 <_free_r>
    26a8:	1671fffb 	bne	s2,s0,2698 <_reclaim_reent+0x90>
    26ac:	8e440054 	lw	a1,84(s1)
    26b0:	10800002 	beqz	a1,26bc <_reclaim_reent+0xb4>
    26b4:	02401821 	move	a0,s1
    26b8:	0c000a10 	jal	2840 <_free_r>
    26bc:	8e410038 	lw	v0,56(s1)
    26c0:	14200007 	bnez	v0,26e0 <_reclaim_reent+0xd8>
    26c4:	8fbf0014 	lw	ra,20(sp)
    26c8:	8fb40010 	lw	s3,16(sp)
    26cc:	8fb3000c 	lw	s2,12(sp)
    26d0:	8fb20008 	lw	s1,8(sp)
    26d4:	8fb10004 	lw	s0,4(sp)
    26d8:	27bd0018 	addiu	sp,sp,24
    26dc:	03e00008 	jr	ra
    26e0:	8e41003c 	lw	v0,60(s1)
    26e4:	02401821 	move	a0,s1
    26e8:	0020f809 	jalr	v0
    26ec:	8e4402e0 	lw	a1,736(s1)
    26f0:	1080fff4 	beqz	a1,26c4 <_reclaim_reent+0xbc>
    26f4:	02401821 	move	a0,s1
    26f8:	8fbf0014 	lw	ra,20(sp)
    26fc:	8fb40010 	lw	s3,16(sp)
    2700:	8fb3000c 	lw	s2,12(sp)
    2704:	8fb20008 	lw	s1,8(sp)
    2708:	8fb10004 	lw	s0,4(sp)
    270c:	27bd0018 	addiu	sp,sp,24
    2710:	08000972 	j	25c8 <cleanup_glue>

00002714 <_malloc_trim_r>:
    2714:	27bdffe8 	addiu	sp,sp,-24
    2718:	afb20008 	sw	s1,8(sp)
    271c:	3c120000 	lui	s1,0x0
    2720:	26524d60 	addiu	s1,s1,19808
    2724:	afb40010 	sw	s3,16(sp)
    2728:	afb3000c 	sw	s2,12(sp)
    272c:	afb10004 	sw	s0,4(sp)
    2730:	0080a021 	move	s3,a1
    2734:	afbf0014 	sw	ra,20(sp)
    2738:	00608821 	move	s0,a0
    273c:	0c00074e 	jal	1d38 <__malloc_lock>
    2740:	8e410008 	lw	v0,8(s1)
    2744:	8c330004 	lw	s2,4(v0)
    2748:	2401fffc 	li	v0,-4
    274c:	02619824 	and	s2,s2,v0
    2750:	26610fef 	addiu	v0,s2,4079
    2754:	0034a023 	subu	s3,v0,s3
    2758:	0014a302 	srl	s3,s3,0xc
    275c:	2694ffff 	addiu	s3,s3,-1
    2760:	0014a300 	sll	s3,s3,0xc
    2764:	2a811000 	slti	v0,s3,4096
    2768:	14200006 	bnez	v0,2784 <_malloc_trim_r+0x70>
    276c:	02201821 	move	a0,s0
    2770:	00002021 	move	a1,zero
    2774:	0c000cd2 	jal	3348 <_sbrk_r>
    2778:	8e420008 	lw	v1,8(s1)
    277c:	00531021 	addu	v1,v1,s2
    2780:	1022000a 	beq	v0,v1,27ac <_malloc_trim_r+0x98>
    2784:	02201821 	move	a0,s0
    2788:	0c000750 	jal	1d40 <__malloc_unlock>
    278c:	8fbf0014 	lw	ra,20(sp)
    2790:	00000821 	move	v0,zero
    2794:	8fb40010 	lw	s3,16(sp)
    2798:	8fb3000c 	lw	s2,12(sp)
    279c:	8fb20008 	lw	s1,8(sp)
    27a0:	8fb10004 	lw	s0,4(sp)
    27a4:	27bd0018 	addiu	sp,sp,24
    27a8:	03e00008 	jr	ra
    27ac:	02201821 	move	a0,s0
    27b0:	00142023 	negu	a1,s3
    27b4:	0c000cd2 	jal	3348 <_sbrk_r>
    27b8:	2402ffff 	li	v1,-1
    27bc:	10220012 	beq	v0,v1,2808 <_malloc_trim_r+0xf4>
    27c0:	8e410008 	lw	v0,8(s1)
    27c4:	02749823 	subu	s2,s2,s3
    27c8:	36730001 	ori	s2,s2,0x1
    27cc:	ac330004 	sw	s2,4(v0)
    27d0:	3c010000 	lui	v0,0x0
    27d4:	8c2251cc 	lw	v1,20940(v0)
    27d8:	02201821 	move	a0,s0
    27dc:	0054a023 	subu	s3,v1,s3
    27e0:	ac3451cc 	sw	s3,20940(v0)
    27e4:	0c000750 	jal	1d40 <__malloc_unlock>
    27e8:	8fbf0014 	lw	ra,20(sp)
    27ec:	24010001 	li	v0,1
    27f0:	8fb40010 	lw	s3,16(sp)
    27f4:	8fb3000c 	lw	s2,12(sp)
    27f8:	8fb20008 	lw	s1,8(sp)
    27fc:	8fb10004 	lw	s0,4(sp)
    2800:	27bd0018 	addiu	sp,sp,24
    2804:	03e00008 	jr	ra
    2808:	02201821 	move	a0,s0
    280c:	00002021 	move	a1,zero
    2810:	0c000cd2 	jal	3348 <_sbrk_r>
    2814:	8e420008 	lw	v1,8(s1)
    2818:	00221823 	subu	a0,v0,v1
    281c:	28640010 	slti	a1,a0,16
    2820:	1480ffd8 	bnez	a1,2784 <_malloc_trim_r+0x70>
    2824:	8f848018 	lw	a1,-32744(gp)
    2828:	34630001 	ori	a0,a0,0x1
    282c:	00240823 	subu	v0,v0,a1
    2830:	3c040000 	lui	a1,0x0
    2834:	ac8151cc 	sw	v0,20940(a1)
    2838:	ac430004 	sw	a0,4(v1)
    283c:	080009e1 	j	2784 <_malloc_trim_r+0x70>

00002840 <_free_r>:
    2840:	27bdfff0 	addiu	sp,sp,-16
    2844:	afb20008 	sw	s1,8(sp)
    2848:	afb10004 	sw	s0,4(sp)
    284c:	afbf000c 	sw	ra,12(sp)
    2850:	00809021 	move	s1,a1
    2854:	00608821 	move	s0,a0
    2858:	1080004f 	beqz	a1,2998 <_free_r+0x158>
    285c:	0c00074e 	jal	1d38 <__malloc_lock>
    2860:	2642fff8 	addiu	v1,s1,-8
    2864:	8c460004 	lw	a3,4(v1)
    2868:	2401fffe 	li	v0,-2
    286c:	3c050000 	lui	a2,0x0
    2870:	00c10824 	and	v0,a3,v0
    2874:	24a54d60 	addiu	a2,a2,19808
    2878:	00411821 	addu	a0,v1,v0
    287c:	8c680004 	lw	a5,4(a0)
    2880:	8ca70008 	lw	a4,8(a2)
    2884:	2404fffc 	li	a1,-4
    2888:	01042024 	and	a1,a5,a1
    288c:	10e30068 	beq	a4,a0,2a30 <_free_r+0x1f0>
    2890:	30c60001 	andi	a3,a3,0x1
    2894:	ac640004 	sw	a1,4(a0)
    2898:	10c00033 	beqz	a3,2968 <_free_r+0x128>
    289c:	00003021 	move	a3,zero
    28a0:	00643821 	addu	a4,a0,a1
    28a4:	8ce70004 	lw	a4,4(a4)
    28a8:	30e70001 	andi	a4,a4,0x1
    28ac:	14e00006 	bnez	a4,28c8 <_free_r+0x88>
    28b0:	00240821 	addu	v0,v0,a1
    28b4:	10c00051 	beqz	a3,29fc <_free_r+0x1bc>
    28b8:	8c640008 	lw	a1,8(a0)
    28bc:	8c63000c 	lw	a0,12(a0)
    28c0:	ac640008 	sw	a1,8(a0)
    28c4:	ac83000c 	sw	a0,12(a1)
    28c8:	34240001 	ori	a1,v0,0x1
    28cc:	00411821 	addu	a0,v1,v0
    28d0:	ac440004 	sw	a1,4(v1)
    28d4:	ac610000 	sw	v0,0(a0)
    28d8:	14c0001d 	bnez	a3,2950 <_free_r+0x110>
    28dc:	2c230200 	sltiu	a0,v0,512
    28e0:	14600032 	bnez	a0,29ac <_free_r+0x16c>
    28e4:	00011a42 	srl	a0,v0,0x9
    28e8:	2c640005 	sltiu	a1,a0,5
    28ec:	10800066 	beqz	a1,2a88 <_free_r+0x248>
    28f0:	00012182 	srl	a1,v0,0x6
    28f4:	24840038 	addiu	a1,a1,56
    28f8:	000430c0 	sll	a3,a1,0x3
    28fc:	00a63021 	addu	a3,a2,a3
    2900:	8cc30008 	lw	a0,8(a3)
    2904:	10660065 	beq	a0,a3,2a9c <_free_r+0x25c>
    2908:	8c650004 	lw	a2,4(a0)
    290c:	2404fffc 	li	a1,-4
    2910:	00a42024 	and	a1,a2,a1
    2914:	0024202b 	sltu	a1,v0,a1
    2918:	10800008 	beqz	a1,293c <_free_r+0xfc>
    291c:	2405fffc 	li	a2,-4
    2920:	08000a4d 	j	2934 <_free_r+0xf4>
    2924:	8c640004 	lw	a1,4(a0)
    2928:	00852024 	and	a1,a1,a2
    292c:	0024202b 	sltu	a1,v0,a1
    2930:	10800002 	beqz	a1,293c <_free_r+0xfc>
    2934:	8c630008 	lw	a0,8(a0)
    2938:	14c3fffa 	bne	a3,a0,2924 <_free_r+0xe4>
    293c:	8c61000c 	lw	v0,12(a0)
    2940:	ac41000c 	sw	v0,12(v1)
    2944:	ac430008 	sw	a0,8(v1)
    2948:	ac62000c 	sw	v1,12(a0)
    294c:	ac220008 	sw	v1,8(v0)
    2950:	02201821 	move	a0,s0
    2954:	8fbf000c 	lw	ra,12(sp)
    2958:	8fb20008 	lw	s1,8(sp)
    295c:	8fb10004 	lw	s0,4(sp)
    2960:	27bd0010 	addiu	sp,sp,16
    2964:	08000750 	j	1d40 <__malloc_unlock>
    2968:	8e46fff8 	lw	a3,-8(s1)
    296c:	00461023 	subu	v1,v1,a3
    2970:	8c470008 	lw	a4,8(v1)
    2974:	00260821 	addu	v0,v0,a3
    2978:	3c060000 	lui	a3,0x0
    297c:	24c64d68 	addiu	a3,a3,19816
    2980:	10e6003f 	beq	a4,a3,2a80 <_free_r+0x240>
    2984:	8c48000c 	lw	a5,12(v1)
    2988:	00003021 	move	a3,zero
    298c:	ad070008 	sw	a4,8(a5)
    2990:	ace8000c 	sw	a5,12(a4)
    2994:	08000a28 	j	28a0 <_free_r+0x60>
    2998:	8fbf000c 	lw	ra,12(sp)
    299c:	8fb20008 	lw	s1,8(sp)
    29a0:	8fb10004 	lw	s0,4(sp)
    29a4:	27bd0010 	addiu	sp,sp,16
    29a8:	03e00008 	jr	ra
    29ac:	000108c2 	srl	v0,v0,0x3
    29b0:	000118c0 	sll	a0,v0,0x3
    29b4:	00a31821 	addu	a0,a2,a0
    29b8:	8ca60004 	lw	a3,4(a2)
    29bc:	8c640008 	lw	a1,8(a0)
    29c0:	00010883 	sra	v0,v0,0x2
    29c4:	24070001 	li	a4,1
    29c8:	00270804 	sllv	v0,a4,v0
    29cc:	00c10825 	or	v0,a3,v0
    29d0:	ac43000c 	sw	a0,12(v1)
    29d4:	ac440008 	sw	a1,8(v1)
    29d8:	8fbf000c 	lw	ra,12(sp)
    29dc:	ac620008 	sw	v1,8(a0)
    29e0:	8fb20008 	lw	s1,8(sp)
    29e4:	02201821 	move	a0,s0
    29e8:	aca10004 	sw	v0,4(a2)
    29ec:	8fb10004 	lw	s0,4(sp)
    29f0:	ac82000c 	sw	v1,12(a1)
    29f4:	27bd0010 	addiu	sp,sp,16
    29f8:	08000750 	j	1d40 <__malloc_unlock>
    29fc:	8c640008 	lw	a1,8(a0)
    2a00:	3c070000 	lui	a4,0x0
    2a04:	24e74d68 	addiu	a4,a4,19816
    2a08:	1487ffac 	bne	a1,a4,28bc <_free_r+0x7c>
    2a0c:	00412821 	addu	a2,v1,v0
    2a10:	34230001 	ori	a0,v0,0x1
    2a14:	ac82000c 	sw	v1,12(a1)
    2a18:	ac820008 	sw	v1,8(a1)
    2a1c:	aca10000 	sw	v0,0(a2)
    2a20:	ac430004 	sw	a0,4(v1)
    2a24:	ac440008 	sw	a1,8(v1)
    2a28:	ac44000c 	sw	a1,12(v1)
    2a2c:	08000a54 	j	2950 <_free_r+0x110>
    2a30:	30c60001 	andi	a3,a3,0x1
    2a34:	00810821 	addu	v0,a1,v0
    2a38:	14c00007 	bnez	a3,2a58 <_free_r+0x218>
    2a3c:	8e46fff8 	lw	a3,-8(s1)
    2a40:	00461023 	subu	v1,v1,a3
    2a44:	8c44000c 	lw	a1,12(v1)
    2a48:	8c430008 	lw	a0,8(v1)
    2a4c:	00260821 	addu	v0,v0,a3
    2a50:	ac830008 	sw	a0,8(a1)
    2a54:	ac64000c 	sw	a1,12(a0)
    2a58:	8f848014 	lw	a1,-32748(gp)
    2a5c:	34230001 	ori	a0,v0,0x1
    2a60:	aca20008 	sw	v1,8(a2)
    2a64:	0024082b 	sltu	v0,v0,a1
    2a68:	ac430004 	sw	a0,4(v1)
    2a6c:	1420ffb8 	bnez	v0,2950 <_free_r+0x110>
    2a70:	8f848030 	lw	a1,-32720(gp)
    2a74:	02201821 	move	a0,s0
    2a78:	0c0009c5 	jal	2714 <_malloc_trim_r>
    2a7c:	08000a54 	j	2950 <_free_r+0x110>
    2a80:	24060001 	li	a3,1
    2a84:	08000a28 	j	28a0 <_free_r+0x60>
    2a88:	2c640015 	sltiu	a1,a0,21
    2a8c:	1080000b 	beqz	a1,2abc <_free_r+0x27c>
    2a90:	2464005b 	addiu	a1,a0,91
    2a94:	000430c0 	sll	a3,a1,0x3
    2a98:	08000a3f 	j	28fc <_free_r+0xbc>
    2a9c:	8ca60004 	lw	a3,4(a2)
    2aa0:	00042083 	sra	a1,a1,0x2
    2aa4:	24010001 	li	v0,1
    2aa8:	00810804 	sllv	v0,v0,a1
    2aac:	00c10825 	or	v0,a3,v0
    2ab0:	aca10004 	sw	v0,4(a2)
    2ab4:	00600821 	move	v0,a0
    2ab8:	08000a50 	j	2940 <_free_r+0x100>
    2abc:	2c640055 	sltiu	a1,a0,85
    2ac0:	10800004 	beqz	a1,2ad4 <_free_r+0x294>
    2ac4:	00012302 	srl	a1,v0,0xc
    2ac8:	2484006e 	addiu	a1,a1,110
    2acc:	000430c0 	sll	a3,a1,0x3
    2ad0:	08000a3f 	j	28fc <_free_r+0xbc>
    2ad4:	2c640155 	sltiu	a1,a0,341
    2ad8:	10800004 	beqz	a1,2aec <_free_r+0x2ac>
    2adc:	000123c2 	srl	a1,v0,0xf
    2ae0:	24840077 	addiu	a1,a1,119
    2ae4:	000430c0 	sll	a3,a1,0x3
    2ae8:	08000a3f 	j	28fc <_free_r+0xbc>
    2aec:	2c630555 	sltiu	a0,a0,1365
    2af0:	14600003 	bnez	a0,2b00 <_free_r+0x2c0>
    2af4:	240603f0 	li	a3,1008
    2af8:	2404007e 	li	a1,126
    2afc:	08000a3f 	j	28fc <_free_r+0xbc>
    2b00:	00012482 	srl	a1,v0,0x12
    2b04:	2484007c 	addiu	a1,a1,124
    2b08:	000430c0 	sll	a3,a1,0x3
    2b0c:	08000a3f 	j	28fc <_free_r+0xbc>

00002b10 <__getreent>:
    2b10:	40028800 	mfc0	v1,c0_coreid
    2b14:	10400007 	beqz	v1,2b34 <__getreent+0x24>
    2b18:	00020a80 	sll	v0,v1,0xa
    2b1c:	00021180 	sll	v1,v1,0x6
    2b20:	00411021 	addu	v1,v1,v0
    2b24:	3c010000 	lui	v0,0x0
    2b28:	242151f8 	addiu	v0,v0,20984
    2b2c:	00220821 	addu	v0,v0,v1
    2b30:	03e00008 	jr	ra
    2b34:	8f81800c 	lw	v0,-32756(gp)
    2b38:	03e00008 	jr	ra

00002b3c <_malloc_r>:
    2b3c:	2481000b 	addiu	v0,a1,11
    2b40:	27bdffd8 	addiu	sp,sp,-40
    2b44:	2c220017 	sltiu	v1,v0,23
    2b48:	afb20008 	sw	s1,8(sp)
    2b4c:	afbf0024 	sw	ra,36(sp)
    2b50:	afb80020 	sw	s7,32(sp)
    2b54:	afb7001c 	sw	s6,28(sp)
    2b58:	afb60018 	sw	s5,24(sp)
    2b5c:	afb50014 	sw	s4,20(sp)
    2b60:	afb40010 	sw	s3,16(sp)
    2b64:	afb3000c 	sw	s2,12(sp)
    2b68:	afb10004 	sw	s0,4(sp)
    2b6c:	00609021 	move	s1,a0
    2b70:	10400026 	beqz	v1,2c0c <_malloc_r+0xd0>
    2b74:	24110010 	li	s0,16
    2b78:	0224202b 	sltu	a1,s0,a1
    2b7c:	14800026 	bnez	a1,2c18 <_malloc_r+0xdc>
    2b80:	02401821 	move	a0,s1
    2b84:	0c00074e 	jal	1d38 <__malloc_lock>
    2b88:	2e2101f8 	sltiu	v0,s0,504
    2b8c:	10200030 	beqz	v0,2c50 <_malloc_r+0x114>
    2b90:	3c130000 	lui	s2,0x0
    2b94:	26734d60 	addiu	s2,s2,19808
    2b98:	02710821 	addu	v0,s2,s0
    2b9c:	8c34000c 	lw	s3,12(v0)
    2ba0:	001138c2 	srl	a4,s0,0x3
    2ba4:	12810171 	beq	s3,v0,316c <_malloc_r+0x630>
    2ba8:	8e840004 	lw	a1,4(s3)
    2bac:	2401fffc 	li	v0,-4
    2bb0:	8e82000c 	lw	v1,12(s3)
    2bb4:	00812024 	and	a1,a1,v0
    2bb8:	02842021 	addu	a1,s3,a1
    2bbc:	8c850004 	lw	a2,4(a1)
    2bc0:	8e810008 	lw	v0,8(s3)
    2bc4:	02401821 	move	a0,s1
    2bc8:	34a50001 	ori	a2,a2,0x1
    2bcc:	ac410008 	sw	v0,8(v1)
    2bd0:	ac22000c 	sw	v1,12(v0)
    2bd4:	ac850004 	sw	a2,4(a1)
    2bd8:	0c000750 	jal	1d40 <__malloc_unlock>
    2bdc:	26810008 	addiu	v0,s3,8
    2be0:	8fbf0024 	lw	ra,36(sp)
    2be4:	8fb80020 	lw	s7,32(sp)
    2be8:	8fb7001c 	lw	s6,28(sp)
    2bec:	8fb60018 	lw	s5,24(sp)
    2bf0:	8fb50014 	lw	s4,20(sp)
    2bf4:	8fb40010 	lw	s3,16(sp)
    2bf8:	8fb3000c 	lw	s2,12(sp)
    2bfc:	8fb20008 	lw	s1,8(sp)
    2c00:	8fb10004 	lw	s0,4(sp)
    2c04:	27bd0028 	addiu	sp,sp,40
    2c08:	03e00008 	jr	ra
    2c0c:	2411fff8 	li	s0,-8
    2c10:	00318824 	and	s0,v0,s0
    2c14:	0621ffd8 	bgez	s0,2b78 <_malloc_r+0x3c>
    2c18:	8fbf0024 	lw	ra,36(sp)
    2c1c:	2401000c 	li	v0,12
    2c20:	ae410000 	sw	v0,0(s1)
    2c24:	8fb80020 	lw	s7,32(sp)
    2c28:	00000821 	move	v0,zero
    2c2c:	8fb7001c 	lw	s6,28(sp)
    2c30:	8fb60018 	lw	s5,24(sp)
    2c34:	8fb50014 	lw	s4,20(sp)
    2c38:	8fb40010 	lw	s3,16(sp)
    2c3c:	8fb3000c 	lw	s2,12(sp)
    2c40:	8fb20008 	lw	s1,8(sp)
    2c44:	8fb10004 	lw	s0,4(sp)
    2c48:	27bd0028 	addiu	sp,sp,40
    2c4c:	03e00008 	jr	ra
    2c50:	00113a42 	srl	a4,s0,0x9
    2c54:	10e0006d 	beqz	a4,2e0c <_malloc_r+0x2d0>
    2c58:	2ce10005 	sltiu	v0,a4,5
    2c5c:	10200107 	beqz	v0,307c <_malloc_r+0x540>
    2c60:	00113982 	srl	a4,s0,0x6
    2c64:	24e70038 	addiu	a4,a4,56
    2c68:	000720c0 	sll	a1,a4,0x3
    2c6c:	3c130000 	lui	s2,0x0
    2c70:	26734d60 	addiu	s2,s2,19808
    2c74:	02642021 	addu	a1,s2,a1
    2c78:	8c94000c 	lw	s3,12(a1)
    2c7c:	10940011 	beq	a1,s3,2cc4 <_malloc_r+0x188>
    2c80:	8e820004 	lw	v1,4(s3)
    2c84:	2401fffc 	li	v0,-4
    2c88:	00411024 	and	v1,v1,v0
    2c8c:	00510823 	subu	v0,v1,s0
    2c90:	28230010 	slti	a0,v0,16
    2c94:	10600076 	beqz	a0,2e70 <_malloc_r+0x334>
    2c98:	0421005f 	bgez	v0,2e18 <_malloc_r+0x2dc>
    2c9c:	2405fffc 	li	a2,-4
    2ca0:	08000b2f 	j	2cbc <_malloc_r+0x180>
    2ca4:	8e820004 	lw	v1,4(s3)
    2ca8:	00451024 	and	v1,v1,a2
    2cac:	00510823 	subu	v0,v1,s0
    2cb0:	28230010 	slti	a0,v0,16
    2cb4:	1060006e 	beqz	a0,2e70 <_malloc_r+0x334>
    2cb8:	04210057 	bgez	v0,2e18 <_malloc_r+0x2dc>
    2cbc:	8e94000c 	lw	s3,12(s3)
    2cc0:	1494fff8 	bne	a1,s3,2ca4 <_malloc_r+0x168>
    2cc4:	24e70001 	addiu	a4,a4,1
    2cc8:	3c010000 	lui	v0,0x0
    2ccc:	24214d68 	addiu	v0,v0,19816
    2cd0:	8c340008 	lw	s3,8(v0)
    2cd4:	1034011e 	beq	v0,s3,3150 <_malloc_r+0x614>
    2cd8:	8e830004 	lw	a0,4(s3)
    2cdc:	2402fffc 	li	v1,-4
    2ce0:	00621824 	and	a0,a0,v1
    2ce4:	00711023 	subu	v1,a0,s0
    2ce8:	28440010 	slti	a1,v1,16
    2cec:	10800109 	beqz	a1,3114 <_malloc_r+0x5d8>
    2cf0:	ac21000c 	sw	v0,12(v0)
    2cf4:	ac210008 	sw	v0,8(v0)
    2cf8:	0441005f 	bgez	v1,2e78 <_malloc_r+0x33c>
    2cfc:	2c620200 	sltiu	v1,a0,512
    2d00:	104000e6 	beqz	v1,309c <_malloc_r+0x560>
    2d04:	000318c2 	srl	a0,a0,0x3
    2d08:	000310c0 	sll	v1,a0,0x3
    2d0c:	02621021 	addu	v1,s2,v1
    2d10:	8e650004 	lw	a2,4(s2)
    2d14:	8c440008 	lw	a1,8(v1)
    2d18:	00031883 	sra	a0,a0,0x2
    2d1c:	24060001 	li	a3,1
    2d20:	00661804 	sllv	a0,a3,a0
    2d24:	00651825 	or	a0,a0,a2
    2d28:	ae82000c 	sw	v1,12(s3)
    2d2c:	ae840008 	sw	a1,8(s3)
    2d30:	ac94000c 	sw	s3,12(a1)
    2d34:	ac540008 	sw	s3,8(v1)
    2d38:	ae630004 	sw	a0,4(s2)
    2d3c:	00071083 	sra	v1,a4,0x2
    2d40:	24050001 	li	a2,1
    2d44:	00452804 	sllv	a2,a2,v1
    2d48:	0065102b 	sltu	v1,a0,a2
    2d4c:	1440005c 	bnez	v1,2ec0 <_malloc_r+0x384>
    2d50:	00651024 	and	v1,a0,a2
    2d54:	1440000a 	bnez	v1,2d80 <_malloc_r+0x244>
    2d58:	2402fffc 	li	v1,-4
    2d5c:	00052840 	sll	a2,a2,0x1
    2d60:	00e23824 	and	a4,a4,v1
    2d64:	00651024 	and	v1,a0,a2
    2d68:	24e70004 	addiu	a4,a4,4
    2d6c:	14400004 	bnez	v1,2d80 <_malloc_r+0x244>
    2d70:	00052840 	sll	a2,a2,0x1
    2d74:	00a31024 	and	v1,a2,a0
    2d78:	24e70004 	addiu	a4,a4,4
    2d7c:	1040fffc 	beqz	v1,2d70 <_malloc_r+0x234>
    2d80:	2408fffc 	li	a5,-4
    2d84:	000750c0 	sll	a7,a4,0x3
    2d88:	026a5021 	addu	a7,s2,a7
    2d8c:	01403021 	move	a3,a7
    2d90:	00e04821 	move	a6,a4
    2d94:	8cd4000c 	lw	s3,12(a3)
    2d98:	14d40004 	bne	a3,s3,2dac <_malloc_r+0x270>
    2d9c:	08000c56 	j	3158 <_malloc_r+0x61c>
    2da0:	0461001d 	bgez	a0,2e18 <_malloc_r+0x2dc>
    2da4:	8e94000c 	lw	s3,12(s3)
    2da8:	10d400eb 	beq	a3,s3,3158 <_malloc_r+0x61c>
    2dac:	8e820004 	lw	v1,4(s3)
    2db0:	00481024 	and	v1,v1,a5
    2db4:	00511823 	subu	a0,v1,s0
    2db8:	28640010 	slti	a1,a0,16
    2dbc:	1480fff8 	bnez	a1,2da0 <_malloc_r+0x264>
    2dc0:	8e85000c 	lw	a2,12(s3)
    2dc4:	8e840008 	lw	a1,8(s3)
    2dc8:	02911021 	addu	v1,s3,s0
    2dcc:	00433821 	addu	a4,v1,a0
    2dd0:	34660001 	ori	a3,a0,0x1
    2dd4:	36310001 	ori	s0,s0,0x1
    2dd8:	aca40008 	sw	a1,8(a2)
    2ddc:	ac85000c 	sw	a2,12(a1)
    2de0:	ac220008 	sw	v1,8(v0)
    2de4:	ac22000c 	sw	v1,12(v0)
    2de8:	ace30000 	sw	a0,0(a4)
    2dec:	ae910004 	sw	s0,4(s3)
    2df0:	ac410008 	sw	v0,8(v1)
    2df4:	ac41000c 	sw	v0,12(v1)
    2df8:	ac460004 	sw	a3,4(v1)
    2dfc:	02401821 	move	a0,s1
    2e00:	0c000750 	jal	1d40 <__malloc_unlock>
    2e04:	26810008 	addiu	v0,s3,8
    2e08:	08000af8 	j	2be0 <_malloc_r+0xa4>
    2e0c:	001138c2 	srl	a4,s0,0x3
    2e10:	000720c0 	sll	a1,a4,0x3
    2e14:	08000b1b 	j	2c6c <_malloc_r+0x130>
    2e18:	02821021 	addu	v1,s3,v1
    2e1c:	8c440004 	lw	a1,4(v1)
    2e20:	8e83000c 	lw	a0,12(s3)
    2e24:	8e810008 	lw	v0,8(s3)
    2e28:	34840001 	ori	a1,a1,0x1
    2e2c:	ac440004 	sw	a1,4(v1)
    2e30:	ac610008 	sw	v0,8(a0)
    2e34:	ac23000c 	sw	a0,12(v0)
    2e38:	02401821 	move	a0,s1
    2e3c:	0c000750 	jal	1d40 <__malloc_unlock>
    2e40:	8fbf0024 	lw	ra,36(sp)
    2e44:	26810008 	addiu	v0,s3,8
    2e48:	8fb80020 	lw	s7,32(sp)
    2e4c:	8fb7001c 	lw	s6,28(sp)
    2e50:	8fb60018 	lw	s5,24(sp)
    2e54:	8fb50014 	lw	s4,20(sp)
    2e58:	8fb40010 	lw	s3,16(sp)
    2e5c:	8fb3000c 	lw	s2,12(sp)
    2e60:	8fb20008 	lw	s1,8(sp)
    2e64:	8fb10004 	lw	s0,4(sp)
    2e68:	27bd0028 	addiu	sp,sp,40
    2e6c:	03e00008 	jr	ra
    2e70:	24e7ffff 	addiu	a4,a4,-1
    2e74:	08000b31 	j	2cc4 <_malloc_r+0x188>
    2e78:	02830821 	addu	v0,s3,a0
    2e7c:	8c220004 	lw	v1,4(v0)
    2e80:	02401821 	move	a0,s1
    2e84:	34420001 	ori	v1,v1,0x1
    2e88:	ac220004 	sw	v1,4(v0)
    2e8c:	0c000750 	jal	1d40 <__malloc_unlock>
    2e90:	8fbf0024 	lw	ra,36(sp)
    2e94:	26810008 	addiu	v0,s3,8
    2e98:	8fb80020 	lw	s7,32(sp)
    2e9c:	8fb7001c 	lw	s6,28(sp)
    2ea0:	8fb60018 	lw	s5,24(sp)
    2ea4:	8fb50014 	lw	s4,20(sp)
    2ea8:	8fb40010 	lw	s3,16(sp)
    2eac:	8fb3000c 	lw	s2,12(sp)
    2eb0:	8fb20008 	lw	s1,8(sp)
    2eb4:	8fb10004 	lw	s0,4(sp)
    2eb8:	27bd0028 	addiu	sp,sp,40
    2ebc:	03e00008 	jr	ra
    2ec0:	8e740008 	lw	s3,8(s2)
    2ec4:	2401fffc 	li	v0,-4
    2ec8:	8e950004 	lw	s4,4(s3)
    2ecc:	02a1a824 	and	s4,s4,v0
    2ed0:	02b1082b 	sltu	v0,s4,s0
    2ed4:	14200003 	bnez	v0,2ee4 <_malloc_r+0x3a8>
    2ed8:	02b11023 	subu	v1,s4,s0
    2edc:	28410010 	slti	v0,v1,16
    2ee0:	10200052 	beqz	v0,302c <_malloc_r+0x4f0>
    2ee4:	8f968030 	lw	s5,-32720(gp)
    2ee8:	8f828018 	lw	v1,-32744(gp)
    2eec:	2401ffff 	li	v0,-1
    2ef0:	26d60010 	addiu	s5,s5,16
    2ef4:	02d1b021 	addu	s5,s5,s0
    2ef8:	10410003 	beq	v1,v0,2f08 <_malloc_r+0x3cc>
    2efc:	26d60fff 	addiu	s5,s5,4095
    2f00:	2401f000 	li	v0,-4096
    2f04:	02c1b024 	and	s5,s5,v0
    2f08:	02401821 	move	a0,s1
    2f0c:	02c02021 	move	a1,s5
    2f10:	0c000cd2 	jal	3348 <_sbrk_r>
    2f14:	2402ffff 	li	v1,-1
    2f18:	0020c021 	move	s7,v0
    2f1c:	102200af 	beq	v0,v1,31dc <_malloc_r+0x6a0>
    2f20:	02951821 	addu	a0,s3,s4
    2f24:	0023102b 	sltu	v1,v0,a0
    2f28:	144000ab 	bnez	v1,31d8 <_malloc_r+0x69c>
    2f2c:	3c170000 	lui	s6,0x0
    2f30:	8ee251cc 	lw	v1,20940(s6)
    2f34:	02c21021 	addu	v1,s5,v1
    2f38:	aee251cc 	sw	v1,20940(s6)
    2f3c:	106100dc 	beq	a0,v0,32b0 <_malloc_r+0x774>
    2f40:	8f858018 	lw	a2,-32744(gp)
    2f44:	2404ffff 	li	a1,-1
    2f48:	10a400e0 	beq	a2,a1,32cc <_malloc_r+0x790>
    2f4c:	00221021 	addu	v1,v0,v1
    2f50:	00431823 	subu	a0,v1,a0
    2f54:	aee351cc 	sw	a0,20940(s6)
    2f58:	30220007 	andi	v1,v0,0x7
    2f5c:	144000b0 	bnez	v1,3220 <_malloc_r+0x6e4>
    2f60:	24021000 	li	v1,4096
    2f64:	03160821 	addu	v0,s7,s5
    2f68:	30210fff 	andi	v0,v0,0xfff
    2f6c:	0041b023 	subu	s5,v1,v0
    2f70:	02401821 	move	a0,s1
    2f74:	02c02021 	move	a1,s5
    2f78:	0c000cd2 	jal	3348 <_sbrk_r>
    2f7c:	2402ffff 	li	v1,-1
    2f80:	102200d4 	beq	v0,v1,32d4 <_malloc_r+0x798>
    2f84:	00380823 	subu	v0,v0,s7
    2f88:	00360821 	addu	v0,v0,s5
    2f8c:	34210001 	ori	v0,v0,0x1
    2f90:	8ee251cc 	lw	v1,20940(s6)
    2f94:	ae780008 	sw	s7,8(s2)
    2f98:	02c21021 	addu	v1,s5,v1
    2f9c:	aee251cc 	sw	v1,20940(s6)
    2fa0:	af010004 	sw	v0,4(s7)
    2fa4:	1274000f 	beq	s2,s3,2fe4 <_malloc_r+0x4a8>
    2fa8:	2ea10010 	sltiu	v0,s4,16
    2fac:	142000a9 	bnez	v0,3254 <_malloc_r+0x718>
    2fb0:	26b5fff4 	addiu	s4,s4,-12
    2fb4:	2401fff8 	li	v0,-8
    2fb8:	02a10824 	and	v0,s4,v0
    2fbc:	02811821 	addu	a0,s3,v0
    2fc0:	24040005 	li	a1,5
    2fc4:	ac640008 	sw	a1,8(a0)
    2fc8:	ac640004 	sw	a1,4(a0)
    2fcc:	8e840004 	lw	a1,4(s3)
    2fd0:	2c230010 	sltiu	a0,v0,16
    2fd4:	30840001 	andi	a1,a1,0x1
    2fd8:	00240825 	or	v0,v0,a1
    2fdc:	ae810004 	sw	v0,4(s3)
    2fe0:	106000bf 	beqz	a0,32e0 <_malloc_r+0x7a4>
    2fe4:	8f818034 	lw	v0,-32716(gp)
    2fe8:	0022082b 	sltu	v0,v0,v1
    2fec:	10200001 	beqz	v0,2ff4 <_malloc_r+0x4b8>
    2ff0:	af828034 	sw	v1,-32716(gp)
    2ff4:	8f818038 	lw	v0,-32712(gp)
    2ff8:	0022082b 	sltu	v0,v0,v1
    2ffc:	10200077 	beqz	v0,31dc <_malloc_r+0x6a0>
    3000:	8e780008 	lw	s7,8(s2)
    3004:	af828038 	sw	v1,-32712(gp)
    3008:	2401fffc 	li	v0,-4
    300c:	8f020004 	lw	v1,4(s7)
    3010:	00411024 	and	v1,v1,v0
    3014:	0051082b 	sltu	v0,v1,s0
    3018:	14200097 	bnez	v0,3278 <_malloc_r+0x73c>
    301c:	00511023 	subu	v1,v1,s0
    3020:	28410010 	slti	v0,v1,16
    3024:	14200094 	bnez	v0,3278 <_malloc_r+0x73c>
    3028:	0300a021 	move	s3,s7
    302c:	02910821 	addu	v0,s3,s0
    3030:	34420001 	ori	v1,v1,0x1
    3034:	36310001 	ori	s0,s0,0x1
    3038:	ae910004 	sw	s0,4(s3)
    303c:	ae610008 	sw	v0,8(s2)
    3040:	ac220004 	sw	v1,4(v0)
    3044:	02401821 	move	a0,s1
    3048:	0c000750 	jal	1d40 <__malloc_unlock>
    304c:	8fbf0024 	lw	ra,36(sp)
    3050:	26810008 	addiu	v0,s3,8
    3054:	8fb80020 	lw	s7,32(sp)
    3058:	8fb7001c 	lw	s6,28(sp)
    305c:	8fb60018 	lw	s5,24(sp)
    3060:	8fb50014 	lw	s4,20(sp)
    3064:	8fb40010 	lw	s3,16(sp)
    3068:	8fb3000c 	lw	s2,12(sp)
    306c:	8fb20008 	lw	s1,8(sp)
    3070:	8fb10004 	lw	s0,4(sp)
    3074:	27bd0028 	addiu	sp,sp,40
    3078:	03e00008 	jr	ra
    307c:	2ce10015 	sltiu	v0,a4,21
    3080:	1420003f 	bnez	v0,3180 <_malloc_r+0x644>
    3084:	2ce10055 	sltiu	v0,a4,85
    3088:	1020005f 	beqz	v0,3208 <_malloc_r+0x6cc>
    308c:	00113b02 	srl	a4,s0,0xc
    3090:	24e7006e 	addiu	a4,a4,110
    3094:	000720c0 	sll	a1,a4,0x3
    3098:	08000b1b 	j	2c6c <_malloc_r+0x130>
    309c:	00031242 	srl	v1,a0,0x9
    30a0:	2c440005 	sltiu	a1,v1,5
    30a4:	14800039 	bnez	a1,318c <_malloc_r+0x650>
    30a8:	2c440015 	sltiu	a1,v1,21
    30ac:	10800076 	beqz	a1,3288 <_malloc_r+0x74c>
    30b0:	2444005b 	addiu	a1,v1,91
    30b4:	000428c0 	sll	a2,a1,0x3
    30b8:	02652821 	addu	a2,s2,a2
    30bc:	8ca20008 	lw	v1,8(a2)
    30c0:	1045005c 	beq	v1,a2,3234 <_malloc_r+0x6f8>
    30c4:	8c460004 	lw	a3,4(v1)
    30c8:	2404fffc 	li	a1,-4
    30cc:	00c42024 	and	a1,a3,a1
    30d0:	0064202b 	sltu	a1,a0,a1
    30d4:	10800008 	beqz	a1,30f8 <_malloc_r+0x5bc>
    30d8:	2406fffc 	li	a3,-4
    30dc:	08000c3c 	j	30f0 <_malloc_r+0x5b4>
    30e0:	8c440004 	lw	a1,4(v1)
    30e4:	00862024 	and	a1,a1,a3
    30e8:	0064202b 	sltu	a1,a0,a1
    30ec:	10800002 	beqz	a1,30f8 <_malloc_r+0x5bc>
    30f0:	8c420008 	lw	v1,8(v1)
    30f4:	14a2fffa 	bne	a2,v1,30e0 <_malloc_r+0x5a4>
    30f8:	8c44000c 	lw	a1,12(v1)
    30fc:	ae84000c 	sw	a1,12(s3)
    3100:	ae820008 	sw	v1,8(s3)
    3104:	8e630004 	lw	a0,4(s2)
    3108:	ac54000c 	sw	s3,12(v1)
    310c:	ac940008 	sw	s3,8(a1)
    3110:	08000b4f 	j	2d3c <_malloc_r+0x200>
    3114:	02911821 	addu	a0,s3,s0
    3118:	00622821 	addu	a2,a0,v1
    311c:	34440001 	ori	a1,v1,0x1
    3120:	36310001 	ori	s0,s0,0x1
    3124:	ac23000c 	sw	a0,12(v0)
    3128:	ac230008 	sw	a0,8(v0)
    312c:	ac61000c 	sw	v0,12(a0)
    3130:	ac610008 	sw	v0,8(a0)
    3134:	ae910004 	sw	s0,4(s3)
    3138:	aca20000 	sw	v1,0(a2)
    313c:	ac640004 	sw	a1,4(a0)
    3140:	02401821 	move	a0,s1
    3144:	0c000750 	jal	1d40 <__malloc_unlock>
    3148:	26810008 	addiu	v0,s3,8
    314c:	08000af8 	j	2be0 <_malloc_r+0xa4>
    3150:	8e630004 	lw	a0,4(s2)
    3154:	08000b4f 	j	2d3c <_malloc_r+0x200>
    3158:	25290001 	addiu	a6,a6,1
    315c:	31220003 	andi	v1,a6,0x3
    3160:	1040000e 	beqz	v1,319c <_malloc_r+0x660>
    3164:	26860008 	addiu	a3,s3,8
    3168:	08000b65 	j	2d94 <_malloc_r+0x258>
    316c:	26810008 	addiu	v0,s3,8
    3170:	8c34000c 	lw	s3,12(v0)
    3174:	1434fe8c 	bne	v0,s3,2ba8 <_malloc_r+0x6c>
    3178:	24e70002 	addiu	a4,a4,2
    317c:	08000b32 	j	2cc8 <_malloc_r+0x18c>
    3180:	24e7005b 	addiu	a4,a4,91
    3184:	000720c0 	sll	a1,a4,0x3
    3188:	08000b1b 	j	2c6c <_malloc_r+0x130>
    318c:	00032182 	srl	a1,a0,0x6
    3190:	24840038 	addiu	a1,a1,56
    3194:	000428c0 	sll	a2,a1,0x3
    3198:	08000c2e 	j	30b8 <_malloc_r+0x57c>
    319c:	30e30003 	andi	a0,a4,0x3
    31a0:	2542fff8 	addiu	v1,a7,-8
    31a4:	1060005f 	beqz	a0,3324 <_malloc_r+0x7e8>
    31a8:	8c4a0008 	lw	a7,8(v1)
    31ac:	24e7ffff 	addiu	a4,a4,-1
    31b0:	1142fffa 	beq	a7,v1,319c <_malloc_r+0x660>
    31b4:	8e620004 	lw	v1,4(s2)
    31b8:	00052840 	sll	a2,a2,0x1
    31bc:	0045182b 	sltu	a0,v1,a2
    31c0:	1460ff3f 	bnez	a0,2ec0 <_malloc_r+0x384>
    31c4:	10a0ff3e 	beqz	a2,2ec0 <_malloc_r+0x384>
    31c8:	00451824 	and	a0,v1,a2
    31cc:	10600008 	beqz	a0,31f0 <_malloc_r+0x6b4>
    31d0:	01203821 	move	a4,a6
    31d4:	08000b61 	j	2d84 <_malloc_r+0x248>
    31d8:	1274ff54 	beq	s2,s3,2f2c <_malloc_r+0x3f0>
    31dc:	8e780008 	lw	s7,8(s2)
    31e0:	2401fffc 	li	v0,-4
    31e4:	8f020004 	lw	v1,4(s7)
    31e8:	00411024 	and	v1,v1,v0
    31ec:	08000c05 	j	3014 <_malloc_r+0x4d8>
    31f0:	00052840 	sll	a2,a2,0x1
    31f4:	00a21824 	and	a0,a2,v1
    31f8:	25290004 	addiu	a6,a6,4
    31fc:	1060fffc 	beqz	a0,31f0 <_malloc_r+0x6b4>
    3200:	01203821 	move	a4,a6
    3204:	08000b61 	j	2d84 <_malloc_r+0x248>
    3208:	2ce10155 	sltiu	v0,a4,341
    320c:	10200015 	beqz	v0,3264 <_malloc_r+0x728>
    3210:	00113bc2 	srl	a4,s0,0xf
    3214:	24e70077 	addiu	a4,a4,119
    3218:	000720c0 	sll	a1,a4,0x3
    321c:	08000b1b 	j	2c6c <_malloc_r+0x130>
    3220:	24030008 	li	a0,8
    3224:	00621023 	subu	v1,a0,v1
    3228:	0022c021 	addu	s7,v0,v1
    322c:	24421000 	addiu	v1,v1,4096
    3230:	08000bd9 	j	2f64 <_malloc_r+0x428>
    3234:	8e650004 	lw	a2,4(s2)
    3238:	00042083 	sra	a1,a1,0x2
    323c:	24030001 	li	a0,1
    3240:	00831804 	sllv	a0,a0,a1
    3244:	00a31825 	or	a0,a2,a0
    3248:	ae630004 	sw	a0,4(s2)
    324c:	00402021 	move	a1,v1
    3250:	08000c3f 	j	30fc <_malloc_r+0x5c0>
    3254:	24010001 	li	v0,1
    3258:	af010004 	sw	v0,4(s7)
    325c:	00001021 	move	v1,zero
    3260:	08000c05 	j	3014 <_malloc_r+0x4d8>
    3264:	2ce70555 	sltiu	a4,a4,1365
    3268:	14e0000d 	bnez	a4,32a0 <_malloc_r+0x764>
    326c:	240403f0 	li	a1,1008
    3270:	2407007e 	li	a4,126
    3274:	08000b1b 	j	2c6c <_malloc_r+0x130>
    3278:	02401821 	move	a0,s1
    327c:	0c000750 	jal	1d40 <__malloc_unlock>
    3280:	00000821 	move	v0,zero
    3284:	08000af8 	j	2be0 <_malloc_r+0xa4>
    3288:	2c440055 	sltiu	a1,v1,85
    328c:	1080001a 	beqz	a1,32f8 <_malloc_r+0x7bc>
    3290:	00032302 	srl	a1,a0,0xc
    3294:	2484006e 	addiu	a1,a1,110
    3298:	000428c0 	sll	a2,a1,0x3
    329c:	08000c2e 	j	30b8 <_malloc_r+0x57c>
    32a0:	00113c82 	srl	a4,s0,0x12
    32a4:	24e7007c 	addiu	a4,a4,124
    32a8:	000720c0 	sll	a1,a4,0x3
    32ac:	08000b1b 	j	2c6c <_malloc_r+0x130>
    32b0:	30640fff 	andi	a1,a0,0xfff
    32b4:	1480ff22 	bnez	a1,2f40 <_malloc_r+0x404>
    32b8:	8e610008 	lw	v0,8(s2)
    32bc:	02d51821 	addu	a0,s5,s4
    32c0:	34630001 	ori	a0,a0,0x1
    32c4:	ac230004 	sw	a0,4(v0)
    32c8:	08000bf9 	j	2fe4 <_malloc_r+0x4a8>
    32cc:	af818018 	sw	v0,-32744(gp)
    32d0:	08000bd6 	j	2f58 <_malloc_r+0x41c>
    32d4:	24010001 	li	v0,1
    32d8:	0000b021 	move	s5,zero
    32dc:	08000be4 	j	2f90 <_malloc_r+0x454>
    32e0:	26840008 	addiu	a1,s3,8
    32e4:	02401821 	move	a0,s1
    32e8:	0c000a10 	jal	2840 <_free_r>
    32ec:	3c010000 	lui	v0,0x0
    32f0:	8c2251cc 	lw	v1,20940(v0)
    32f4:	08000bf9 	j	2fe4 <_malloc_r+0x4a8>
    32f8:	2c440155 	sltiu	a1,v1,341
    32fc:	10800004 	beqz	a1,3310 <_malloc_r+0x7d4>
    3300:	000323c2 	srl	a1,a0,0xf
    3304:	24840077 	addiu	a1,a1,119
    3308:	000428c0 	sll	a2,a1,0x3
    330c:	08000c2e 	j	30b8 <_malloc_r+0x57c>
    3310:	2c420555 	sltiu	v1,v1,1365
    3314:	14400008 	bnez	v1,3338 <_malloc_r+0x7fc>
    3318:	240503f0 	li	a2,1008
    331c:	2404007e 	li	a1,126
    3320:	08000c2e 	j	30b8 <_malloc_r+0x57c>
    3324:	8e620004 	lw	v1,4(s2)
    3328:	00051827 	nor	a0,zero,a2
    332c:	00621024 	and	v1,a0,v1
    3330:	ae620004 	sw	v1,4(s2)
    3334:	08000c6e 	j	31b8 <_malloc_r+0x67c>
    3338:	00032482 	srl	a1,a0,0x12
    333c:	2484007c 	addiu	a1,a1,124
    3340:	000428c0 	sll	a2,a1,0x3
    3344:	08000c2e 	j	30b8 <_malloc_r+0x57c>

00003348 <_sbrk_r>:
    3348:	27bdfff8 	addiu	sp,sp,-8
    334c:	afb10000 	sw	s0,0(sp)
    3350:	00608821 	move	s0,a0
    3354:	00801821 	move	a0,a1
    3358:	afbf0004 	sw	ra,4(sp)
    335c:	af80803c 	sw	zero,-32708(gp)
    3360:	0c0007c0 	jal	1f00 <sbrk>
    3364:	2402ffff 	li	v1,-1
    3368:	10220004 	beq	v0,v1,337c <_sbrk_r+0x34>
    336c:	8fbf0004 	lw	ra,4(sp)
    3370:	8fb10000 	lw	s0,0(sp)
    3374:	27bd0008 	addiu	sp,sp,8
    3378:	03e00008 	jr	ra
    337c:	8f82803c 	lw	v1,-32708(gp)
    3380:	1040fffa 	beqz	v1,336c <_sbrk_r+0x24>
    3384:	8fbf0004 	lw	ra,4(sp)
    3388:	ae220000 	sw	v1,0(s0)
    338c:	8fb10000 	lw	s0,0(sp)
    3390:	27bd0008 	addiu	sp,sp,8
    3394:	03e00008 	jr	ra

Disassembly of section .init:

00003398 <_init>:
    3398:	27bdffe0 	addiu	sp,sp,-32
    339c:	afbf0014 	sw	ra,20(sp)
    33a0:	0c00043c 	jal	10f0 <frame_dummy>
    33a4:	0c000603 	jal	180c <__do_global_ctors_aux>
    33a8:	8fbf0014 	lw	ra,20(sp)
    33ac:	27bd0020 	addiu	sp,sp,32
    33b0:	03e00008 	jr	ra

Disassembly of section .fini:

000033b4 <_fini>:
    33b4:	27bdffe0 	addiu	sp,sp,-32
    33b8:	afbf0014 	sw	ra,20(sp)
    33bc:	0c00040b 	jal	102c <__do_global_dtors_aux>
    33c0:	8fbf0014 	lw	ra,20(sp)
    33c4:	27bd0020 	addiu	sp,sp,32
    33c8:	03e00008 	jr	ra
