
bin/ubmark-bin-search:     file format elf32-littlemips


Disassembly of section .text:

00080000 <_bootstrap>:
   80000:      3c1d0007 	lui	sp,0xf
   80004:	341dfffc 	ori	sp,0,4095
   80008:	08000400 	j	1000


00001000 <_start>:
    1000:	3c1c0001 	lui	gp,0x1
    1004:	279cd168 	addiu	gp,gp,-11928
    1008:	08000408 	j	1020
    100c:	3c030000 	lui	a0,0x0
    1010:	246333b4 	addiu	a0,a0,13236
    1014:	0c00061c 	jal	1870 <atexit>
    1018:	8fa30000 	lw	a0,0(sp)
    101c:	27a40004 	addiu	a1,sp,4
    1020:	0c00055c 	jal	1570 <main>
    1024:	00201821 	move	a0,v0
    1028:	0c000621 	jal	1884 <exit>

0000102c <__do_global_dtors_aux>:
    102c:	27bdffe8 	addiu	sp,sp,-24
    1030:	afb10004 	sw	s0,4(sp)
    1034:	3c110000 	lui	s0,0x0
    1038:	922151a8 	lbu	v0,20904(s0)
    103c:	afbf0014 	sw	ra,20(sp)
    1040:	afb40010 	sw	s3,16(sp)
    1044:	afb3000c 	sw	s2,12(sp)
    1048:	afb20008 	sw	s1,8(sp)
    104c:	1420001c 	bnez	v0,10c0 <__do_global_dtors_aux+0x94>
    1050:	3c140000 	lui	s3,0x0
    1054:	3c130000 	lui	s2,0x0
    1058:	269434d8 	addiu	s3,s3,13528
    105c:	3c120000 	lui	s1,0x0
    1060:	267334dc 	addiu	s2,s2,13532
    1064:	02749823 	subu	s2,s2,s3
    1068:	8e4151ac 	lw	v0,20908(s1)
    106c:	00139883 	sra	s2,s2,0x2
    1070:	2673ffff 	addiu	s2,s2,-1
    1074:	0033102b 	sltu	v1,v0,s2
    1078:	10400009 	beqz	v1,10a0 <__do_global_dtors_aux+0x74>
    107c:	24210001 	addiu	v0,v0,1
    1080:	00011080 	sll	v1,v0,0x2
    1084:	02821021 	addu	v1,s3,v1
    1088:	8c420000 	lw	v1,0(v1)
    108c:	ae4151ac 	sw	v0,20908(s1)
    1090:	0040f809 	jalr	v1
    1094:	8e4151ac 	lw	v0,20908(s1)
    1098:	0033102b 	sltu	v1,v0,s2
    109c:	1440fff7 	bnez	v1,107c <__do_global_dtors_aux+0x50>
    10a0:	3c010000 	lui	v0,0x0
    10a4:	24210000 	addiu	v0,v0,0
    10a8:	10200003 	beqz	v0,10b8 <__do_global_dtors_aux+0x8c>
    10ac:	3c030000 	lui	a0,0x0
    10b0:	246334e0 	addiu	a0,a0,13536
    10b4:	0c000000 	jal	0 <_ftext-0x1000>
    10b8:	24010001 	li	v0,1
    10bc:	a22151a8 	sb	v0,20904(s0)
    10c0:	8fbf0014 	lw	ra,20(sp)
    10c4:	8fb40010 	lw	s3,16(sp)
    10c8:	8fb3000c 	lw	s2,12(sp)
    10cc:	8fb20008 	lw	s1,8(sp)
    10d0:	8fb10004 	lw	s0,4(sp)
    10d4:	27bd0018 	addiu	sp,sp,24
    10d8:	03e00008 	jr	ra

000010dc <call___do_global_dtors_aux>:
    10dc:	27bdfff8 	addiu	sp,sp,-8
    10e0:	afbf0004 	sw	ra,4(sp)
    10e4:	8fbf0004 	lw	ra,4(sp)
    10e8:	27bd0008 	addiu	sp,sp,8
    10ec:	03e00008 	jr	ra

000010f0 <frame_dummy>:
    10f0:	3c010000 	lui	v0,0x0
    10f4:	27bdfff8 	addiu	sp,sp,-8
    10f8:	24210000 	addiu	v0,v0,0
    10fc:	afbf0004 	sw	ra,4(sp)
    1100:	10200005 	beqz	v0,1118 <frame_dummy+0x28>
    1104:	3c030000 	lui	a0,0x0
    1108:	3c040000 	lui	a1,0x0
    110c:	246334e0 	addiu	a0,a0,13536
    1110:	248451b0 	addiu	a1,a1,20912
    1114:	0c000000 	jal	0 <_ftext-0x1000>
    1118:	3c030000 	lui	a0,0x0
    111c:	8c61392c 	lw	v0,14636(a0)
    1120:	10200007 	beqz	v0,1140 <frame_dummy+0x50>
    1124:	3c100000 	lui	t9,0x0
    1128:	26100000 	addiu	t9,t9,0
    112c:	12000004 	beqz	t9,1140 <frame_dummy+0x50>
    1130:	8fbf0004 	lw	ra,4(sp)
    1134:	2463392c 	addiu	a0,a0,14636
    1138:	27bd0008 	addiu	sp,sp,8
    113c:	02000008 	jr	t9
    1140:	8fbf0004 	lw	ra,4(sp)
    1144:	27bd0008 	addiu	sp,sp,8
    1148:	03e00008 	jr	ra

0000114c <call_frame_dummy>:
    114c:	27bdfff8 	addiu	sp,sp,-8
    1150:	afbf0004 	sw	ra,4(sp)
    1154:	8fbf0004 	lw	ra,4(sp)
    1158:	27bd0008 	addiu	sp,sp,8
    115c:	03e00008 	jr	ra

00001160 <bin_search_scalar>:
    1160:	18a0001e 	blez	a2,11dc <bin_search_scalar+0x7c>
    1164:	00070fc2 	srl	v0,a4,0x1f
    1168:	00277021 	addu	t7,v0,a4
    116c:	000e7043 	sra	t7,t7,0x1
    1170:	24edffff 	addiu	t6,a4,-1
    1174:	00005821 	move	t4,zero
    1178:	240cffff 	li	t5,-1
    117c:	8c870000 	lw	a4,0(a1)
    1180:	01a05021 	move	a7,t6
    1184:	ac6c0000 	sw	t5,0(a0)
    1188:	01c01021 	move	v1,t7
    118c:	00004821 	move	a6,zero
    1190:	0800046d 	j	11b4 <bin_search_scalar+0x54>
    1194:	11000012 	beqz	a5,11e0 <bin_search_scalar+0x80>
    1198:	24490001 	addiu	a6,v1,1
    119c:	01494021 	addu	a5,a7,a6
    11a0:	000817c2 	srl	v1,a5,0x1f
    11a4:	0149082a 	slt	v0,a7,a6
    11a8:	00481021 	addu	v1,v1,a5
    11ac:	14200007 	bnez	v0,11cc <bin_search_scalar+0x6c>
    11b0:	00021043 	sra	v1,v1,0x1
    11b4:	00027880 	sll	t8,v1,0x2
    11b8:	00cf4021 	addu	a5,a3,t8
    11bc:	8d010000 	lw	v0,0(a5)
    11c0:	0027402a 	slt	a5,v0,a4
    11c4:	14e1fff3 	bne	a4,v0,1194 <bin_search_scalar+0x34>
    11c8:	ac620000 	sw	v1,0(a0)
    11cc:	256b0001 	addiu	t4,t4,1
    11d0:	24840004 	addiu	a1,a1,4
    11d4:	24630004 	addiu	a0,a0,4
    11d8:	1565ffe8 	bne	t4,a2,117c <bin_search_scalar+0x1c>
    11dc:	03e00008 	jr	ra
    11e0:	00e1802a 	slt	t9,a4,v0
    11e4:	1200ffed 	beqz	t9,119c <bin_search_scalar+0x3c>
    11e8:	244affff 	addiu	a7,v1,-1
    11ec:	08000467 	j	119c <bin_search_scalar+0x3c>

000011f0 <verify_results>:
    11f0:	18a000d6 	blez	a2,154c <verify_results+0x35c>
    11f4:	8c660000 	lw	a3,0(a0)
    11f8:	8c810000 	lw	v0,0(a1)
    11fc:	24a2ffff 	addiu	v1,a2,-1
    1200:	30420007 	andi	v1,v1,0x7
    1204:	10c10008 	beq	a3,v0,1228 <verify_results+0x38>
    1208:	00005821 	move	t4,zero
    120c:	240b0002 	li	t4,2
    1210:	408ba800 	mtc0	t4,c0_staten
    1214:	00000000 	nop
    1218:	00000000 	nop
    121c:	00000000 	nop
    1220:	00000000 	nop
    1224:	00000000 	nop
    1228:	24010001 	li	v0,1
    122c:	24630004 	addiu	a0,a0,4
    1230:	24840004 	addiu	a1,a1,4
    1234:	102500c5 	beq	v0,a2,154c <verify_results+0x35c>
    1238:	10400067 	beqz	v1,13d8 <verify_results+0x1e8>
    123c:	10410058 	beq	v1,v0,13a0 <verify_results+0x1b0>
    1240:	240c0002 	li	t5,2
    1244:	104c0049 	beq	v1,t5,136c <verify_results+0x17c>
    1248:	240d0003 	li	t6,3
    124c:	104d003a 	beq	v1,t6,1338 <verify_results+0x148>
    1250:	240e0004 	li	t7,4
    1254:	104e002b 	beq	v1,t7,1304 <verify_results+0x114>
    1258:	240f0005 	li	t8,5
    125c:	104f001c 	beq	v1,t8,12d0 <verify_results+0xe0>
    1260:	24100006 	li	t9,6
    1264:	1050000d 	beq	v1,t9,129c <verify_results+0xac>
    1268:	8c660000 	lw	a3,0(a0)
    126c:	8c820000 	lw	v1,0(a1)
    1270:	10c20007 	beq	a3,v1,1290 <verify_results+0xa0>
    1274:	24010002 	li	v0,2
    1278:	4081a800 	mtc0	v0,c0_staten
    127c:	00000000 	nop
    1280:	00000000 	nop
    1284:	00000000 	nop
    1288:	00000000 	nop
    128c:	00000000 	nop
    1290:	24210001 	addiu	v0,v0,1
    1294:	24630004 	addiu	a0,a0,4
    1298:	24840004 	addiu	a1,a1,4
    129c:	8c680000 	lw	a5,0(a0)
    12a0:	8c870000 	lw	a4,0(a1)
    12a4:	11070007 	beq	a5,a4,12c4 <verify_results+0xd4>
    12a8:	24010002 	li	v0,2
    12ac:	4081a800 	mtc0	v0,c0_staten
    12b0:	00000000 	nop
    12b4:	00000000 	nop
    12b8:	00000000 	nop
    12bc:	00000000 	nop
    12c0:	00000000 	nop
    12c4:	24210001 	addiu	v0,v0,1
    12c8:	24630004 	addiu	a0,a0,4
    12cc:	24840004 	addiu	a1,a1,4
    12d0:	8c6a0000 	lw	a7,0(a0)
    12d4:	8c890000 	lw	a6,0(a1)
    12d8:	11490007 	beq	a7,a6,12f8 <verify_results+0x108>
    12dc:	24010002 	li	v0,2
    12e0:	4081a800 	mtc0	v0,c0_staten
    12e4:	00000000 	nop
    12e8:	00000000 	nop
    12ec:	00000000 	nop
    12f0:	00000000 	nop
    12f4:	00000000 	nop
    12f8:	24210001 	addiu	v0,v0,1
    12fc:	24630004 	addiu	a0,a0,4
    1300:	24840004 	addiu	a1,a1,4
    1304:	8c6c0000 	lw	t5,0(a0)
    1308:	8c8b0000 	lw	t4,0(a1)
    130c:	118b0007 	beq	t5,t4,132c <verify_results+0x13c>
    1310:	24010002 	li	v0,2
    1314:	4081a800 	mtc0	v0,c0_staten
    1318:	00000000 	nop
    131c:	00000000 	nop
    1320:	00000000 	nop
    1324:	00000000 	nop
    1328:	00000000 	nop
    132c:	24210001 	addiu	v0,v0,1
    1330:	24630004 	addiu	a0,a0,4
    1334:	24840004 	addiu	a1,a1,4
    1338:	8c6e0000 	lw	t7,0(a0)
    133c:	8c8d0000 	lw	t6,0(a1)
    1340:	11cd0007 	beq	t7,t6,1360 <verify_results+0x170>
    1344:	24010002 	li	v0,2
    1348:	4081a800 	mtc0	v0,c0_staten
    134c:	00000000 	nop
    1350:	00000000 	nop
    1354:	00000000 	nop
    1358:	00000000 	nop
    135c:	00000000 	nop
    1360:	24210001 	addiu	v0,v0,1
    1364:	24630004 	addiu	a0,a0,4
    1368:	24840004 	addiu	a1,a1,4
    136c:	8c700000 	lw	t9,0(a0)
    1370:	8c8f0000 	lw	t8,0(a1)
    1374:	120f0007 	beq	t9,t8,1394 <verify_results+0x1a4>
    1378:	24010002 	li	v0,2
    137c:	4081a800 	mtc0	v0,c0_staten
    1380:	00000000 	nop
    1384:	00000000 	nop
    1388:	00000000 	nop
    138c:	00000000 	nop
    1390:	00000000 	nop
    1394:	24210001 	addiu	v0,v0,1
    1398:	24630004 	addiu	a0,a0,4
    139c:	24840004 	addiu	a1,a1,4
    13a0:	8c660000 	lw	a3,0(a0)
    13a4:	8c820000 	lw	v1,0(a1)
    13a8:	10c20007 	beq	a3,v1,13c8 <verify_results+0x1d8>
    13ac:	24010002 	li	v0,2
    13b0:	4081a800 	mtc0	v0,c0_staten
    13b4:	00000000 	nop
    13b8:	00000000 	nop
    13bc:	00000000 	nop
    13c0:	00000000 	nop
    13c4:	00000000 	nop
    13c8:	24210001 	addiu	v0,v0,1
    13cc:	24630004 	addiu	a0,a0,4
    13d0:	24840004 	addiu	a1,a1,4
    13d4:	1025005d 	beq	v0,a2,154c <verify_results+0x35c>
    13d8:	8c680000 	lw	a5,0(a0)
    13dc:	8c870000 	lw	a4,0(a1)
    13e0:	11070007 	beq	a5,a4,1400 <verify_results+0x210>
    13e4:	24010002 	li	v0,2
    13e8:	4081a800 	mtc0	v0,c0_staten
    13ec:	00000000 	nop
    13f0:	00000000 	nop
    13f4:	00000000 	nop
    13f8:	00000000 	nop
    13fc:	00000000 	nop
    1400:	8c6a0004 	lw	a7,4(a0)
    1404:	8c890004 	lw	a6,4(a1)
    1408:	24210001 	addiu	v0,v0,1
    140c:	24630004 	addiu	a0,a0,4
    1410:	24840004 	addiu	a1,a1,4
    1414:	11490007 	beq	a7,a6,1434 <verify_results+0x244>
    1418:	24010002 	li	v0,2
    141c:	4081a800 	mtc0	v0,c0_staten
    1420:	00000000 	nop
    1424:	00000000 	nop
    1428:	00000000 	nop
    142c:	00000000 	nop
    1430:	00000000 	nop
    1434:	8c690004 	lw	a6,4(a0)
    1438:	8c880004 	lw	a5,4(a1)
    143c:	24270001 	addiu	a4,v0,1
    1440:	11280007 	beq	a6,a5,1460 <verify_results+0x270>
    1444:	24070002 	li	a4,2
    1448:	4087a800 	mtc0	a4,c0_staten
    144c:	00000000 	nop
    1450:	00000000 	nop
    1454:	00000000 	nop
    1458:	00000000 	nop
    145c:	00000000 	nop
    1460:	8c6b0008 	lw	t4,8(a0)
    1464:	8c8a0008 	lw	a7,8(a1)
    1468:	24270002 	addiu	a4,v0,2
    146c:	116a0007 	beq	t4,a7,148c <verify_results+0x29c>
    1470:	24070002 	li	a4,2
    1474:	4087a800 	mtc0	a4,c0_staten
    1478:	00000000 	nop
    147c:	00000000 	nop
    1480:	00000000 	nop
    1484:	00000000 	nop
    1488:	00000000 	nop
    148c:	8c6d000c 	lw	t6,12(a0)
    1490:	8c8c000c 	lw	t5,12(a1)
    1494:	24270003 	addiu	a4,v0,3
    1498:	11ac0007 	beq	t6,t5,14b8 <verify_results+0x2c8>
    149c:	24070002 	li	a4,2
    14a0:	4087a800 	mtc0	a4,c0_staten
    14a4:	00000000 	nop
    14a8:	00000000 	nop
    14ac:	00000000 	nop
    14b0:	00000000 	nop
    14b4:	00000000 	nop
    14b8:	8c6f0010 	lw	t8,16(a0)
    14bc:	8c8e0010 	lw	t7,16(a1)
    14c0:	24270004 	addiu	a4,v0,4
    14c4:	11ee0007 	beq	t8,t7,14e4 <verify_results+0x2f4>
    14c8:	24070002 	li	a4,2
    14cc:	4087a800 	mtc0	a4,c0_staten
    14d0:	00000000 	nop
    14d4:	00000000 	nop
    14d8:	00000000 	nop
    14dc:	00000000 	nop
    14e0:	00000000 	nop
    14e4:	8c620014 	lw	v1,20(a0)
    14e8:	8c900014 	lw	t9,20(a1)
    14ec:	24270005 	addiu	a4,v0,5
    14f0:	10500007 	beq	v1,t9,1510 <verify_results+0x320>
    14f4:	24070002 	li	a4,2
    14f8:	4087a800 	mtc0	a4,c0_staten
    14fc:	00000000 	nop
    1500:	00000000 	nop
    1504:	00000000 	nop
    1508:	00000000 	nop
    150c:	00000000 	nop
    1510:	8c660018 	lw	a3,24(a0)
    1514:	8c880018 	lw	a5,24(a1)
    1518:	24270006 	addiu	a4,v0,6
    151c:	10c80007 	beq	a3,a5,153c <verify_results+0x34c>
    1520:	24070002 	li	a4,2
    1524:	4087a800 	mtc0	a4,c0_staten
    1528:	00000000 	nop
    152c:	00000000 	nop
    1530:	00000000 	nop
    1534:	00000000 	nop
    1538:	00000000 	nop
    153c:	24210007 	addiu	v0,v0,7
    1540:	2463001c 	addiu	a0,a0,28
    1544:	2484001c 	addiu	a1,a1,28
    1548:	1425ffa3 	bne	v0,a2,13d8 <verify_results+0x1e8>
    154c:	00001821 	move	a0,zero
    1550:	24030001 	li	a0,1
    1554:	4083a800 	mtc0	a0,c0_staten
    1558:	00000000 	nop
    155c:	00000000 	nop
    1560:	00000000 	nop
    1564:	00000000 	nop
    1568:	00000000 	nop
    156c:	03e00008 	jr	ra

00001570 <main>:
    1570:	27bdfff0 	addiu	sp,sp,-16
    1574:	afbf000c 	sw	ra,12(sp)
    1578:	afb90008 	sw	s8,8(sp)
    157c:	afb10004 	sw	s0,4(sp)
    1580:	03a0c821 	move	s8,sp
    1584:	27bdffd0 	addiu	sp,sp,-48
    1588:	afa00000 	sw	zero,0(sp)
    158c:	afa00004 	sw	zero,4(sp)
    1590:	afa00008 	sw	zero,8(sp)
    1594:	afa0000c 	sw	zero,12(sp)
    1598:	afa00010 	sw	zero,16(sp)
    159c:	afa00014 	sw	zero,20(sp)
    15a0:	afa00018 	sw	zero,24(sp)
    15a4:	afa0001c 	sw	zero,28(sp)
    15a8:	afa00020 	sw	zero,32(sp)
    15ac:	afa00024 	sw	zero,36(sp)
    15b0:	03a08821 	move	s0,sp
    15b4:	00002821 	move	a2,zero
    15b8:	24050001 	li	a2,1
    15bc:	40855000 	mtc0	a2,$10
    15c0:	00000000 	nop
    15c4:	00000000 	nop
    15c8:	00000000 	nop
    15cc:	00000000 	nop
    15d0:	00000000 	nop
    15d4:	8f878008 	lw	a4,-32760(gp)
    15d8:	3c040000 	lui	a1,0x0
    15dc:	3c060000 	lui	a3,0x0
    15e0:	248448d0 	addiu	a1,a1,18640
    15e4:	24c63930 	addiu	a3,a3,14640
    15e8:	03a01821 	move	a0,sp
    15ec:	2405000a 	li	a2,10
    15f0:	0c000458 	jal	1160 <bin_search_scalar>
    15f4:	00000821 	move	v0,zero
    15f8:	24010000 	li	v0,0
    15fc:	40815000 	mtc0	v0,$10
    1600:	00000000 	nop
    1604:	00000000 	nop
    1608:	00000000 	nop
    160c:	00000000 	nop
    1610:	00000000 	nop
    1614:	3c010000 	lui	v0,0x0
    1618:	8fa30000 	lw	a0,0(sp)
    161c:	8c2248f8 	lw	v1,18680(v0)
    1620:	10620008 	beq	a0,v1,1644 <main+0xd4>
    1624:	00003821 	move	a4,zero
    1628:	24070002 	li	a4,2
    162c:	4087a800 	mtc0	a4,c0_staten
    1630:	00000000 	nop
    1634:	00000000 	nop
    1638:	00000000 	nop
    163c:	00000000 	nop
    1640:	00000000 	nop
    1644:	242148f8 	addiu	v0,v0,18680
    1648:	8e290004 	lw	a6,4(s0)
    164c:	8c280004 	lw	a5,4(v0)
    1650:	11280008 	beq	a6,a5,1674 <main+0x104>
    1654:	240a0001 	li	a7,1
    1658:	240a0002 	li	a7,2
    165c:	408aa800 	mtc0	a7,c0_staten
    1660:	00000000 	nop
    1664:	00000000 	nop
    1668:	00000000 	nop
    166c:	00000000 	nop
    1670:	00000000 	nop
    1674:	8e2c0008 	lw	t5,8(s0)
    1678:	8c2b0008 	lw	t4,8(v0)
    167c:	118b0008 	beq	t5,t4,16a0 <main+0x130>
    1680:	240d0002 	li	t6,2
    1684:	240d0002 	li	t6,2
    1688:	408da800 	mtc0	t6,c0_staten
    168c:	00000000 	nop
    1690:	00000000 	nop
    1694:	00000000 	nop
    1698:	00000000 	nop
    169c:	00000000 	nop
    16a0:	8e2f000c 	lw	t8,12(s0)
    16a4:	8c2e000c 	lw	t7,12(v0)
    16a8:	11ee0008 	beq	t8,t7,16cc <main+0x15c>
    16ac:	24100003 	li	t9,3
    16b0:	24100002 	li	t9,2
    16b4:	4090a800 	mtc0	t9,c0_staten
    16b8:	00000000 	nop
    16bc:	00000000 	nop
    16c0:	00000000 	nop
    16c4:	00000000 	nop
    16c8:	00000000 	nop
    16cc:	8e220010 	lw	v1,16(s0)
    16d0:	8c3f0010 	lw	ra,16(v0)
    16d4:	105f0008 	beq	v1,ra,16f8 <main+0x188>
    16d8:	24030004 	li	a0,4
    16dc:	24030002 	li	a0,2
    16e0:	4083a800 	mtc0	a0,c0_staten
    16e4:	00000000 	nop
    16e8:	00000000 	nop
    16ec:	00000000 	nop
    16f0:	00000000 	nop
    16f4:	00000000 	nop
    16f8:	8e240014 	lw	a1,20(s0)
    16fc:	8c260014 	lw	a3,20(v0)
    1700:	10860008 	beq	a1,a3,1724 <main+0x1b4>
    1704:	24050005 	li	a2,5
    1708:	24050002 	li	a2,2
    170c:	4085a800 	mtc0	a2,c0_staten
    1710:	00000000 	nop
    1714:	00000000 	nop
    1718:	00000000 	nop
    171c:	00000000 	nop
    1720:	00000000 	nop
    1724:	8e280018 	lw	a5,24(s0)
    1728:	8c270018 	lw	a4,24(v0)
    172c:	11070008 	beq	a5,a4,1750 <main+0x1e0>
    1730:	24090006 	li	a6,6
    1734:	24090002 	li	a6,2
    1738:	4089a800 	mtc0	a6,c0_staten
    173c:	00000000 	nop
    1740:	00000000 	nop
    1744:	00000000 	nop
    1748:	00000000 	nop
    174c:	00000000 	nop
    1750:	8e2b001c 	lw	t4,28(s0)
    1754:	8c2a001c 	lw	a7,28(v0)
    1758:	116a0008 	beq	t4,a7,177c <main+0x20c>
    175c:	240c0007 	li	t5,7
    1760:	240c0002 	li	t5,2
    1764:	408ca800 	mtc0	t5,c0_staten
    1768:	00000000 	nop
    176c:	00000000 	nop
    1770:	00000000 	nop
    1774:	00000000 	nop
    1778:	00000000 	nop
    177c:	8e2e0020 	lw	t7,32(s0)
    1780:	8c2d0020 	lw	t6,32(v0)
    1784:	11cd0008 	beq	t7,t6,17a8 <main+0x238>
    1788:	240f0008 	li	t8,8
    178c:	240f0002 	li	t8,2
    1790:	408fa800 	mtc0	t8,c0_staten
    1794:	00000000 	nop
    1798:	00000000 	nop
    179c:	00000000 	nop
    17a0:	00000000 	nop
    17a4:	00000000 	nop
    17a8:	8e300024 	lw	t9,36(s0)
    17ac:	8c310024 	lw	s0,36(v0)
    17b0:	12110008 	beq	t9,s0,17d4 <main+0x264>
    17b4:	24010009 	li	v0,9
    17b8:	24010002 	li	v0,2
    17bc:	4081a800 	mtc0	v0,c0_staten
    17c0:	00000000 	nop
    17c4:	00000000 	nop
    17c8:	00000000 	nop
    17cc:	00000000 	nop
    17d0:	00000000 	nop
    17d4:	00000821 	move	v0,zero
    17d8:	24010001 	li	v0,1
    17dc:	4081a800 	mtc0	v0,c0_staten
    17e0:	00000000 	nop
    17e4:	00000000 	nop
    17e8:	00000000 	nop
    17ec:	00000000 	nop
    17f0:	00000000 	nop
    17f4:	0320e821 	move	sp,s8
    17f8:	8fbf000c 	lw	ra,12(sp)
    17fc:	8fb90008 	lw	s8,8(sp)
    1800:	8fb10004 	lw	s0,4(sp)
    1804:	27bd0010 	addiu	sp,sp,16
    1808:	03e00008 	jr	ra

0000180c <__do_global_ctors_aux>:
    180c:	3c010000 	lui	v0,0x0
    1810:	8c2134d0 	lw	v0,13520(v0)
    1814:	27bdfff0 	addiu	sp,sp,-16
    1818:	2402ffff 	li	v1,-1
    181c:	afbf000c 	sw	ra,12(sp)
    1820:	afb20008 	sw	s1,8(sp)
    1824:	afb10004 	sw	s0,4(sp)
    1828:	10220007 	beq	v0,v1,1848 <__do_global_ctors_aux+0x3c>
    182c:	3c110000 	lui	s0,0x0
    1830:	263134d0 	addiu	s0,s0,13520
    1834:	2412ffff 	li	s1,-1
    1838:	2631fffc 	addiu	s0,s0,-4
    183c:	0020f809 	jalr	v0
    1840:	8e210000 	lw	v0,0(s0)
    1844:	1432fffc 	bne	v0,s1,1838 <__do_global_ctors_aux+0x2c>
    1848:	8fbf000c 	lw	ra,12(sp)
    184c:	8fb20008 	lw	s1,8(sp)
    1850:	8fb10004 	lw	s0,4(sp)
    1854:	27bd0010 	addiu	sp,sp,16
    1858:	03e00008 	jr	ra

0000185c <call___do_global_ctors_aux>:
    185c:	27bdfff8 	addiu	sp,sp,-8
    1860:	afbf0004 	sw	ra,4(sp)
    1864:	8fbf0004 	lw	ra,4(sp)
    1868:	27bd0008 	addiu	sp,sp,8
    186c:	03e00008 	jr	ra

00001870 <atexit>:
    1870:	00602021 	move	a1,a0
    1874:	00002821 	move	a2,zero
    1878:	00001821 	move	a0,zero
    187c:	00003021 	move	a3,zero
    1880:	0800062d 	j	18b4 <__register_exitproc>

00001884 <exit>:
    1884:	27bdfff8 	addiu	sp,sp,-8
    1888:	00002021 	move	a1,zero
    188c:	afb10000 	sw	s0,0(sp)
    1890:	afbf0004 	sw	ra,4(sp)
    1894:	00608821 	move	s0,a0
    1898:	0c00067e 	jal	19f8 <__call_exitprocs>
    189c:	8f838010 	lw	a0,-32752(gp)
    18a0:	8c61003c 	lw	v0,60(a0)
    18a4:	10200001 	beqz	v0,18ac <exit+0x28>
    18a8:	0020f809 	jalr	v0
    18ac:	02201821 	move	a0,s0
    18b0:	0c0007cc 	jal	1f30 <_exit>

000018b4 <__register_exitproc>:
    18b4:	27bdffe8 	addiu	sp,sp,-24
    18b8:	afb10000 	sw	s0,0(sp)
    18bc:	00608821 	move	s0,a0
    18c0:	27838020 	addiu	a0,gp,-32736
    18c4:	afb50010 	sw	s4,16(sp)
    18c8:	afb4000c 	sw	s3,12(sp)
    18cc:	afb30008 	sw	s2,8(sp)
    18d0:	afb20004 	sw	s1,4(sp)
    18d4:	afbf0014 	sw	ra,20(sp)
    18d8:	00809021 	move	s1,a1
    18dc:	00a09821 	move	s2,a2
    18e0:	00c0a821 	move	s4,a3
    18e4:	0c0006dd 	jal	1b74 <newlib_lock>
    18e8:	8f948010 	lw	s3,-32752(gp)
    18ec:	8e810148 	lw	v0,328(s3)
    18f0:	10200025 	beqz	v0,1988 <__register_exitproc+0xd4>
    18f4:	8c220004 	lw	v1,4(v0)
    18f8:	28430020 	slti	a0,v1,32
    18fc:	1060002a 	beqz	a0,19a8 <__register_exitproc+0xf4>
    1900:	12200011 	beqz	s0,1948 <__register_exitproc+0x94>
    1904:	8c230004 	lw	a0,4(v0)
    1908:	8c250188 	lw	a2,392(v0)
    190c:	24420022 	addiu	v1,v1,34
    1910:	24660042 	addiu	a3,a0,66
    1914:	00021080 	sll	v1,v1,0x2
    1918:	24040001 	li	a1,1
    191c:	00221021 	addu	v1,v0,v1
    1920:	00642004 	sllv	a1,a1,a0
    1924:	00063080 	sll	a3,a3,0x2
    1928:	00a42825 	or	a2,a2,a1
    192c:	00263021 	addu	a3,v0,a3
    1930:	ac530000 	sw	s2,0(v1)
    1934:	24020002 	li	v1,2
    1938:	acd50000 	sw	s4,0(a3)
    193c:	ac250188 	sw	a2,392(v0)
    1940:	12220014 	beq	s0,v1,1994 <__register_exitproc+0xe0>
    1944:	00601021 	move	v1,a0
    1948:	24430002 	addiu	a0,v1,2
    194c:	00031880 	sll	a0,a0,0x2
    1950:	00231821 	addu	a0,v0,a0
    1954:	24420001 	addiu	v1,v1,1
    1958:	ac220004 	sw	v1,4(v0)
    195c:	ac720000 	sw	s1,0(a0)
    1960:	af808020 	sw	zero,-32736(gp)
    1964:	00000821 	move	v0,zero
    1968:	8fbf0014 	lw	ra,20(sp)
    196c:	8fb50010 	lw	s4,16(sp)
    1970:	8fb4000c 	lw	s3,12(sp)
    1974:	8fb30008 	lw	s2,8(sp)
    1978:	8fb20004 	lw	s1,4(sp)
    197c:	8fb10000 	lw	s0,0(sp)
    1980:	27bd0018 	addiu	sp,sp,24
    1984:	03e00008 	jr	ra
    1988:	2681014c 	addiu	v0,s3,332
    198c:	ae810148 	sw	v0,328(s3)
    1990:	0800063d 	j	18f4 <__register_exitproc+0x40>
    1994:	8c25018c 	lw	a2,396(v0)
    1998:	00601021 	move	v1,a0
    199c:	00a42025 	or	a1,a2,a1
    19a0:	ac24018c 	sw	a1,396(v0)
    19a4:	08000652 	j	1948 <__register_exitproc+0x94>
    19a8:	3c010000 	lui	v0,0x0
    19ac:	24210000 	addiu	v0,v0,0
    19b0:	14200002 	bnez	v0,19bc <__register_exitproc+0x108>
    19b4:	2401ffff 	li	v0,-1
    19b8:	0800065a 	j	1968 <__register_exitproc+0xb4>
    19bc:	24030190 	li	a0,400
    19c0:	0c000000 	jal	0 <_ftext-0x1000>
    19c4:	10200009 	beqz	v0,19ec <__register_exitproc+0x138>
    19c8:	8e820148 	lw	v1,328(s3)
    19cc:	ac200004 	sw	zero,4(v0)
    19d0:	ac200188 	sw	zero,392(v0)
    19d4:	ac220000 	sw	v1,0(v0)
    19d8:	ac20018c 	sw	zero,396(v0)
    19dc:	ae810148 	sw	v0,328(s3)
    19e0:	00001021 	move	v1,zero
    19e4:	1220ffd8 	beqz	s0,1948 <__register_exitproc+0x94>
    19e8:	08000641 	j	1904 <__register_exitproc+0x50>
    19ec:	af808020 	sw	zero,-32736(gp)
    19f0:	2401ffff 	li	v0,-1
    19f4:	0800065a 	j	1968 <__register_exitproc+0xb4>

000019f8 <__call_exitprocs>:
    19f8:	27bdffd0 	addiu	sp,sp,-48
    19fc:	afb6001c 	sw	s5,28(sp)
    1a00:	8f968010 	lw	s5,-32752(gp)
    1a04:	afb90028 	sw	s8,40(sp)
    1a08:	afb70020 	sw	s6,32(sp)
    1a0c:	afb40014 	sw	s3,20(sp)
    1a10:	afbf002c 	sw	ra,44(sp)
    1a14:	afb80024 	sw	s7,36(sp)
    1a18:	afb50018 	sw	s4,24(sp)
    1a1c:	afb30010 	sw	s2,16(sp)
    1a20:	afb2000c 	sw	s1,12(sp)
    1a24:	afb10008 	sw	s0,8(sp)
    1a28:	afa30000 	sw	a0,0(sp)
    1a2c:	0080a021 	move	s3,a1
    1a30:	26d70148 	addiu	s6,s5,328
    1a34:	24190001 	li	s8,1
    1a38:	8ed30148 	lw	s2,328(s5)
    1a3c:	12600010 	beqz	s2,1a80 <__call_exitprocs+0x88>
    1a40:	02e0c021 	move	s7,s6
    1a44:	8e720004 	lw	s1,4(s2)
    1a48:	2651ffff 	addiu	s0,s1,-1
    1a4c:	06200009 	bltz	s0,1a74 <__call_exitprocs+0x7c>
    1a50:	26520021 	addiu	s1,s1,33
    1a54:	00129080 	sll	s1,s1,0x2
    1a58:	02729021 	addu	s1,s2,s1
    1a5c:	12800014 	beqz	s3,1ab0 <__call_exitprocs+0xb8>
    1a60:	8e410080 	lw	v0,128(s1)
    1a64:	10340012 	beq	v0,s3,1ab0 <__call_exitprocs+0xb8>
    1a68:	2631ffff 	addiu	s0,s0,-1
    1a6c:	2652fffc 	addiu	s1,s1,-4
    1a70:	0621fffa 	bgez	s0,1a5c <__call_exitprocs+0x64>
    1a74:	3c010000 	lui	v0,0x0
    1a78:	24210000 	addiu	v0,v0,0
    1a7c:	14200029 	bnez	v0,1b24 <__call_exitprocs+0x12c>
    1a80:	8fbf002c 	lw	ra,44(sp)
    1a84:	8fb90028 	lw	s8,40(sp)
    1a88:	8fb80024 	lw	s7,36(sp)
    1a8c:	8fb70020 	lw	s6,32(sp)
    1a90:	8fb6001c 	lw	s5,28(sp)
    1a94:	8fb50018 	lw	s4,24(sp)
    1a98:	8fb40014 	lw	s3,20(sp)
    1a9c:	8fb30010 	lw	s2,16(sp)
    1aa0:	8fb2000c 	lw	s1,12(sp)
    1aa4:	8fb10008 	lw	s0,8(sp)
    1aa8:	27bd0030 	addiu	sp,sp,48
    1aac:	03e00008 	jr	ra
    1ab0:	8e620004 	lw	v1,4(s2)
    1ab4:	8e41ff80 	lw	v0,-128(s1)
    1ab8:	2442ffff 	addiu	v1,v1,-1
    1abc:	10510014 	beq	v1,s0,1b10 <__call_exitprocs+0x118>
    1ac0:	ae40ff80 	sw	zero,-128(s1)
    1ac4:	1020ffe8 	beqz	v0,1a68 <__call_exitprocs+0x70>
    1ac8:	8e630188 	lw	a0,392(s2)
    1acc:	02391004 	sllv	v1,s8,s0
    1ad0:	8e750004 	lw	s4,4(s2)
    1ad4:	00431824 	and	a0,v1,a0
    1ad8:	1060000b 	beqz	a0,1b08 <__call_exitprocs+0x110>
    1adc:	8e63018c 	lw	a0,396(s2)
    1ae0:	00431024 	and	v1,v1,a0
    1ae4:	1440000c 	bnez	v1,1b18 <__call_exitprocs+0x120>
    1ae8:	8e440000 	lw	a1,0(s1)
    1aec:	8fa30000 	lw	a0,0(sp)
    1af0:	0020f809 	jalr	v0
    1af4:	8e610004 	lw	v0,4(s2)
    1af8:	1435ffcf 	bne	v0,s4,1a38 <__call_exitprocs+0x40>
    1afc:	8f010000 	lw	v0,0(s7)
    1b00:	1433ffcd 	bne	v0,s2,1a38 <__call_exitprocs+0x40>
    1b04:	0800069a 	j	1a68 <__call_exitprocs+0x70>
    1b08:	0020f809 	jalr	v0
    1b0c:	080006bd 	j	1af4 <__call_exitprocs+0xfc>
    1b10:	ae710004 	sw	s0,4(s2)
    1b14:	080006b1 	j	1ac4 <__call_exitprocs+0xcc>
    1b18:	8e430000 	lw	a0,0(s1)
    1b1c:	0020f809 	jalr	v0
    1b20:	080006bd 	j	1af4 <__call_exitprocs+0xfc>
    1b24:	8e610004 	lw	v0,4(s2)
    1b28:	14200008 	bnez	v0,1b4c <__call_exitprocs+0x154>
    1b2c:	8e610000 	lw	v0,0(s2)
    1b30:	10200007 	beqz	v0,1b50 <__call_exitprocs+0x158>
    1b34:	02601821 	move	a0,s2
    1b38:	af010000 	sw	v0,0(s7)
    1b3c:	0c000000 	jal	0 <_ftext-0x1000>
    1b40:	8f130000 	lw	s2,0(s7)
    1b44:	1660ffbf 	bnez	s2,1a44 <__call_exitprocs+0x4c>
    1b48:	080006a0 	j	1a80 <__call_exitprocs+0x88>
    1b4c:	8e610000 	lw	v0,0(s2)
    1b50:	0260c021 	move	s7,s2
    1b54:	00209821 	move	s2,v0
    1b58:	1660ffba 	bnez	s2,1a44 <__call_exitprocs+0x4c>
    1b5c:	080006a0 	j	1a80 <__call_exitprocs+0x88>

00001b60 <hart_self>:
    1b60:	40018800 	mfc0	v0,c0_coreid
    1b64:	03e00008 	jr	ra

00001b68 <newlib_trylock>:
    1b68:	24010001 	li	v0,1
    1b6c:	9c610804 	amo.or	v0,a0,v0
    1b70:	03e00008 	jr	ra

00001b74 <newlib_lock>:
    1b74:	27bdfff8 	addiu	sp,sp,-8
    1b78:	afb10000 	sw	s0,0(sp)
    1b7c:	afbf0004 	sw	ra,4(sp)
    1b80:	00608821 	move	s0,a0
    1b84:	080006e4 	j	1b90 <newlib_lock+0x1c>
    1b88:	8e210000 	lw	v0,0(s0)
    1b8c:	1420fffe 	bnez	v0,1b88 <newlib_lock+0x14>
    1b90:	02201821 	move	a0,s0
    1b94:	0c0006da 	jal	1b68 <newlib_trylock>
    1b98:	1420fffb 	bnez	v0,1b88 <newlib_lock+0x14>
    1b9c:	8fbf0004 	lw	ra,4(sp)
    1ba0:	8fb10000 	lw	s0,0(sp)
    1ba4:	27bd0008 	addiu	sp,sp,8
    1ba8:	03e00008 	jr	ra

00001bac <newlib_is_locked>:
    1bac:	8c610000 	lw	v0,0(a0)
    1bb0:	03e00008 	jr	ra

00001bb4 <newlib_recursive_trylock>:
    1bb4:	27bdffe8 	addiu	sp,sp,-24
    1bb8:	afb3000c 	sw	s2,12(sp)
    1bbc:	24730004 	addiu	s2,a0,4
    1bc0:	afb40010 	sw	s3,16(sp)
    1bc4:	afb20008 	sw	s1,8(sp)
    1bc8:	afb10004 	sw	s0,4(sp)
    1bcc:	8c720000 	lw	s1,0(a0)
    1bd0:	00608821 	move	s0,a0
    1bd4:	afbf0014 	sw	ra,20(sp)
    1bd8:	0c0006d8 	jal	1b60 <hart_self>
    1bdc:	02601821 	move	a0,s2
    1be0:	0020a021 	move	s3,v0
    1be4:	0c0006eb 	jal	1bac <newlib_is_locked>
    1be8:	10200012 	beqz	v0,1c34 <newlib_recursive_trylock+0x80>
    1bec:	26820001 	addiu	v1,s3,1
    1bf0:	00120a02 	srl	v0,s1,0x8
    1bf4:	1441000f 	bne	v1,v0,1c34 <newlib_recursive_trylock+0x80>
    1bf8:	324200ff 	andi	v1,s1,0xff
    1bfc:	240100ff 	li	v0,255
    1c00:	14410002 	bne	v1,v0,1c0c <newlib_recursive_trylock+0x58>
    1c04:	3401ffff 	li	v0,0xffff
    1c08:	0000000c 	syscall
    1c0c:	26520001 	addiu	s1,s1,1
    1c10:	ae320000 	sw	s1,0(s0)
    1c14:	00000821 	move	v0,zero
    1c18:	8fbf0014 	lw	ra,20(sp)
    1c1c:	8fb40010 	lw	s3,16(sp)
    1c20:	8fb3000c 	lw	s2,12(sp)
    1c24:	8fb20008 	lw	s1,8(sp)
    1c28:	8fb10004 	lw	s0,4(sp)
    1c2c:	27bd0018 	addiu	sp,sp,24
    1c30:	03e00008 	jr	ra
    1c34:	02601821 	move	a0,s2
    1c38:	0c0006da 	jal	1b68 <newlib_trylock>
    1c3c:	14200005 	bnez	v0,1c54 <newlib_recursive_trylock+0xa0>
    1c40:	0014a200 	sll	s3,s3,0x8
    1c44:	26940101 	addiu	s3,s3,257
    1c48:	ae340000 	sw	s3,0(s0)
    1c4c:	00000821 	move	v0,zero
    1c50:	08000706 	j	1c18 <newlib_recursive_trylock+0x64>
    1c54:	2401ffff 	li	v0,-1
    1c58:	08000706 	j	1c18 <newlib_recursive_trylock+0x64>

00001c5c <newlib_recursive_lock>:
    1c5c:	27bdfff8 	addiu	sp,sp,-8
    1c60:	afb10000 	sw	s0,0(sp)
    1c64:	afbf0004 	sw	ra,4(sp)
    1c68:	00608821 	move	s0,a0
    1c6c:	0c0006ed 	jal	1bb4 <newlib_recursive_trylock>
    1c70:	10200006 	beqz	v0,1c8c <newlib_recursive_lock+0x30>
    1c74:	26230004 	addiu	a0,s0,4
    1c78:	0c0006dd 	jal	1b74 <newlib_lock>
    1c7c:	0c0006d8 	jal	1b60 <hart_self>
    1c80:	00010a00 	sll	v0,v0,0x8
    1c84:	24210101 	addiu	v0,v0,257
    1c88:	ae210000 	sw	v0,0(s0)
    1c8c:	8fbf0004 	lw	ra,4(sp)
    1c90:	8fb10000 	lw	s0,0(sp)
    1c94:	27bd0008 	addiu	sp,sp,8
    1c98:	03e00008 	jr	ra

00001c9c <newlib_recursive_unlock>:
    1c9c:	27bdfff0 	addiu	sp,sp,-16
    1ca0:	afb10000 	sw	s0,0(sp)
    1ca4:	00608821 	move	s0,a0
    1ca8:	afb30008 	sw	s2,8(sp)
    1cac:	afb20004 	sw	s1,4(sp)
    1cb0:	afbf000c 	sw	ra,12(sp)
    1cb4:	0c0006d8 	jal	1b60 <hart_self>
    1cb8:	26230004 	addiu	a0,s0,4
    1cbc:	00209821 	move	s2,v0
    1cc0:	8e320000 	lw	s1,0(s0)
    1cc4:	0c0006eb 	jal	1bac <newlib_is_locked>
    1cc8:	10200003 	beqz	v0,1cd8 <newlib_recursive_unlock+0x3c>
    1ccc:	26730001 	addiu	s2,s2,1
    1cd0:	00120a02 	srl	v0,s1,0x8
    1cd4:	12610008 	beq	s2,v0,1cf8 <newlib_recursive_unlock+0x5c>
    1cd8:	3401ffff 	li	v0,0xffff
    1cdc:	0000000c 	syscall
    1ce0:	8fbf000c 	lw	ra,12(sp)
    1ce4:	8fb30008 	lw	s2,8(sp)
    1ce8:	8fb20004 	lw	s1,4(sp)
    1cec:	8fb10000 	lw	s0,0(sp)
    1cf0:	27bd0010 	addiu	sp,sp,16
    1cf4:	03e00008 	jr	ra
    1cf8:	324200ff 	andi	v1,s1,0xff
    1cfc:	24010001 	li	v0,1
    1d00:	10410008 	beq	v1,v0,1d24 <newlib_recursive_unlock+0x88>
    1d04:	8fbf000c 	lw	ra,12(sp)
    1d08:	2652ffff 	addiu	s1,s1,-1
    1d0c:	ae320000 	sw	s1,0(s0)
    1d10:	8fb30008 	lw	s2,8(sp)
    1d14:	8fb20004 	lw	s1,4(sp)
    1d18:	8fb10000 	lw	s0,0(sp)
    1d1c:	27bd0010 	addiu	sp,sp,16
    1d20:	03e00008 	jr	ra
    1d24:	00001021 	move	v1,zero
    1d28:	00001821 	move	a0,zero
    1d2c:	ae220000 	sw	v1,0(s0)
    1d30:	ae230004 	sw	a0,4(s0)
    1d34:	08000738 	j	1ce0 <newlib_recursive_unlock+0x44>

00001d38 <__malloc_lock>:
    1d38:	27838028 	addiu	a0,gp,-32728
    1d3c:	08000717 	j	1c5c <newlib_recursive_lock>

00001d40 <__malloc_unlock>:
    1d40:	27838028 	addiu	a0,gp,-32728
    1d44:	08000727 	j	1c9c <newlib_recursive_unlock>

00001d48 <open>:
    1d48:	24010004 	li	v0,4
    1d4c:	0000000c 	syscall
    1d50:	24020001 	li	v1,1
    1d54:	10c20001 	beq	a3,v1,1d5c <open+0x14>
    1d58:	03e00008 	jr	ra
    1d5c:	3c020000 	lui	v1,0x0
    1d60:	ac4151a4 	sw	v0,20900(v1)
    1d64:	2401ffff 	li	v0,-1
    1d68:	03e00008 	jr	ra

00001d6c <lseek>:
    1d6c:	24010008 	li	v0,8
    1d70:	0000000c 	syscall
    1d74:	24020001 	li	v1,1
    1d78:	10c20001 	beq	a3,v1,1d80 <lseek+0x14>
    1d7c:	03e00008 	jr	ra
    1d80:	3c020000 	lui	v1,0x0
    1d84:	ac4151a4 	sw	v0,20900(v1)
    1d88:	2401ffff 	li	v0,-1
    1d8c:	03e00008 	jr	ra

00001d90 <read>:
    1d90:	24010002 	li	v0,2
    1d94:	0000000c 	syscall
    1d98:	24020001 	li	v1,1
    1d9c:	10c20001 	beq	a3,v1,1da4 <read+0x14>
    1da0:	03e00008 	jr	ra
    1da4:	3c020000 	lui	v1,0x0
    1da8:	ac4151a4 	sw	v0,20900(v1)
    1dac:	2401ffff 	li	v0,-1
    1db0:	03e00008 	jr	ra

00001db4 <write>:
    1db4:	24010003 	li	v0,3
    1db8:	0000000c 	syscall
    1dbc:	24020001 	li	v1,1
    1dc0:	10c20001 	beq	a3,v1,1dc8 <write+0x14>
    1dc4:	03e00008 	jr	ra
    1dc8:	3c020000 	lui	v1,0x0
    1dcc:	ac4151a4 	sw	v0,20900(v1)
    1dd0:	2401ffff 	li	v0,-1
    1dd4:	03e00008 	jr	ra

00001dd8 <fstat>:
    1dd8:	24010009 	li	v0,9
    1ddc:	0000000c 	syscall
    1de0:	24020001 	li	v1,1
    1de4:	10c20002 	beq	a3,v1,1df0 <fstat+0x18>
    1de8:	00000821 	move	v0,zero
    1dec:	03e00008 	jr	ra
    1df0:	3c020000 	lui	v1,0x0
    1df4:	ac4151a4 	sw	v0,20900(v1)
    1df8:	2401ffff 	li	v0,-1
    1dfc:	03e00008 	jr	ra

00001e00 <stat>:
    1e00:	2401000a 	li	v0,10
    1e04:	0000000c 	syscall
    1e08:	24020001 	li	v1,1
    1e0c:	10c20002 	beq	a3,v1,1e18 <stat+0x18>
    1e10:	00000821 	move	v0,zero
    1e14:	03e00008 	jr	ra
    1e18:	3c020000 	lui	v1,0x0
    1e1c:	ac4151a4 	sw	v0,20900(v1)
    1e20:	2401ffff 	li	v0,-1
    1e24:	03e00008 	jr	ra

00001e28 <close>:
    1e28:	24010005 	li	v0,5
    1e2c:	0000000c 	syscall
    1e30:	24020001 	li	v1,1
    1e34:	10c20002 	beq	a3,v1,1e40 <close+0x18>
    1e38:	00000821 	move	v0,zero
    1e3c:	03e00008 	jr	ra
    1e40:	3c020000 	lui	v1,0x0
    1e44:	ac4151a4 	sw	v0,20900(v1)
    1e48:	2401ffff 	li	v0,-1
    1e4c:	03e00008 	jr	ra

00001e50 <link>:
    1e50:	24010006 	li	v0,6
    1e54:	0000000c 	syscall
    1e58:	24020001 	li	v1,1
    1e5c:	10c20002 	beq	a3,v1,1e68 <link+0x18>
    1e60:	00000821 	move	v0,zero
    1e64:	03e00008 	jr	ra
    1e68:	3c020000 	lui	v1,0x0
    1e6c:	ac4151a4 	sw	v0,20900(v1)
    1e70:	2401ffff 	li	v0,-1
    1e74:	03e00008 	jr	ra

00001e78 <unlink>:
    1e78:	24010007 	li	v0,7
    1e7c:	0000000c 	syscall
    1e80:	24020001 	li	v1,1
    1e84:	10c20002 	beq	a3,v1,1e90 <unlink+0x18>
    1e88:	00000821 	move	v0,zero
    1e8c:	03e00008 	jr	ra
    1e90:	3c020000 	lui	v1,0x0
    1e94:	ac4151a4 	sw	v0,20900(v1)
    1e98:	2401ffff 	li	v0,-1
    1e9c:	03e00008 	jr	ra

00001ea0 <execve>:
    1ea0:	2402000c 	li	v1,12
    1ea4:	3c010000 	lui	v0,0x0
    1ea8:	ac2251a4 	sw	v1,20900(v0)
    1eac:	2401ffff 	li	v0,-1
    1eb0:	03e00008 	jr	ra

00001eb4 <fork>:
    1eb4:	2402000b 	li	v1,11
    1eb8:	3c010000 	lui	v0,0x0
    1ebc:	ac2251a4 	sw	v1,20900(v0)
    1ec0:	2401ffff 	li	v0,-1
    1ec4:	03e00008 	jr	ra

00001ec8 <getpid>:
    1ec8:	24010001 	li	v0,1
    1ecc:	03e00008 	jr	ra

00001ed0 <kill>:
    1ed0:	24020016 	li	v1,22
    1ed4:	3c010000 	lui	v0,0x0
    1ed8:	ac2251a4 	sw	v1,20900(v0)
    1edc:	2401ffff 	li	v0,-1
    1ee0:	03e00008 	jr	ra

00001ee4 <wait>:
    1ee4:	2402000a 	li	v1,10
    1ee8:	3c010000 	lui	v0,0x0
    1eec:	ac2251a4 	sw	v1,20900(v0)
    1ef0:	2401ffff 	li	v0,-1
    1ef4:	03e00008 	jr	ra

00001ef8 <isatty>:
    1ef8:	24010001 	li	v0,1
    1efc:	03e00008 	jr	ra

00001f00 <sbrk>:
    1f00:	3c020000 	lui	v1,0x0
    1f04:	8c4151c8 	lw	v0,20936(v1)
    1f08:	10200003 	beqz	v0,1f18 <sbrk+0x18>
    1f0c:	00231821 	addu	a0,v0,a0
    1f10:	ac4351c8 	sw	a0,20936(v1)
    1f14:	03e00008 	jr	ra
    1f18:	3c010001 	lui	v0,0x1
    1f1c:	242161f8 	addiu	v0,v0,25080
    1f20:	00231821 	addu	a0,v0,a0
    1f24:	ac4151c8 	sw	v0,20936(v1)
    1f28:	ac4351c8 	sw	a0,20936(v1)
    1f2c:	03e00008 	jr	ra

00001f30 <_exit>:
    1f30:	24010001 	li	v0,1
    1f34:	0000000c 	syscall
    1f38:	080007ce 	j	1f38 <_exit+0x8>

00001f3c <times>:
    1f3c:	27bdfff8 	addiu	sp,sp,-8
    1f40:	afbf0004 	sw	ra,4(sp)
    1f44:	afb10000 	sw	s0,0(sp)
    1f48:	00608821 	move	s0,a0
    1f4c:	0c0007eb 	jal	1fac <get_cycles>
    1f50:	00401821 	move	a0,v1
    1f54:	00602021 	move	a1,a0
    1f58:	240503e8 	li	a2,1000
    1f5c:	00201821 	move	a0,v0
    1f60:	00003021 	move	a3,zero
    1f64:	0c0007fc 	jal	1ff0 <__divdi3>
    1f68:	8fbf0004 	lw	ra,4(sp)
    1f6c:	00401821 	move	a0,v1
    1f70:	ae230004 	sw	a0,4(s0)
    1f74:	00001021 	move	v1,zero
    1f78:	00001821 	move	a0,zero
    1f7c:	ae210000 	sw	v0,0(s0)
    1f80:	ae220018 	sw	v1,24(s0)
    1f84:	ae220008 	sw	v1,8(s0)
    1f88:	ae220010 	sw	v1,16(s0)
    1f8c:	ae23001c 	sw	a0,28(s0)
    1f90:	ae23000c 	sw	a0,12(s0)
    1f94:	ae230014 	sw	a0,20(s0)
    1f98:	00000821 	move	v0,zero
    1f9c:	00001021 	move	v1,zero
    1fa0:	8fb10000 	lw	s0,0(sp)
    1fa4:	27bd0008 	addiu	sp,sp,8
    1fa8:	03e00008 	jr	ra

00001fac <get_cycles>:
    1fac:	40044800 	mfc0	a1,c0_count
    1fb0:	4006c800 	mfc0	a3,c0_counthi
    1fb4:	40014800 	mfc0	v0,c0_count
    1fb8:	4005c800 	mfc0	a2,c0_counthi
    1fbc:	000117c3 	sra	v1,v0,0x1f
    1fc0:	00041fc3 	sra	a0,a1,0x1f
    1fc4:	00c31825 	or	a0,a3,a0
    1fc8:	00a21025 	or	v1,a2,v1
    1fcc:	0062282a 	slt	a2,a0,v1
    1fd0:	14a00004 	bnez	a2,1fe4 <get_cycles+0x38>
    1fd4:	10430001 	beq	v1,a0,1fdc <get_cycles+0x30>
    1fd8:	03e00008 	jr	ra
    1fdc:	0081282b 	sltu	a2,a1,v0
    1fe0:	10a0fffd 	beqz	a2,1fd8 <get_cycles+0x2c>
    1fe4:	00800821 	move	v0,a1
    1fe8:	00601021 	move	v1,a0
    1fec:	03e00008 	jr	ra

00001ff0 <__divdi3>:
    1ff0:	00c01021 	move	v1,a3
    1ff4:	0480009f 	bltz	a1,2274 <__divdi3+0x284>
    1ff8:	00003821 	move	a4,zero
    1ffc:	04400097 	bltz	v1,225c <__divdi3+0x26c>
    2000:	00801021 	move	v1,a1
    2004:	14c00041 	bnez	a3,210c <__divdi3+0x11c>
    2008:	0085082b 	sltu	v0,a1,a2
    200c:	10200044 	beqz	v0,2120 <__divdi3+0x130>
    2010:	3c010001 	lui	v0,0x1
    2014:	00a1082b 	sltu	v0,a2,v0
    2018:	142000a1 	bnez	v0,22a0 <__divdi3+0x2b0>
    201c:	3c010100 	lui	v0,0x100
    2020:	00a1082b 	sltu	v0,a2,v0
    2024:	14200121 	bnez	v0,24ac <__divdi3+0x4bc>
    2028:	24080018 	li	a5,24
    202c:	24060018 	li	a3,24
    2030:	3c010000 	lui	v0,0x0
    2034:	01054006 	srlv	a5,a2,a5
    2038:	242133cc 	addiu	v0,v0,13260
    203c:	01010821 	addu	v0,a5,v0
    2040:	90210000 	lbu	v0,0(v0)
    2044:	00263021 	addu	a3,v0,a3
    2048:	24010020 	li	v0,32
    204c:	00260823 	subu	v0,v0,a3
    2050:	10200005 	beqz	v0,2068 <__divdi3+0x78>
    2054:	00c33006 	srlv	a3,a0,a3
    2058:	00242004 	sllv	a1,a1,v0
    205c:	00861025 	or	v1,a1,a3
    2060:	00231804 	sllv	a0,a0,v0
    2064:	00252804 	sllv	a2,a2,v0
    2068:	00053402 	srl	a3,a2,0x10
    206c:	9c460807 	divu	v0,v1,a3
    2070:	30a9ffff 	andi	a6,a2,0xffff
    2074:	00035402 	srl	a7,a0,0x10
    2078:	9c461008 	remu	v1,v1,a3
    207c:	70294002 	mul	a5,v0,a6
    2080:	00021400 	sll	v1,v1,0x10
    2084:	004a1025 	or	v1,v1,a7
    2088:	0048202b 	sltu	a1,v1,a5
    208c:	10800006 	beqz	a1,20a8 <__divdi3+0xb8>
    2090:	00451021 	addu	v1,v1,a2
    2094:	0045202b 	sltu	a1,v1,a2
    2098:	2421ffff 	addiu	v0,v0,-1
    209c:	14800002 	bnez	a1,20a8 <__divdi3+0xb8>
    20a0:	0048202b 	sltu	a1,v1,a5
    20a4:	14800115 	bnez	a1,24fc <__divdi3+0x50c>
    20a8:	00481023 	subu	v1,v1,a5
    20ac:	9c462007 	divu	a1,v1,a3
    20b0:	3063ffff 	andi	a0,a0,0xffff
    20b4:	9c461008 	remu	v1,v1,a3
    20b8:	70894802 	mul	a6,a1,a6
    20bc:	00021400 	sll	v1,v1,0x10
    20c0:	00431825 	or	a0,v1,a0
    20c4:	0069102b 	sltu	v1,a0,a6
    20c8:	10400007 	beqz	v1,20e8 <__divdi3+0xf8>
    20cc:	00651821 	addu	a0,a0,a2
    20d0:	0065282b 	sltu	a2,a0,a2
    20d4:	2484ffff 	addiu	a1,a1,-1
    20d8:	14a00003 	bnez	a2,20e8 <__divdi3+0xf8>
    20dc:	0069182b 	sltu	a0,a0,a6
    20e0:	10600001 	beqz	a0,20e8 <__divdi3+0xf8>
    20e4:	2484ffff 	addiu	a1,a1,-1
    20e8:	00010c00 	sll	v0,v0,0x10
    20ec:	00810825 	or	v0,a1,v0
    20f0:	00001021 	move	v1,zero
    20f4:	10e00004 	beqz	a4,2108 <__divdi3+0x118>
    20f8:	00010823 	negu	v0,v0
    20fc:	00021023 	negu	v1,v1
    2100:	0001182b 	sltu	a0,zero,v0
    2104:	00431023 	subu	v1,v1,a0
    2108:	03e00008 	jr	ra
    210c:	0086082b 	sltu	v0,a1,a3
    2110:	1020003a 	beqz	v0,21fc <__divdi3+0x20c>
    2114:	00001021 	move	v1,zero
    2118:	00000821 	move	v0,zero
    211c:	0800083d 	j	20f4 <__divdi3+0x104>
    2120:	10a00064 	beqz	a2,22b4 <__divdi3+0x2c4>
    2124:	3c010001 	lui	v0,0x1
    2128:	00a1082b 	sltu	v0,a2,v0
    212c:	142000f6 	bnez	v0,2508 <__divdi3+0x518>
    2130:	3c010100 	lui	v0,0x100
    2134:	00a1082b 	sltu	v0,a2,v0
    2138:	142000d9 	bnez	v0,24a0 <__divdi3+0x4b0>
    213c:	24020018 	li	v1,24
    2140:	24080018 	li	a5,24
    2144:	3c010000 	lui	v0,0x0
    2148:	00451006 	srlv	v1,a2,v1
    214c:	242133cc 	addiu	v0,v0,13260
    2150:	00410821 	addu	v0,v1,v0
    2154:	90210000 	lbu	v0,0(v0)
    2158:	00284021 	addu	a5,v0,a5
    215c:	24010020 	li	v0,32
    2160:	00280823 	subu	v0,v0,a5
    2164:	14200098 	bnez	v0,23c8 <__divdi3+0x3d8>
    2168:	00854023 	subu	a5,a1,a2
    216c:	00053402 	srl	a3,a2,0x10
    2170:	30a9ffff 	andi	a6,a2,0xffff
    2174:	24020001 	li	v1,1
    2178:	9d060807 	divu	v0,a5,a3
    217c:	00035402 	srl	a7,a0,0x10
    2180:	9d062008 	remu	a1,a5,a3
    2184:	70294002 	mul	a5,v0,a6
    2188:	00042400 	sll	a1,a1,0x10
    218c:	008a2025 	or	a1,a1,a7
    2190:	0088502b 	sltu	a7,a1,a5
    2194:	11400006 	beqz	a7,21b0 <__divdi3+0x1c0>
    2198:	00852021 	addu	a1,a1,a2
    219c:	0085502b 	sltu	a7,a1,a2
    21a0:	2421ffff 	addiu	v0,v0,-1
    21a4:	15400002 	bnez	a7,21b0 <__divdi3+0x1c0>
    21a8:	0088502b 	sltu	a7,a1,a5
    21ac:	154000d0 	bnez	a7,24f0 <__divdi3+0x500>
    21b0:	00882023 	subu	a1,a1,a5
    21b4:	9c864007 	divu	a5,a1,a3
    21b8:	3063ffff 	andi	a0,a0,0xffff
    21bc:	9c862008 	remu	a1,a1,a3
    21c0:	71094802 	mul	a6,a5,a6
    21c4:	00042400 	sll	a1,a1,0x10
    21c8:	00831825 	or	a0,a1,a0
    21cc:	0069202b 	sltu	a1,a0,a6
    21d0:	10800007 	beqz	a1,21f0 <__divdi3+0x200>
    21d4:	00651821 	addu	a0,a0,a2
    21d8:	0065282b 	sltu	a2,a0,a2
    21dc:	2508ffff 	addiu	a5,a5,-1
    21e0:	14a00003 	bnez	a2,21f0 <__divdi3+0x200>
    21e4:	0069182b 	sltu	a0,a0,a6
    21e8:	10600001 	beqz	a0,21f0 <__divdi3+0x200>
    21ec:	2508ffff 	addiu	a5,a5,-1
    21f0:	00010c00 	sll	v0,v0,0x10
    21f4:	01010825 	or	v0,a5,v0
    21f8:	0800083d 	j	20f4 <__divdi3+0x104>
    21fc:	3c010001 	lui	v0,0x1
    2200:	00c1082b 	sltu	v0,a3,v0
    2204:	14200021 	bnez	v0,228c <__divdi3+0x29c>
    2208:	3c010100 	lui	v0,0x100
    220c:	00c1082b 	sltu	v0,a3,v0
    2210:	142000a9 	bnez	v0,24b8 <__divdi3+0x4c8>
    2214:	24020018 	li	v1,24
    2218:	24080018 	li	a5,24
    221c:	3c010000 	lui	v0,0x0
    2220:	00461006 	srlv	v1,a3,v1
    2224:	242133cc 	addiu	v0,v0,13260
    2228:	00410821 	addu	v0,v1,v0
    222c:	90210000 	lbu	v0,0(v0)
    2230:	24020020 	li	v1,32
    2234:	00284021 	addu	a5,v0,a5
    2238:	00481023 	subu	v1,v1,a5
    223c:	14400022 	bnez	v1,22c8 <__divdi3+0x2d8>
    2240:	00c4202b 	sltu	a1,a3,a1
    2244:	14800002 	bnez	a1,2250 <__divdi3+0x260>
    2248:	0065182b 	sltu	a0,a0,a2
    224c:	1460ffb1 	bnez	a0,2114 <__divdi3+0x124>
    2250:	00001021 	move	v1,zero
    2254:	24010001 	li	v0,1
    2258:	0800083d 	j	20f4 <__divdi3+0x104>
    225c:	00052823 	negu	a2,a2
    2260:	00063023 	negu	a3,a3
    2264:	0005082b 	sltu	v0,zero,a2
    2268:	00c13023 	subu	a3,a3,v0
    226c:	00073827 	nor	a4,zero,a4
    2270:	08000800 	j	2000 <__divdi3+0x10>
    2274:	00031823 	negu	a0,a0
    2278:	00042023 	negu	a1,a1
    227c:	0003082b 	sltu	v0,zero,a0
    2280:	00812023 	subu	a1,a1,v0
    2284:	2407ffff 	li	a4,-1
    2288:	080007ff 	j	1ffc <__divdi3+0xc>
    228c:	2cc10100 	sltiu	v0,a3,256
    2290:	1420008f 	bnez	v0,24d0 <__divdi3+0x4e0>
    2294:	24020008 	li	v1,8
    2298:	24080008 	li	a5,8
    229c:	08000887 	j	221c <__divdi3+0x22c>
    22a0:	2ca10100 	sltiu	v0,a2,256
    22a4:	14200087 	bnez	v0,24c4 <__divdi3+0x4d4>
    22a8:	24080008 	li	a5,8
    22ac:	24060008 	li	a3,8
    22b0:	0800080c 	j	2030 <__divdi3+0x40>
    22b4:	24050001 	li	a2,1
    22b8:	9ca62807 	divu	a2,a2,a3
    22bc:	00001021 	move	v1,zero
    22c0:	00004021 	move	a5,zero
    22c4:	08000851 	j	2144 <__divdi3+0x154>
    22c8:	01050806 	srlv	v0,a2,a5
    22cc:	00463004 	sllv	a3,a3,v1
    22d0:	00c13025 	or	a3,a3,v0
    22d4:	01045806 	srlv	t4,a1,a5
    22d8:	00064c02 	srl	a6,a3,0x10
    22dc:	9d690807 	divu	v0,t4,a6
    22e0:	30ccffff 	andi	t5,a3,0xffff
    22e4:	01034006 	srlv	a5,a0,a5
    22e8:	00442004 	sllv	a1,a1,v1
    22ec:	00882025 	or	a1,a1,a5
    22f0:	00044402 	srl	a5,a1,0x10
    22f4:	00452804 	sllv	a2,a2,v1
    22f8:	9d695008 	remu	a7,t4,a6
    22fc:	702c5802 	mul	t4,v0,t5
    2300:	000a5400 	sll	a7,a7,0x10
    2304:	01485025 	or	a7,a7,a5
    2308:	014b402b 	sltu	a5,a7,t4
    230c:	11000008 	beqz	a5,2330 <__divdi3+0x340>
    2310:	01465021 	addu	a7,a7,a3
    2314:	0146402b 	sltu	a5,a7,a3
    2318:	2421ffff 	addiu	v0,v0,-1
    231c:	15000004 	bnez	a5,2330 <__divdi3+0x340>
    2320:	014b402b 	sltu	a5,a7,t4
    2324:	11000002 	beqz	a5,2330 <__divdi3+0x340>
    2328:	2421ffff 	addiu	v0,v0,-1
    232c:	01465021 	addu	a7,a7,a3
    2330:	014b5023 	subu	a7,a7,t4
    2334:	9d495807 	divu	t4,a7,a6
    2338:	3084ffff 	andi	a1,a1,0xffff
    233c:	9d494808 	remu	a6,a7,a6
    2340:	716c6002 	mul	t5,t4,t5
    2344:	00094c00 	sll	a6,a6,0x10
    2348:	01244825 	or	a6,a6,a1
    234c:	012c202b 	sltu	a1,a6,t5
    2350:	10800004 	beqz	a1,2364 <__divdi3+0x374>
    2354:	01264821 	addu	a6,a6,a3
    2358:	0126202b 	sltu	a1,a6,a3
    235c:	256bffff 	addiu	t4,t4,-1
    2360:	1080005e 	beqz	a1,24dc <__divdi3+0x4ec>
    2364:	00010c00 	sll	v0,v0,0x10
    2368:	01610825 	or	v0,t4,v0
    236c:	00054402 	srl	a5,a2,0x10
    2370:	302bffff 	andi	t4,v0,0xffff
    2374:	00015402 	srl	a7,v0,0x10
    2378:	71682002 	mul	a1,t4,a5
    237c:	30a5ffff 	andi	a2,a2,0xffff
    2380:	012c4823 	subu	a6,a6,t5
    2384:	71453002 	mul	a3,a7,a2
    2388:	71652802 	mul	a2,t4,a2
    238c:	00c42021 	addu	a1,a3,a1
    2390:	00055c02 	srl	t4,a2,0x10
    2394:	71484002 	mul	a5,a7,a5
    2398:	008b2021 	addu	a1,a1,t4
    239c:	0086302b 	sltu	a3,a1,a3
    23a0:	10c00002 	beqz	a3,23ac <__divdi3+0x3bc>
    23a4:	3c060001 	lui	a3,0x1
    23a8:	01064021 	addu	a5,a5,a3
    23ac:	00045402 	srl	a7,a1,0x10
    23b0:	010a4021 	addu	a5,a5,a7
    23b4:	0128302b 	sltu	a3,a6,a5
    23b8:	14c00036 	bnez	a3,2494 <__divdi3+0x4a4>
    23bc:	1128002f 	beq	a6,a5,247c <__divdi3+0x48c>
    23c0:	00001021 	move	v1,zero
    23c4:	0800083d 	j	20f4 <__divdi3+0x104>
    23c8:	00252804 	sllv	a2,a2,v0
    23cc:	01045806 	srlv	t4,a1,a5
    23d0:	00053402 	srl	a3,a2,0x10
    23d4:	9d661007 	divu	v1,t4,a3
    23d8:	30a9ffff 	andi	a6,a2,0xffff
    23dc:	00242004 	sllv	a1,a1,v0
    23e0:	01034006 	srlv	a5,a0,a5
    23e4:	00884025 	or	a5,a1,a5
    23e8:	00082402 	srl	a1,a5,0x10
    23ec:	9d665008 	remu	a7,t4,a3
    23f0:	70495802 	mul	t4,v1,a6
    23f4:	000a5400 	sll	a7,a7,0x10
    23f8:	01445025 	or	a7,a7,a1
    23fc:	014b202b 	sltu	a1,a7,t4
    2400:	10800008 	beqz	a1,2424 <__divdi3+0x434>
    2404:	01455021 	addu	a7,a7,a2
    2408:	0145202b 	sltu	a1,a7,a2
    240c:	2442ffff 	addiu	v1,v1,-1
    2410:	14800004 	bnez	a1,2424 <__divdi3+0x434>
    2414:	014b202b 	sltu	a1,a7,t4
    2418:	10800002 	beqz	a1,2424 <__divdi3+0x434>
    241c:	2442ffff 	addiu	v1,v1,-1
    2420:	01455021 	addu	a7,a7,a2
    2424:	014b5023 	subu	a7,a7,t4
    2428:	9d465807 	divu	t4,a7,a3
    242c:	3108ffff 	andi	a5,a5,0xffff
    2430:	9d465008 	remu	a7,a7,a3
    2434:	71692002 	mul	a1,t4,a6
    2438:	000a5400 	sll	a7,a7,0x10
    243c:	01484025 	or	a5,a7,a5
    2440:	0104502b 	sltu	a7,a5,a1
    2444:	11400008 	beqz	a7,2468 <__divdi3+0x478>
    2448:	01054021 	addu	a5,a5,a2
    244c:	0105502b 	sltu	a7,a5,a2
    2450:	256bffff 	addiu	t4,t4,-1
    2454:	15400004 	bnez	a7,2468 <__divdi3+0x478>
    2458:	0104502b 	sltu	a7,a5,a1
    245c:	11400002 	beqz	a7,2468 <__divdi3+0x478>
    2460:	256bffff 	addiu	t4,t4,-1
    2464:	01054021 	addu	a5,a5,a2
    2468:	00021400 	sll	v1,v1,0x10
    246c:	00231804 	sllv	a0,a0,v0
    2470:	01044023 	subu	a5,a5,a1
    2474:	01621025 	or	v1,t4,v1
    2478:	0800085e 	j	2178 <__divdi3+0x188>
    247c:	00042400 	sll	a1,a1,0x10
    2480:	30a5ffff 	andi	a2,a2,0xffff
    2484:	00431004 	sllv	v1,a0,v1
    2488:	00852021 	addu	a1,a1,a2
    248c:	0044102b 	sltu	v1,v1,a1
    2490:	1040ff18 	beqz	v1,20f4 <__divdi3+0x104>
    2494:	2421ffff 	addiu	v0,v0,-1
    2498:	00001021 	move	v1,zero
    249c:	0800083d 	j	20f4 <__divdi3+0x104>
    24a0:	24020010 	li	v1,16
    24a4:	24080010 	li	a5,16
    24a8:	08000851 	j	2144 <__divdi3+0x154>
    24ac:	24080010 	li	a5,16
    24b0:	24060010 	li	a3,16
    24b4:	0800080c 	j	2030 <__divdi3+0x40>
    24b8:	24020010 	li	v1,16
    24bc:	24080010 	li	a5,16
    24c0:	08000887 	j	221c <__divdi3+0x22c>
    24c4:	00004021 	move	a5,zero
    24c8:	00003021 	move	a3,zero
    24cc:	0800080c 	j	2030 <__divdi3+0x40>
    24d0:	00001021 	move	v1,zero
    24d4:	00004021 	move	a5,zero
    24d8:	08000887 	j	221c <__divdi3+0x22c>
    24dc:	012c202b 	sltu	a1,a6,t5
    24e0:	1080ffa0 	beqz	a1,2364 <__divdi3+0x374>
    24e4:	01264821 	addu	a6,a6,a3
    24e8:	256bffff 	addiu	t4,t4,-1
    24ec:	080008d9 	j	2364 <__divdi3+0x374>
    24f0:	2421ffff 	addiu	v0,v0,-1
    24f4:	00852021 	addu	a1,a1,a2
    24f8:	0800086c 	j	21b0 <__divdi3+0x1c0>
    24fc:	2421ffff 	addiu	v0,v0,-1
    2500:	00451021 	addu	v1,v1,a2
    2504:	0800082a 	j	20a8 <__divdi3+0xb8>
    2508:	2ca10100 	sltiu	v0,a2,256
    250c:	1420ff6b 	bnez	v0,22bc <__divdi3+0x2cc>
    2510:	24020008 	li	v1,8
    2514:	24080008 	li	a5,8
    2518:	08000851 	j	2144 <__divdi3+0x154>

0000251c <_wrapup_reent>:
    251c:	27bdffe8 	addiu	sp,sp,-24
    2520:	afb40010 	sw	s3,16(sp)
    2524:	afbf0014 	sw	ra,20(sp)
    2528:	afb3000c 	sw	s2,12(sp)
    252c:	afb20008 	sw	s1,8(sp)
    2530:	afb10004 	sw	s0,4(sp)
    2534:	0060a021 	move	s3,a0
    2538:	10600020 	beqz	a0,25bc <_wrapup_reent+0xa0>
    253c:	8e930148 	lw	s2,328(s3)
    2540:	1260000d 	beqz	s2,2578 <_wrapup_reent+0x5c>
    2544:	8e620004 	lw	v1,4(s2)
    2548:	2451ffff 	addiu	s0,v1,-1
    254c:	06200008 	bltz	s0,2570 <_wrapup_reent+0x54>
    2550:	24520001 	addiu	s1,v1,1
    2554:	00129080 	sll	s1,s1,0x2
    2558:	02729021 	addu	s1,s2,s1
    255c:	8e420000 	lw	v1,0(s1)
    2560:	2631ffff 	addiu	s0,s0,-1
    2564:	2652fffc 	addiu	s1,s1,-4
    2568:	0040f809 	jalr	v1
    256c:	0621fffb 	bgez	s0,255c <_wrapup_reent+0x40>
    2570:	8e730000 	lw	s2,0(s2)
    2574:	1660fff3 	bnez	s2,2544 <_wrapup_reent+0x28>
    2578:	8e90003c 	lw	t9,60(s3)
    257c:	12000008 	beqz	t9,25a0 <_wrapup_reent+0x84>
    2580:	02801821 	move	a0,s3
    2584:	8fbf0014 	lw	ra,20(sp)
    2588:	8fb40010 	lw	s3,16(sp)
    258c:	8fb3000c 	lw	s2,12(sp)
    2590:	8fb20008 	lw	s1,8(sp)
    2594:	8fb10004 	lw	s0,4(sp)
    2598:	27bd0018 	addiu	sp,sp,24
    259c:	02000008 	jr	t9
    25a0:	8fbf0014 	lw	ra,20(sp)
    25a4:	8fb40010 	lw	s3,16(sp)
    25a8:	8fb3000c 	lw	s2,12(sp)
    25ac:	8fb20008 	lw	s1,8(sp)
    25b0:	8fb10004 	lw	s0,4(sp)
    25b4:	27bd0018 	addiu	sp,sp,24
    25b8:	03e00008 	jr	ra
    25bc:	0c000ac4 	jal	2b10 <__getreent>
    25c0:	0020a021 	move	s3,v0
    25c4:	0800094f 	j	253c <_wrapup_reent+0x20>

000025c8 <cleanup_glue>:
    25c8:	27bdfff0 	addiu	sp,sp,-16
    25cc:	afb10004 	sw	s0,4(sp)
    25d0:	00808821 	move	s0,a1
    25d4:	8c840000 	lw	a1,0(a1)
    25d8:	afb20008 	sw	s1,8(sp)
    25dc:	afbf000c 	sw	ra,12(sp)
    25e0:	00609021 	move	s1,a0
    25e4:	10800001 	beqz	a1,25ec <cleanup_glue+0x24>
    25e8:	0c000972 	jal	25c8 <cleanup_glue>
    25ec:	02401821 	move	a0,s1
    25f0:	02202021 	move	a1,s0
    25f4:	8fbf000c 	lw	ra,12(sp)
    25f8:	8fb20008 	lw	s1,8(sp)
    25fc:	8fb10004 	lw	s0,4(sp)
    2600:	27bd0010 	addiu	sp,sp,16
    2604:	08000a10 	j	2840 <_free_r>

00002608 <_reclaim_reent>:
    2608:	8f81800c 	lw	v0,-32756(gp)
    260c:	27bdffe8 	addiu	sp,sp,-24
    2610:	afb20008 	sw	s1,8(sp)
    2614:	afbf0014 	sw	ra,20(sp)
    2618:	afb40010 	sw	s3,16(sp)
    261c:	afb3000c 	sw	s2,12(sp)
    2620:	afb10004 	sw	s0,4(sp)
    2624:	00609021 	move	s1,a0
    2628:	10610026 	beq	a0,v0,26c4 <_reclaim_reent+0xbc>
    262c:	8c61004c 	lw	v0,76(a0)
    2630:	10200010 	beqz	v0,2674 <_reclaim_reent+0x6c>
    2634:	00009821 	move	s2,zero
    2638:	2414003c 	li	s3,60
    263c:	00331021 	addu	v1,v0,s2
    2640:	8c440000 	lw	a1,0(v1)
    2644:	10800006 	beqz	a1,2660 <_reclaim_reent+0x58>
    2648:	8c910000 	lw	s0,0(a1)
    264c:	02401821 	move	a0,s1
    2650:	0c000a10 	jal	2840 <_free_r>
    2654:	02202021 	move	a1,s0
    2658:	1620fffb 	bnez	s0,2648 <_reclaim_reent+0x40>
    265c:	8e41004c 	lw	v0,76(s1)
    2660:	26730004 	addiu	s2,s2,4
    2664:	1674fff5 	bne	s2,s3,263c <_reclaim_reent+0x34>
    2668:	00202021 	move	a1,v0
    266c:	02401821 	move	a0,s1
    2670:	0c000a10 	jal	2840 <_free_r>
    2674:	8e440040 	lw	a1,64(s1)
    2678:	10800002 	beqz	a1,2684 <_reclaim_reent+0x7c>
    267c:	02401821 	move	a0,s1
    2680:	0c000a10 	jal	2840 <_free_r>
    2684:	8e440148 	lw	a1,328(s1)
    2688:	10800008 	beqz	a1,26ac <_reclaim_reent+0xa4>
    268c:	2653014c 	addiu	s2,s1,332
    2690:	14930002 	bne	a1,s2,269c <_reclaim_reent+0x94>
    2694:	080009ab 	j	26ac <_reclaim_reent+0xa4>
    2698:	02202021 	move	a1,s0
    269c:	8c910000 	lw	s0,0(a1)
    26a0:	02401821 	move	a0,s1
    26a4:	0c000a10 	jal	2840 <_free_r>
    26a8:	1671fffb 	bne	s2,s0,2698 <_reclaim_reent+0x90>
    26ac:	8e440054 	lw	a1,84(s1)
    26b0:	10800002 	beqz	a1,26bc <_reclaim_reent+0xb4>
    26b4:	02401821 	move	a0,s1
    26b8:	0c000a10 	jal	2840 <_free_r>
    26bc:	8e410038 	lw	v0,56(s1)
    26c0:	14200007 	bnez	v0,26e0 <_reclaim_reent+0xd8>
    26c4:	8fbf0014 	lw	ra,20(sp)
    26c8:	8fb40010 	lw	s3,16(sp)
    26cc:	8fb3000c 	lw	s2,12(sp)
    26d0:	8fb20008 	lw	s1,8(sp)
    26d4:	8fb10004 	lw	s0,4(sp)
    26d8:	27bd0018 	addiu	sp,sp,24
    26dc:	03e00008 	jr	ra
    26e0:	8e41003c 	lw	v0,60(s1)
    26e4:	02401821 	move	a0,s1
    26e8:	0020f809 	jalr	v0
    26ec:	8e4402e0 	lw	a1,736(s1)
    26f0:	1080fff4 	beqz	a1,26c4 <_reclaim_reent+0xbc>
    26f4:	02401821 	move	a0,s1
    26f8:	8fbf0014 	lw	ra,20(sp)
    26fc:	8fb40010 	lw	s3,16(sp)
    2700:	8fb3000c 	lw	s2,12(sp)
    2704:	8fb20008 	lw	s1,8(sp)
    2708:	8fb10004 	lw	s0,4(sp)
    270c:	27bd0018 	addiu	sp,sp,24
    2710:	08000972 	j	25c8 <cleanup_glue>

00002714 <_malloc_trim_r>:
    2714:	27bdffe8 	addiu	sp,sp,-24
    2718:	afb20008 	sw	s1,8(sp)
    271c:	3c120000 	lui	s1,0x0
    2720:	26524d60 	addiu	s1,s1,19808
    2724:	afb40010 	sw	s3,16(sp)
    2728:	afb3000c 	sw	s2,12(sp)
    272c:	afb10004 	sw	s0,4(sp)
    2730:	0080a021 	move	s3,a1
    2734:	afbf0014 	sw	ra,20(sp)
    2738:	00608821 	move	s0,a0
    273c:	0c00074e 	jal	1d38 <__malloc_lock>
    2740:	8e410008 	lw	v0,8(s1)
    2744:	8c330004 	lw	s2,4(v0)
    2748:	2401fffc 	li	v0,-4
    274c:	02619824 	and	s2,s2,v0
    2750:	26610fef 	addiu	v0,s2,4079
    2754:	0034a023 	subu	s3,v0,s3
    2758:	0014a302 	srl	s3,s3,0xc
    275c:	2694ffff 	addiu	s3,s3,-1
    2760:	0014a300 	sll	s3,s3,0xc
    2764:	2a811000 	slti	v0,s3,4096
    2768:	14200006 	bnez	v0,2784 <_malloc_trim_r+0x70>
    276c:	02201821 	move	a0,s0
    2770:	00002021 	move	a1,zero
    2774:	0c000cd2 	jal	3348 <_sbrk_r>
    2778:	8e420008 	lw	v1,8(s1)
    277c:	00531021 	addu	v1,v1,s2
    2780:	1022000a 	beq	v0,v1,27ac <_malloc_trim_r+0x98>
    2784:	02201821 	move	a0,s0
    2788:	0c000750 	jal	1d40 <__malloc_unlock>
    278c:	8fbf0014 	lw	ra,20(sp)
    2790:	00000821 	move	v0,zero
    2794:	8fb40010 	lw	s3,16(sp)
    2798:	8fb3000c 	lw	s2,12(sp)
    279c:	8fb20008 	lw	s1,8(sp)
    27a0:	8fb10004 	lw	s0,4(sp)
    27a4:	27bd0018 	addiu	sp,sp,24
    27a8:	03e00008 	jr	ra
    27ac:	02201821 	move	a0,s0
    27b0:	00142023 	negu	a1,s3
    27b4:	0c000cd2 	jal	3348 <_sbrk_r>
    27b8:	2402ffff 	li	v1,-1
    27bc:	10220012 	beq	v0,v1,2808 <_malloc_trim_r+0xf4>
    27c0:	8e410008 	lw	v0,8(s1)
    27c4:	02749823 	subu	s2,s2,s3
    27c8:	36730001 	ori	s2,s2,0x1
    27cc:	ac330004 	sw	s2,4(v0)
    27d0:	3c010000 	lui	v0,0x0
    27d4:	8c2251cc 	lw	v1,20940(v0)
    27d8:	02201821 	move	a0,s0
    27dc:	0054a023 	subu	s3,v1,s3
    27e0:	ac3451cc 	sw	s3,20940(v0)
    27e4:	0c000750 	jal	1d40 <__malloc_unlock>
    27e8:	8fbf0014 	lw	ra,20(sp)
    27ec:	24010001 	li	v0,1
    27f0:	8fb40010 	lw	s3,16(sp)
    27f4:	8fb3000c 	lw	s2,12(sp)
    27f8:	8fb20008 	lw	s1,8(sp)
    27fc:	8fb10004 	lw	s0,4(sp)
    2800:	27bd0018 	addiu	sp,sp,24
    2804:	03e00008 	jr	ra
    2808:	02201821 	move	a0,s0
    280c:	00002021 	move	a1,zero
    2810:	0c000cd2 	jal	3348 <_sbrk_r>
    2814:	8e420008 	lw	v1,8(s1)
    2818:	00221823 	subu	a0,v0,v1
    281c:	28640010 	slti	a1,a0,16
    2820:	1480ffd8 	bnez	a1,2784 <_malloc_trim_r+0x70>
    2824:	8f848018 	lw	a1,-32744(gp)
    2828:	34630001 	ori	a0,a0,0x1
    282c:	00240823 	subu	v0,v0,a1
    2830:	3c040000 	lui	a1,0x0
    2834:	ac8151cc 	sw	v0,20940(a1)
    2838:	ac430004 	sw	a0,4(v1)
    283c:	080009e1 	j	2784 <_malloc_trim_r+0x70>

00002840 <_free_r>:
    2840:	27bdfff0 	addiu	sp,sp,-16
    2844:	afb20008 	sw	s1,8(sp)
    2848:	afb10004 	sw	s0,4(sp)
    284c:	afbf000c 	sw	ra,12(sp)
    2850:	00809021 	move	s1,a1
    2854:	00608821 	move	s0,a0
    2858:	1080004f 	beqz	a1,2998 <_free_r+0x158>
    285c:	0c00074e 	jal	1d38 <__malloc_lock>
    2860:	2642fff8 	addiu	v1,s1,-8
    2864:	8c460004 	lw	a3,4(v1)
    2868:	2401fffe 	li	v0,-2
    286c:	3c050000 	lui	a2,0x0
    2870:	00c10824 	and	v0,a3,v0
    2874:	24a54d60 	addiu	a2,a2,19808
    2878:	00411821 	addu	a0,v1,v0
    287c:	8c680004 	lw	a5,4(a0)
    2880:	8ca70008 	lw	a4,8(a2)
    2884:	2404fffc 	li	a1,-4
    2888:	01042024 	and	a1,a5,a1
    288c:	10e30068 	beq	a4,a0,2a30 <_free_r+0x1f0>
    2890:	30c60001 	andi	a3,a3,0x1
    2894:	ac640004 	sw	a1,4(a0)
    2898:	10c00033 	beqz	a3,2968 <_free_r+0x128>
    289c:	00003021 	move	a3,zero
    28a0:	00643821 	addu	a4,a0,a1
    28a4:	8ce70004 	lw	a4,4(a4)
    28a8:	30e70001 	andi	a4,a4,0x1
    28ac:	14e00006 	bnez	a4,28c8 <_free_r+0x88>
    28b0:	00240821 	addu	v0,v0,a1
    28b4:	10c00051 	beqz	a3,29fc <_free_r+0x1bc>
    28b8:	8c640008 	lw	a1,8(a0)
    28bc:	8c63000c 	lw	a0,12(a0)
    28c0:	ac640008 	sw	a1,8(a0)
    28c4:	ac83000c 	sw	a0,12(a1)
    28c8:	34240001 	ori	a1,v0,0x1
    28cc:	00411821 	addu	a0,v1,v0
    28d0:	ac440004 	sw	a1,4(v1)
    28d4:	ac610000 	sw	v0,0(a0)
    28d8:	14c0001d 	bnez	a3,2950 <_free_r+0x110>
    28dc:	2c230200 	sltiu	a0,v0,512
    28e0:	14600032 	bnez	a0,29ac <_free_r+0x16c>
    28e4:	00011a42 	srl	a0,v0,0x9
    28e8:	2c640005 	sltiu	a1,a0,5
    28ec:	10800066 	beqz	a1,2a88 <_free_r+0x248>
    28f0:	00012182 	srl	a1,v0,0x6
    28f4:	24840038 	addiu	a1,a1,56
    28f8:	000430c0 	sll	a3,a1,0x3
    28fc:	00a63021 	addu	a3,a2,a3
    2900:	8cc30008 	lw	a0,8(a3)
    2904:	10660065 	beq	a0,a3,2a9c <_free_r+0x25c>
    2908:	8c650004 	lw	a2,4(a0)
    290c:	2404fffc 	li	a1,-4
    2910:	00a42024 	and	a1,a2,a1
    2914:	0024202b 	sltu	a1,v0,a1
    2918:	10800008 	beqz	a1,293c <_free_r+0xfc>
    291c:	2405fffc 	li	a2,-4
    2920:	08000a4d 	j	2934 <_free_r+0xf4>
    2924:	8c640004 	lw	a1,4(a0)
    2928:	00852024 	and	a1,a1,a2
    292c:	0024202b 	sltu	a1,v0,a1
    2930:	10800002 	beqz	a1,293c <_free_r+0xfc>
    2934:	8c630008 	lw	a0,8(a0)
    2938:	14c3fffa 	bne	a3,a0,2924 <_free_r+0xe4>
    293c:	8c61000c 	lw	v0,12(a0)
    2940:	ac41000c 	sw	v0,12(v1)
    2944:	ac430008 	sw	a0,8(v1)
    2948:	ac62000c 	sw	v1,12(a0)
    294c:	ac220008 	sw	v1,8(v0)
    2950:	02201821 	move	a0,s0
    2954:	8fbf000c 	lw	ra,12(sp)
    2958:	8fb20008 	lw	s1,8(sp)
    295c:	8fb10004 	lw	s0,4(sp)
    2960:	27bd0010 	addiu	sp,sp,16
    2964:	08000750 	j	1d40 <__malloc_unlock>
    2968:	8e46fff8 	lw	a3,-8(s1)
    296c:	00461023 	subu	v1,v1,a3
    2970:	8c470008 	lw	a4,8(v1)
    2974:	00260821 	addu	v0,v0,a3
    2978:	3c060000 	lui	a3,0x0
    297c:	24c64d68 	addiu	a3,a3,19816
    2980:	10e6003f 	beq	a4,a3,2a80 <_free_r+0x240>
    2984:	8c48000c 	lw	a5,12(v1)
    2988:	00003021 	move	a3,zero
    298c:	ad070008 	sw	a4,8(a5)
    2990:	ace8000c 	sw	a5,12(a4)
    2994:	08000a28 	j	28a0 <_free_r+0x60>
    2998:	8fbf000c 	lw	ra,12(sp)
    299c:	8fb20008 	lw	s1,8(sp)
    29a0:	8fb10004 	lw	s0,4(sp)
    29a4:	27bd0010 	addiu	sp,sp,16
    29a8:	03e00008 	jr	ra
    29ac:	000108c2 	srl	v0,v0,0x3
    29b0:	000118c0 	sll	a0,v0,0x3
    29b4:	00a31821 	addu	a0,a2,a0
    29b8:	8ca60004 	lw	a3,4(a2)
    29bc:	8c640008 	lw	a1,8(a0)
    29c0:	00010883 	sra	v0,v0,0x2
    29c4:	24070001 	li	a4,1
    29c8:	00270804 	sllv	v0,a4,v0
    29cc:	00c10825 	or	v0,a3,v0
    29d0:	ac43000c 	sw	a0,12(v1)
    29d4:	ac440008 	sw	a1,8(v1)
    29d8:	8fbf000c 	lw	ra,12(sp)
    29dc:	ac620008 	sw	v1,8(a0)
    29e0:	8fb20008 	lw	s1,8(sp)
    29e4:	02201821 	move	a0,s0
    29e8:	aca10004 	sw	v0,4(a2)
    29ec:	8fb10004 	lw	s0,4(sp)
    29f0:	ac82000c 	sw	v1,12(a1)
    29f4:	27bd0010 	addiu	sp,sp,16
    29f8:	08000750 	j	1d40 <__malloc_unlock>
    29fc:	8c640008 	lw	a1,8(a0)
    2a00:	3c070000 	lui	a4,0x0
    2a04:	24e74d68 	addiu	a4,a4,19816
    2a08:	1487ffac 	bne	a1,a4,28bc <_free_r+0x7c>
    2a0c:	00412821 	addu	a2,v1,v0
    2a10:	34230001 	ori	a0,v0,0x1
    2a14:	ac82000c 	sw	v1,12(a1)
    2a18:	ac820008 	sw	v1,8(a1)
    2a1c:	aca10000 	sw	v0,0(a2)
    2a20:	ac430004 	sw	a0,4(v1)
    2a24:	ac440008 	sw	a1,8(v1)
    2a28:	ac44000c 	sw	a1,12(v1)
    2a2c:	08000a54 	j	2950 <_free_r+0x110>
    2a30:	30c60001 	andi	a3,a3,0x1
    2a34:	00810821 	addu	v0,a1,v0
    2a38:	14c00007 	bnez	a3,2a58 <_free_r+0x218>
    2a3c:	8e46fff8 	lw	a3,-8(s1)
    2a40:	00461023 	subu	v1,v1,a3
    2a44:	8c44000c 	lw	a1,12(v1)
    2a48:	8c430008 	lw	a0,8(v1)
    2a4c:	00260821 	addu	v0,v0,a3
    2a50:	ac830008 	sw	a0,8(a1)
    2a54:	ac64000c 	sw	a1,12(a0)
    2a58:	8f848014 	lw	a1,-32748(gp)
    2a5c:	34230001 	ori	a0,v0,0x1
    2a60:	aca20008 	sw	v1,8(a2)
    2a64:	0024082b 	sltu	v0,v0,a1
    2a68:	ac430004 	sw	a0,4(v1)
    2a6c:	1420ffb8 	bnez	v0,2950 <_free_r+0x110>
    2a70:	8f848030 	lw	a1,-32720(gp)
    2a74:	02201821 	move	a0,s0
    2a78:	0c0009c5 	jal	2714 <_malloc_trim_r>
    2a7c:	08000a54 	j	2950 <_free_r+0x110>
    2a80:	24060001 	li	a3,1
    2a84:	08000a28 	j	28a0 <_free_r+0x60>
    2a88:	2c640015 	sltiu	a1,a0,21
    2a8c:	1080000b 	beqz	a1,2abc <_free_r+0x27c>
    2a90:	2464005b 	addiu	a1,a0,91
    2a94:	000430c0 	sll	a3,a1,0x3
    2a98:	08000a3f 	j	28fc <_free_r+0xbc>
    2a9c:	8ca60004 	lw	a3,4(a2)
    2aa0:	00042083 	sra	a1,a1,0x2
    2aa4:	24010001 	li	v0,1
    2aa8:	00810804 	sllv	v0,v0,a1
    2aac:	00c10825 	or	v0,a3,v0
    2ab0:	aca10004 	sw	v0,4(a2)
    2ab4:	00600821 	move	v0,a0
    2ab8:	08000a50 	j	2940 <_free_r+0x100>
    2abc:	2c640055 	sltiu	a1,a0,85
    2ac0:	10800004 	beqz	a1,2ad4 <_free_r+0x294>
    2ac4:	00012302 	srl	a1,v0,0xc
    2ac8:	2484006e 	addiu	a1,a1,110
    2acc:	000430c0 	sll	a3,a1,0x3
    2ad0:	08000a3f 	j	28fc <_free_r+0xbc>
    2ad4:	2c640155 	sltiu	a1,a0,341
    2ad8:	10800004 	beqz	a1,2aec <_free_r+0x2ac>
    2adc:	000123c2 	srl	a1,v0,0xf
    2ae0:	24840077 	addiu	a1,a1,119
    2ae4:	000430c0 	sll	a3,a1,0x3
    2ae8:	08000a3f 	j	28fc <_free_r+0xbc>
    2aec:	2c630555 	sltiu	a0,a0,1365
    2af0:	14600003 	bnez	a0,2b00 <_free_r+0x2c0>
    2af4:	240603f0 	li	a3,1008
    2af8:	2404007e 	li	a1,126
    2afc:	08000a3f 	j	28fc <_free_r+0xbc>
    2b00:	00012482 	srl	a1,v0,0x12
    2b04:	2484007c 	addiu	a1,a1,124
    2b08:	000430c0 	sll	a3,a1,0x3
    2b0c:	08000a3f 	j	28fc <_free_r+0xbc>

00002b10 <__getreent>:
    2b10:	40028800 	mfc0	v1,c0_coreid
    2b14:	10400007 	beqz	v1,2b34 <__getreent+0x24>
    2b18:	00020a80 	sll	v0,v1,0xa
    2b1c:	00021180 	sll	v1,v1,0x6
    2b20:	00411021 	addu	v1,v1,v0
    2b24:	3c010000 	lui	v0,0x0
    2b28:	242151f8 	addiu	v0,v0,20984
    2b2c:	00220821 	addu	v0,v0,v1
    2b30:	03e00008 	jr	ra
    2b34:	8f81800c 	lw	v0,-32756(gp)
    2b38:	03e00008 	jr	ra

00002b3c <_malloc_r>:
    2b3c:	2481000b 	addiu	v0,a1,11
    2b40:	27bdffd8 	addiu	sp,sp,-40
    2b44:	2c220017 	sltiu	v1,v0,23
    2b48:	afb20008 	sw	s1,8(sp)
    2b4c:	afbf0024 	sw	ra,36(sp)
    2b50:	afb80020 	sw	s7,32(sp)
    2b54:	afb7001c 	sw	s6,28(sp)
    2b58:	afb60018 	sw	s5,24(sp)
    2b5c:	afb50014 	sw	s4,20(sp)
    2b60:	afb40010 	sw	s3,16(sp)
    2b64:	afb3000c 	sw	s2,12(sp)
    2b68:	afb10004 	sw	s0,4(sp)
    2b6c:	00609021 	move	s1,a0
    2b70:	10400026 	beqz	v1,2c0c <_malloc_r+0xd0>
    2b74:	24110010 	li	s0,16
    2b78:	0224202b 	sltu	a1,s0,a1
    2b7c:	14800026 	bnez	a1,2c18 <_malloc_r+0xdc>
    2b80:	02401821 	move	a0,s1
    2b84:	0c00074e 	jal	1d38 <__malloc_lock>
    2b88:	2e2101f8 	sltiu	v0,s0,504
    2b8c:	10200030 	beqz	v0,2c50 <_malloc_r+0x114>
    2b90:	3c130000 	lui	s2,0x0
    2b94:	26734d60 	addiu	s2,s2,19808
    2b98:	02710821 	addu	v0,s2,s0
    2b9c:	8c34000c 	lw	s3,12(v0)
    2ba0:	001138c2 	srl	a4,s0,0x3
    2ba4:	12810171 	beq	s3,v0,316c <_malloc_r+0x630>
    2ba8:	8e840004 	lw	a1,4(s3)
    2bac:	2401fffc 	li	v0,-4
    2bb0:	8e82000c 	lw	v1,12(s3)
    2bb4:	00812024 	and	a1,a1,v0
    2bb8:	02842021 	addu	a1,s3,a1
    2bbc:	8c850004 	lw	a2,4(a1)
    2bc0:	8e810008 	lw	v0,8(s3)
    2bc4:	02401821 	move	a0,s1
    2bc8:	34a50001 	ori	a2,a2,0x1
    2bcc:	ac410008 	sw	v0,8(v1)
    2bd0:	ac22000c 	sw	v1,12(v0)
    2bd4:	ac850004 	sw	a2,4(a1)
    2bd8:	0c000750 	jal	1d40 <__malloc_unlock>
    2bdc:	26810008 	addiu	v0,s3,8
    2be0:	8fbf0024 	lw	ra,36(sp)
    2be4:	8fb80020 	lw	s7,32(sp)
    2be8:	8fb7001c 	lw	s6,28(sp)
    2bec:	8fb60018 	lw	s5,24(sp)
    2bf0:	8fb50014 	lw	s4,20(sp)
    2bf4:	8fb40010 	lw	s3,16(sp)
    2bf8:	8fb3000c 	lw	s2,12(sp)
    2bfc:	8fb20008 	lw	s1,8(sp)
    2c00:	8fb10004 	lw	s0,4(sp)
    2c04:	27bd0028 	addiu	sp,sp,40
    2c08:	03e00008 	jr	ra
    2c0c:	2411fff8 	li	s0,-8
    2c10:	00318824 	and	s0,v0,s0
    2c14:	0621ffd8 	bgez	s0,2b78 <_malloc_r+0x3c>
    2c18:	8fbf0024 	lw	ra,36(sp)
    2c1c:	2401000c 	li	v0,12
    2c20:	ae410000 	sw	v0,0(s1)
    2c24:	8fb80020 	lw	s7,32(sp)
    2c28:	00000821 	move	v0,zero
    2c2c:	8fb7001c 	lw	s6,28(sp)
    2c30:	8fb60018 	lw	s5,24(sp)
    2c34:	8fb50014 	lw	s4,20(sp)
    2c38:	8fb40010 	lw	s3,16(sp)
    2c3c:	8fb3000c 	lw	s2,12(sp)
    2c40:	8fb20008 	lw	s1,8(sp)
    2c44:	8fb10004 	lw	s0,4(sp)
    2c48:	27bd0028 	addiu	sp,sp,40
    2c4c:	03e00008 	jr	ra
    2c50:	00113a42 	srl	a4,s0,0x9
    2c54:	10e0006d 	beqz	a4,2e0c <_malloc_r+0x2d0>
    2c58:	2ce10005 	sltiu	v0,a4,5
    2c5c:	10200107 	beqz	v0,307c <_malloc_r+0x540>
    2c60:	00113982 	srl	a4,s0,0x6
    2c64:	24e70038 	addiu	a4,a4,56
    2c68:	000720c0 	sll	a1,a4,0x3
    2c6c:	3c130000 	lui	s2,0x0
    2c70:	26734d60 	addiu	s2,s2,19808
    2c74:	02642021 	addu	a1,s2,a1
    2c78:	8c94000c 	lw	s3,12(a1)
    2c7c:	10940011 	beq	a1,s3,2cc4 <_malloc_r+0x188>
    2c80:	8e820004 	lw	v1,4(s3)
    2c84:	2401fffc 	li	v0,-4
    2c88:	00411024 	and	v1,v1,v0
    2c8c:	00510823 	subu	v0,v1,s0
    2c90:	28230010 	slti	a0,v0,16
    2c94:	10600076 	beqz	a0,2e70 <_malloc_r+0x334>
    2c98:	0421005f 	bgez	v0,2e18 <_malloc_r+0x2dc>
    2c9c:	2405fffc 	li	a2,-4
    2ca0:	08000b2f 	j	2cbc <_malloc_r+0x180>
    2ca4:	8e820004 	lw	v1,4(s3)
    2ca8:	00451024 	and	v1,v1,a2
    2cac:	00510823 	subu	v0,v1,s0
    2cb0:	28230010 	slti	a0,v0,16
    2cb4:	1060006e 	beqz	a0,2e70 <_malloc_r+0x334>
    2cb8:	04210057 	bgez	v0,2e18 <_malloc_r+0x2dc>
    2cbc:	8e94000c 	lw	s3,12(s3)
    2cc0:	1494fff8 	bne	a1,s3,2ca4 <_malloc_r+0x168>
    2cc4:	24e70001 	addiu	a4,a4,1
    2cc8:	3c010000 	lui	v0,0x0
    2ccc:	24214d68 	addiu	v0,v0,19816
    2cd0:	8c340008 	lw	s3,8(v0)
    2cd4:	1034011e 	beq	v0,s3,3150 <_malloc_r+0x614>
    2cd8:	8e830004 	lw	a0,4(s3)
    2cdc:	2402fffc 	li	v1,-4
    2ce0:	00621824 	and	a0,a0,v1
    2ce4:	00711023 	subu	v1,a0,s0
    2ce8:	28440010 	slti	a1,v1,16
    2cec:	10800109 	beqz	a1,3114 <_malloc_r+0x5d8>
    2cf0:	ac21000c 	sw	v0,12(v0)
    2cf4:	ac210008 	sw	v0,8(v0)
    2cf8:	0441005f 	bgez	v1,2e78 <_malloc_r+0x33c>
    2cfc:	2c620200 	sltiu	v1,a0,512
    2d00:	104000e6 	beqz	v1,309c <_malloc_r+0x560>
    2d04:	000318c2 	srl	a0,a0,0x3
    2d08:	000310c0 	sll	v1,a0,0x3
    2d0c:	02621021 	addu	v1,s2,v1
    2d10:	8e650004 	lw	a2,4(s2)
    2d14:	8c440008 	lw	a1,8(v1)
    2d18:	00031883 	sra	a0,a0,0x2
    2d1c:	24060001 	li	a3,1
    2d20:	00661804 	sllv	a0,a3,a0
    2d24:	00651825 	or	a0,a0,a2
    2d28:	ae82000c 	sw	v1,12(s3)
    2d2c:	ae840008 	sw	a1,8(s3)
    2d30:	ac94000c 	sw	s3,12(a1)
    2d34:	ac540008 	sw	s3,8(v1)
    2d38:	ae630004 	sw	a0,4(s2)
    2d3c:	00071083 	sra	v1,a4,0x2
    2d40:	24050001 	li	a2,1
    2d44:	00452804 	sllv	a2,a2,v1
    2d48:	0065102b 	sltu	v1,a0,a2
    2d4c:	1440005c 	bnez	v1,2ec0 <_malloc_r+0x384>
    2d50:	00651024 	and	v1,a0,a2
    2d54:	1440000a 	bnez	v1,2d80 <_malloc_r+0x244>
    2d58:	2402fffc 	li	v1,-4
    2d5c:	00052840 	sll	a2,a2,0x1
    2d60:	00e23824 	and	a4,a4,v1
    2d64:	00651024 	and	v1,a0,a2
    2d68:	24e70004 	addiu	a4,a4,4
    2d6c:	14400004 	bnez	v1,2d80 <_malloc_r+0x244>
    2d70:	00052840 	sll	a2,a2,0x1
    2d74:	00a31024 	and	v1,a2,a0
    2d78:	24e70004 	addiu	a4,a4,4
    2d7c:	1040fffc 	beqz	v1,2d70 <_malloc_r+0x234>
    2d80:	2408fffc 	li	a5,-4
    2d84:	000750c0 	sll	a7,a4,0x3
    2d88:	026a5021 	addu	a7,s2,a7
    2d8c:	01403021 	move	a3,a7
    2d90:	00e04821 	move	a6,a4
    2d94:	8cd4000c 	lw	s3,12(a3)
    2d98:	14d40004 	bne	a3,s3,2dac <_malloc_r+0x270>
    2d9c:	08000c56 	j	3158 <_malloc_r+0x61c>
    2da0:	0461001d 	bgez	a0,2e18 <_malloc_r+0x2dc>
    2da4:	8e94000c 	lw	s3,12(s3)
    2da8:	10d400eb 	beq	a3,s3,3158 <_malloc_r+0x61c>
    2dac:	8e820004 	lw	v1,4(s3)
    2db0:	00481024 	and	v1,v1,a5
    2db4:	00511823 	subu	a0,v1,s0
    2db8:	28640010 	slti	a1,a0,16
    2dbc:	1480fff8 	bnez	a1,2da0 <_malloc_r+0x264>
    2dc0:	8e85000c 	lw	a2,12(s3)
    2dc4:	8e840008 	lw	a1,8(s3)
    2dc8:	02911021 	addu	v1,s3,s0
    2dcc:	00433821 	addu	a4,v1,a0
    2dd0:	34660001 	ori	a3,a0,0x1
    2dd4:	36310001 	ori	s0,s0,0x1
    2dd8:	aca40008 	sw	a1,8(a2)
    2ddc:	ac85000c 	sw	a2,12(a1)
    2de0:	ac220008 	sw	v1,8(v0)
    2de4:	ac22000c 	sw	v1,12(v0)
    2de8:	ace30000 	sw	a0,0(a4)
    2dec:	ae910004 	sw	s0,4(s3)
    2df0:	ac410008 	sw	v0,8(v1)
    2df4:	ac41000c 	sw	v0,12(v1)
    2df8:	ac460004 	sw	a3,4(v1)
    2dfc:	02401821 	move	a0,s1
    2e00:	0c000750 	jal	1d40 <__malloc_unlock>
    2e04:	26810008 	addiu	v0,s3,8
    2e08:	08000af8 	j	2be0 <_malloc_r+0xa4>
    2e0c:	001138c2 	srl	a4,s0,0x3
    2e10:	000720c0 	sll	a1,a4,0x3
    2e14:	08000b1b 	j	2c6c <_malloc_r+0x130>
    2e18:	02821021 	addu	v1,s3,v1
    2e1c:	8c440004 	lw	a1,4(v1)
    2e20:	8e83000c 	lw	a0,12(s3)
    2e24:	8e810008 	lw	v0,8(s3)
    2e28:	34840001 	ori	a1,a1,0x1
    2e2c:	ac440004 	sw	a1,4(v1)
    2e30:	ac610008 	sw	v0,8(a0)
    2e34:	ac23000c 	sw	a0,12(v0)
    2e38:	02401821 	move	a0,s1
    2e3c:	0c000750 	jal	1d40 <__malloc_unlock>
    2e40:	8fbf0024 	lw	ra,36(sp)
    2e44:	26810008 	addiu	v0,s3,8
    2e48:	8fb80020 	lw	s7,32(sp)
    2e4c:	8fb7001c 	lw	s6,28(sp)
    2e50:	8fb60018 	lw	s5,24(sp)
    2e54:	8fb50014 	lw	s4,20(sp)
    2e58:	8fb40010 	lw	s3,16(sp)
    2e5c:	8fb3000c 	lw	s2,12(sp)
    2e60:	8fb20008 	lw	s1,8(sp)
    2e64:	8fb10004 	lw	s0,4(sp)
    2e68:	27bd0028 	addiu	sp,sp,40
    2e6c:	03e00008 	jr	ra
    2e70:	24e7ffff 	addiu	a4,a4,-1
    2e74:	08000b31 	j	2cc4 <_malloc_r+0x188>
    2e78:	02830821 	addu	v0,s3,a0
    2e7c:	8c220004 	lw	v1,4(v0)
    2e80:	02401821 	move	a0,s1
    2e84:	34420001 	ori	v1,v1,0x1
    2e88:	ac220004 	sw	v1,4(v0)
    2e8c:	0c000750 	jal	1d40 <__malloc_unlock>
    2e90:	8fbf0024 	lw	ra,36(sp)
    2e94:	26810008 	addiu	v0,s3,8
    2e98:	8fb80020 	lw	s7,32(sp)
    2e9c:	8fb7001c 	lw	s6,28(sp)
    2ea0:	8fb60018 	lw	s5,24(sp)
    2ea4:	8fb50014 	lw	s4,20(sp)
    2ea8:	8fb40010 	lw	s3,16(sp)
    2eac:	8fb3000c 	lw	s2,12(sp)
    2eb0:	8fb20008 	lw	s1,8(sp)
    2eb4:	8fb10004 	lw	s0,4(sp)
    2eb8:	27bd0028 	addiu	sp,sp,40
    2ebc:	03e00008 	jr	ra
    2ec0:	8e740008 	lw	s3,8(s2)
    2ec4:	2401fffc 	li	v0,-4
    2ec8:	8e950004 	lw	s4,4(s3)
    2ecc:	02a1a824 	and	s4,s4,v0
    2ed0:	02b1082b 	sltu	v0,s4,s0
    2ed4:	14200003 	bnez	v0,2ee4 <_malloc_r+0x3a8>
    2ed8:	02b11023 	subu	v1,s4,s0
    2edc:	28410010 	slti	v0,v1,16
    2ee0:	10200052 	beqz	v0,302c <_malloc_r+0x4f0>
    2ee4:	8f968030 	lw	s5,-32720(gp)
    2ee8:	8f828018 	lw	v1,-32744(gp)
    2eec:	2401ffff 	li	v0,-1
    2ef0:	26d60010 	addiu	s5,s5,16
    2ef4:	02d1b021 	addu	s5,s5,s0
    2ef8:	10410003 	beq	v1,v0,2f08 <_malloc_r+0x3cc>
    2efc:	26d60fff 	addiu	s5,s5,4095
    2f00:	2401f000 	li	v0,-4096
    2f04:	02c1b024 	and	s5,s5,v0
    2f08:	02401821 	move	a0,s1
    2f0c:	02c02021 	move	a1,s5
    2f10:	0c000cd2 	jal	3348 <_sbrk_r>
    2f14:	2402ffff 	li	v1,-1
    2f18:	0020c021 	move	s7,v0
    2f1c:	102200af 	beq	v0,v1,31dc <_malloc_r+0x6a0>
    2f20:	02951821 	addu	a0,s3,s4
    2f24:	0023102b 	sltu	v1,v0,a0
    2f28:	144000ab 	bnez	v1,31d8 <_malloc_r+0x69c>
    2f2c:	3c170000 	lui	s6,0x0
    2f30:	8ee251cc 	lw	v1,20940(s6)
    2f34:	02c21021 	addu	v1,s5,v1
    2f38:	aee251cc 	sw	v1,20940(s6)
    2f3c:	106100dc 	beq	a0,v0,32b0 <_malloc_r+0x774>
    2f40:	8f858018 	lw	a2,-32744(gp)
    2f44:	2404ffff 	li	a1,-1
    2f48:	10a400e0 	beq	a2,a1,32cc <_malloc_r+0x790>
    2f4c:	00221021 	addu	v1,v0,v1
    2f50:	00431823 	subu	a0,v1,a0
    2f54:	aee351cc 	sw	a0,20940(s6)
    2f58:	30220007 	andi	v1,v0,0x7
    2f5c:	144000b0 	bnez	v1,3220 <_malloc_r+0x6e4>
    2f60:	24021000 	li	v1,4096
    2f64:	03160821 	addu	v0,s7,s5
    2f68:	30210fff 	andi	v0,v0,0xfff
    2f6c:	0041b023 	subu	s5,v1,v0
    2f70:	02401821 	move	a0,s1
    2f74:	02c02021 	move	a1,s5
    2f78:	0c000cd2 	jal	3348 <_sbrk_r>
    2f7c:	2402ffff 	li	v1,-1
    2f80:	102200d4 	beq	v0,v1,32d4 <_malloc_r+0x798>
    2f84:	00380823 	subu	v0,v0,s7
    2f88:	00360821 	addu	v0,v0,s5
    2f8c:	34210001 	ori	v0,v0,0x1
    2f90:	8ee251cc 	lw	v1,20940(s6)
    2f94:	ae780008 	sw	s7,8(s2)
    2f98:	02c21021 	addu	v1,s5,v1
    2f9c:	aee251cc 	sw	v1,20940(s6)
    2fa0:	af010004 	sw	v0,4(s7)
    2fa4:	1274000f 	beq	s2,s3,2fe4 <_malloc_r+0x4a8>
    2fa8:	2ea10010 	sltiu	v0,s4,16
    2fac:	142000a9 	bnez	v0,3254 <_malloc_r+0x718>
    2fb0:	26b5fff4 	addiu	s4,s4,-12
    2fb4:	2401fff8 	li	v0,-8
    2fb8:	02a10824 	and	v0,s4,v0
    2fbc:	02811821 	addu	a0,s3,v0
    2fc0:	24040005 	li	a1,5
    2fc4:	ac640008 	sw	a1,8(a0)
    2fc8:	ac640004 	sw	a1,4(a0)
    2fcc:	8e840004 	lw	a1,4(s3)
    2fd0:	2c230010 	sltiu	a0,v0,16
    2fd4:	30840001 	andi	a1,a1,0x1
    2fd8:	00240825 	or	v0,v0,a1
    2fdc:	ae810004 	sw	v0,4(s3)
    2fe0:	106000bf 	beqz	a0,32e0 <_malloc_r+0x7a4>
    2fe4:	8f818034 	lw	v0,-32716(gp)
    2fe8:	0022082b 	sltu	v0,v0,v1
    2fec:	10200001 	beqz	v0,2ff4 <_malloc_r+0x4b8>
    2ff0:	af828034 	sw	v1,-32716(gp)
    2ff4:	8f818038 	lw	v0,-32712(gp)
    2ff8:	0022082b 	sltu	v0,v0,v1
    2ffc:	10200077 	beqz	v0,31dc <_malloc_r+0x6a0>
    3000:	8e780008 	lw	s7,8(s2)
    3004:	af828038 	sw	v1,-32712(gp)
    3008:	2401fffc 	li	v0,-4
    300c:	8f020004 	lw	v1,4(s7)
    3010:	00411024 	and	v1,v1,v0
    3014:	0051082b 	sltu	v0,v1,s0
    3018:	14200097 	bnez	v0,3278 <_malloc_r+0x73c>
    301c:	00511023 	subu	v1,v1,s0
    3020:	28410010 	slti	v0,v1,16
    3024:	14200094 	bnez	v0,3278 <_malloc_r+0x73c>
    3028:	0300a021 	move	s3,s7
    302c:	02910821 	addu	v0,s3,s0
    3030:	34420001 	ori	v1,v1,0x1
    3034:	36310001 	ori	s0,s0,0x1
    3038:	ae910004 	sw	s0,4(s3)
    303c:	ae610008 	sw	v0,8(s2)
    3040:	ac220004 	sw	v1,4(v0)
    3044:	02401821 	move	a0,s1
    3048:	0c000750 	jal	1d40 <__malloc_unlock>
    304c:	8fbf0024 	lw	ra,36(sp)
    3050:	26810008 	addiu	v0,s3,8
    3054:	8fb80020 	lw	s7,32(sp)
    3058:	8fb7001c 	lw	s6,28(sp)
    305c:	8fb60018 	lw	s5,24(sp)
    3060:	8fb50014 	lw	s4,20(sp)
    3064:	8fb40010 	lw	s3,16(sp)
    3068:	8fb3000c 	lw	s2,12(sp)
    306c:	8fb20008 	lw	s1,8(sp)
    3070:	8fb10004 	lw	s0,4(sp)
    3074:	27bd0028 	addiu	sp,sp,40
    3078:	03e00008 	jr	ra
    307c:	2ce10015 	sltiu	v0,a4,21
    3080:	1420003f 	bnez	v0,3180 <_malloc_r+0x644>
    3084:	2ce10055 	sltiu	v0,a4,85
    3088:	1020005f 	beqz	v0,3208 <_malloc_r+0x6cc>
    308c:	00113b02 	srl	a4,s0,0xc
    3090:	24e7006e 	addiu	a4,a4,110
    3094:	000720c0 	sll	a1,a4,0x3
    3098:	08000b1b 	j	2c6c <_malloc_r+0x130>
    309c:	00031242 	srl	v1,a0,0x9
    30a0:	2c440005 	sltiu	a1,v1,5
    30a4:	14800039 	bnez	a1,318c <_malloc_r+0x650>
    30a8:	2c440015 	sltiu	a1,v1,21
    30ac:	10800076 	beqz	a1,3288 <_malloc_r+0x74c>
    30b0:	2444005b 	addiu	a1,v1,91
    30b4:	000428c0 	sll	a2,a1,0x3
    30b8:	02652821 	addu	a2,s2,a2
    30bc:	8ca20008 	lw	v1,8(a2)
    30c0:	1045005c 	beq	v1,a2,3234 <_malloc_r+0x6f8>
    30c4:	8c460004 	lw	a3,4(v1)
    30c8:	2404fffc 	li	a1,-4
    30cc:	00c42024 	and	a1,a3,a1
    30d0:	0064202b 	sltu	a1,a0,a1
    30d4:	10800008 	beqz	a1,30f8 <_malloc_r+0x5bc>
    30d8:	2406fffc 	li	a3,-4
    30dc:	08000c3c 	j	30f0 <_malloc_r+0x5b4>
    30e0:	8c440004 	lw	a1,4(v1)
    30e4:	00862024 	and	a1,a1,a3
    30e8:	0064202b 	sltu	a1,a0,a1
    30ec:	10800002 	beqz	a1,30f8 <_malloc_r+0x5bc>
    30f0:	8c420008 	lw	v1,8(v1)
    30f4:	14a2fffa 	bne	a2,v1,30e0 <_malloc_r+0x5a4>
    30f8:	8c44000c 	lw	a1,12(v1)
    30fc:	ae84000c 	sw	a1,12(s3)
    3100:	ae820008 	sw	v1,8(s3)
    3104:	8e630004 	lw	a0,4(s2)
    3108:	ac54000c 	sw	s3,12(v1)
    310c:	ac940008 	sw	s3,8(a1)
    3110:	08000b4f 	j	2d3c <_malloc_r+0x200>
    3114:	02911821 	addu	a0,s3,s0
    3118:	00622821 	addu	a2,a0,v1
    311c:	34440001 	ori	a1,v1,0x1
    3120:	36310001 	ori	s0,s0,0x1
    3124:	ac23000c 	sw	a0,12(v0)
    3128:	ac230008 	sw	a0,8(v0)
    312c:	ac61000c 	sw	v0,12(a0)
    3130:	ac610008 	sw	v0,8(a0)
    3134:	ae910004 	sw	s0,4(s3)
    3138:	aca20000 	sw	v1,0(a2)
    313c:	ac640004 	sw	a1,4(a0)
    3140:	02401821 	move	a0,s1
    3144:	0c000750 	jal	1d40 <__malloc_unlock>
    3148:	26810008 	addiu	v0,s3,8
    314c:	08000af8 	j	2be0 <_malloc_r+0xa4>
    3150:	8e630004 	lw	a0,4(s2)
    3154:	08000b4f 	j	2d3c <_malloc_r+0x200>
    3158:	25290001 	addiu	a6,a6,1
    315c:	31220003 	andi	v1,a6,0x3
    3160:	1040000e 	beqz	v1,319c <_malloc_r+0x660>
    3164:	26860008 	addiu	a3,s3,8
    3168:	08000b65 	j	2d94 <_malloc_r+0x258>
    316c:	26810008 	addiu	v0,s3,8
    3170:	8c34000c 	lw	s3,12(v0)
    3174:	1434fe8c 	bne	v0,s3,2ba8 <_malloc_r+0x6c>
    3178:	24e70002 	addiu	a4,a4,2
    317c:	08000b32 	j	2cc8 <_malloc_r+0x18c>
    3180:	24e7005b 	addiu	a4,a4,91
    3184:	000720c0 	sll	a1,a4,0x3
    3188:	08000b1b 	j	2c6c <_malloc_r+0x130>
    318c:	00032182 	srl	a1,a0,0x6
    3190:	24840038 	addiu	a1,a1,56
    3194:	000428c0 	sll	a2,a1,0x3
    3198:	08000c2e 	j	30b8 <_malloc_r+0x57c>
    319c:	30e30003 	andi	a0,a4,0x3
    31a0:	2542fff8 	addiu	v1,a7,-8
    31a4:	1060005f 	beqz	a0,3324 <_malloc_r+0x7e8>
    31a8:	8c4a0008 	lw	a7,8(v1)
    31ac:	24e7ffff 	addiu	a4,a4,-1
    31b0:	1142fffa 	beq	a7,v1,319c <_malloc_r+0x660>
    31b4:	8e620004 	lw	v1,4(s2)
    31b8:	00052840 	sll	a2,a2,0x1
    31bc:	0045182b 	sltu	a0,v1,a2
    31c0:	1460ff3f 	bnez	a0,2ec0 <_malloc_r+0x384>
    31c4:	10a0ff3e 	beqz	a2,2ec0 <_malloc_r+0x384>
    31c8:	00451824 	and	a0,v1,a2
    31cc:	10600008 	beqz	a0,31f0 <_malloc_r+0x6b4>
    31d0:	01203821 	move	a4,a6
    31d4:	08000b61 	j	2d84 <_malloc_r+0x248>
    31d8:	1274ff54 	beq	s2,s3,2f2c <_malloc_r+0x3f0>
    31dc:	8e780008 	lw	s7,8(s2)
    31e0:	2401fffc 	li	v0,-4
    31e4:	8f020004 	lw	v1,4(s7)
    31e8:	00411024 	and	v1,v1,v0
    31ec:	08000c05 	j	3014 <_malloc_r+0x4d8>
    31f0:	00052840 	sll	a2,a2,0x1
    31f4:	00a21824 	and	a0,a2,v1
    31f8:	25290004 	addiu	a6,a6,4
    31fc:	1060fffc 	beqz	a0,31f0 <_malloc_r+0x6b4>
    3200:	01203821 	move	a4,a6
    3204:	08000b61 	j	2d84 <_malloc_r+0x248>
    3208:	2ce10155 	sltiu	v0,a4,341
    320c:	10200015 	beqz	v0,3264 <_malloc_r+0x728>
    3210:	00113bc2 	srl	a4,s0,0xf
    3214:	24e70077 	addiu	a4,a4,119
    3218:	000720c0 	sll	a1,a4,0x3
    321c:	08000b1b 	j	2c6c <_malloc_r+0x130>
    3220:	24030008 	li	a0,8
    3224:	00621023 	subu	v1,a0,v1
    3228:	0022c021 	addu	s7,v0,v1
    322c:	24421000 	addiu	v1,v1,4096
    3230:	08000bd9 	j	2f64 <_malloc_r+0x428>
    3234:	8e650004 	lw	a2,4(s2)
    3238:	00042083 	sra	a1,a1,0x2
    323c:	24030001 	li	a0,1
    3240:	00831804 	sllv	a0,a0,a1
    3244:	00a31825 	or	a0,a2,a0
    3248:	ae630004 	sw	a0,4(s2)
    324c:	00402021 	move	a1,v1
    3250:	08000c3f 	j	30fc <_malloc_r+0x5c0>
    3254:	24010001 	li	v0,1
    3258:	af010004 	sw	v0,4(s7)
    325c:	00001021 	move	v1,zero
    3260:	08000c05 	j	3014 <_malloc_r+0x4d8>
    3264:	2ce70555 	sltiu	a4,a4,1365
    3268:	14e0000d 	bnez	a4,32a0 <_malloc_r+0x764>
    326c:	240403f0 	li	a1,1008
    3270:	2407007e 	li	a4,126
    3274:	08000b1b 	j	2c6c <_malloc_r+0x130>
    3278:	02401821 	move	a0,s1
    327c:	0c000750 	jal	1d40 <__malloc_unlock>
    3280:	00000821 	move	v0,zero
    3284:	08000af8 	j	2be0 <_malloc_r+0xa4>
    3288:	2c440055 	sltiu	a1,v1,85
    328c:	1080001a 	beqz	a1,32f8 <_malloc_r+0x7bc>
    3290:	00032302 	srl	a1,a0,0xc
    3294:	2484006e 	addiu	a1,a1,110
    3298:	000428c0 	sll	a2,a1,0x3
    329c:	08000c2e 	j	30b8 <_malloc_r+0x57c>
    32a0:	00113c82 	srl	a4,s0,0x12
    32a4:	24e7007c 	addiu	a4,a4,124
    32a8:	000720c0 	sll	a1,a4,0x3
    32ac:	08000b1b 	j	2c6c <_malloc_r+0x130>
    32b0:	30640fff 	andi	a1,a0,0xfff
    32b4:	1480ff22 	bnez	a1,2f40 <_malloc_r+0x404>
    32b8:	8e610008 	lw	v0,8(s2)
    32bc:	02d51821 	addu	a0,s5,s4
    32c0:	34630001 	ori	a0,a0,0x1
    32c4:	ac230004 	sw	a0,4(v0)
    32c8:	08000bf9 	j	2fe4 <_malloc_r+0x4a8>
    32cc:	af818018 	sw	v0,-32744(gp)
    32d0:	08000bd6 	j	2f58 <_malloc_r+0x41c>
    32d4:	24010001 	li	v0,1
    32d8:	0000b021 	move	s5,zero
    32dc:	08000be4 	j	2f90 <_malloc_r+0x454>
    32e0:	26840008 	addiu	a1,s3,8
    32e4:	02401821 	move	a0,s1
    32e8:	0c000a10 	jal	2840 <_free_r>
    32ec:	3c010000 	lui	v0,0x0
    32f0:	8c2251cc 	lw	v1,20940(v0)
    32f4:	08000bf9 	j	2fe4 <_malloc_r+0x4a8>
    32f8:	2c440155 	sltiu	a1,v1,341
    32fc:	10800004 	beqz	a1,3310 <_malloc_r+0x7d4>
    3300:	000323c2 	srl	a1,a0,0xf
    3304:	24840077 	addiu	a1,a1,119
    3308:	000428c0 	sll	a2,a1,0x3
    330c:	08000c2e 	j	30b8 <_malloc_r+0x57c>
    3310:	2c420555 	sltiu	v1,v1,1365
    3314:	14400008 	bnez	v1,3338 <_malloc_r+0x7fc>
    3318:	240503f0 	li	a2,1008
    331c:	2404007e 	li	a1,126
    3320:	08000c2e 	j	30b8 <_malloc_r+0x57c>
    3324:	8e620004 	lw	v1,4(s2)
    3328:	00051827 	nor	a0,zero,a2
    332c:	00621024 	and	v1,a0,v1
    3330:	ae620004 	sw	v1,4(s2)
    3334:	08000c6e 	j	31b8 <_malloc_r+0x67c>
    3338:	00032482 	srl	a1,a0,0x12
    333c:	2484007c 	addiu	a1,a1,124
    3340:	000428c0 	sll	a2,a1,0x3
    3344:	08000c2e 	j	30b8 <_malloc_r+0x57c>

00003348 <_sbrk_r>:
    3348:	27bdfff8 	addiu	sp,sp,-8
    334c:	afb10000 	sw	s0,0(sp)
    3350:	00608821 	move	s0,a0
    3354:	00801821 	move	a0,a1
    3358:	afbf0004 	sw	ra,4(sp)
    335c:	af80803c 	sw	zero,-32708(gp)
    3360:	0c0007c0 	jal	1f00 <sbrk>
    3364:	2402ffff 	li	v1,-1
    3368:	10220004 	beq	v0,v1,337c <_sbrk_r+0x34>
    336c:	8fbf0004 	lw	ra,4(sp)
    3370:	8fb10000 	lw	s0,0(sp)
    3374:	27bd0008 	addiu	sp,sp,8
    3378:	03e00008 	jr	ra
    337c:	8f82803c 	lw	v1,-32708(gp)
    3380:	1040fffa 	beqz	v1,336c <_sbrk_r+0x24>
    3384:	8fbf0004 	lw	ra,4(sp)
    3388:	ae220000 	sw	v1,0(s0)
    338c:	8fb10000 	lw	s0,0(sp)
    3390:	27bd0008 	addiu	sp,sp,8
    3394:	03e00008 	jr	ra

Disassembly of section .init:

00003398 <_init>:
    3398:	27bdffe0 	addiu	sp,sp,-32
    339c:	afbf0014 	sw	ra,20(sp)
    33a0:	0c00043c 	jal	10f0 <frame_dummy>
    33a4:	0c000603 	jal	180c <__do_global_ctors_aux>
    33a8:	8fbf0014 	lw	ra,20(sp)
    33ac:	27bd0020 	addiu	sp,sp,32
    33b0:	03e00008 	jr	ra

Disassembly of section .fini:

000033b4 <_fini>:
    33b4:	27bdffe0 	addiu	sp,sp,-32
    33b8:	afbf0014 	sw	ra,20(sp)
    33bc:	0c00040b 	jal	102c <__do_global_dtors_aux>
    33c0:	8fbf0014 	lw	ra,20(sp)
    33c4:	27bd0020 	addiu	sp,sp,32
    33c8:	03e00008 	jr	ra

Disassembly of section .rodata:

000033cc <__clz_tab>:
    33cc:	02020100 	0x2020100
    33d0:	03030303 	0x3030303
    33d4:	04040404 	0x4040404
    33d8:	04040404 	0x4040404
    33dc:	05050505 	0x5050505
    33e0:	05050505 	0x5050505
    33e4:	05050505 	0x5050505
    33e8:	05050505 	0x5050505
    33ec:	06060606 	0x6060606
    33f0:	06060606 	0x6060606
    33f4:	06060606 	0x6060606
    33f8:	06060606 	0x6060606
    33fc:	06060606 	0x6060606
    3400:	06060606 	0x6060606
    3404:	06060606 	0x6060606
    3408:	06060606 	0x6060606
    340c:	07070707 	0x7070707
    3410:	07070707 	0x7070707
    3414:	07070707 	0x7070707
    3418:	07070707 	0x7070707
    341c:	07070707 	0x7070707
    3420:	07070707 	0x7070707
    3424:	07070707 	0x7070707
    3428:	07070707 	0x7070707
    342c:	07070707 	0x7070707
    3430:	07070707 	0x7070707
    3434:	07070707 	0x7070707
    3438:	07070707 	0x7070707
    343c:	07070707 	0x7070707
    3440:	07070707 	0x7070707
    3444:	07070707 	0x7070707
    3448:	07070707 	0x7070707
    344c:	08080808 	j	202020 <_end+0x1ebe28>
    3450:	08080808 	j	202020 <_end+0x1ebe28>
    3454:	08080808 	j	202020 <_end+0x1ebe28>
    3458:	08080808 	j	202020 <_end+0x1ebe28>
    345c:	08080808 	j	202020 <_end+0x1ebe28>
    3460:	08080808 	j	202020 <_end+0x1ebe28>
    3464:	08080808 	j	202020 <_end+0x1ebe28>
    3468:	08080808 	j	202020 <_end+0x1ebe28>
    346c:	08080808 	j	202020 <_end+0x1ebe28>
    3470:	08080808 	j	202020 <_end+0x1ebe28>
    3474:	08080808 	j	202020 <_end+0x1ebe28>
    3478:	08080808 	j	202020 <_end+0x1ebe28>
    347c:	08080808 	j	202020 <_end+0x1ebe28>
    3480:	08080808 	j	202020 <_end+0x1ebe28>
    3484:	08080808 	j	202020 <_end+0x1ebe28>
    3488:	08080808 	j	202020 <_end+0x1ebe28>
    348c:	08080808 	j	202020 <_end+0x1ebe28>
    3490:	08080808 	j	202020 <_end+0x1ebe28>
    3494:	08080808 	j	202020 <_end+0x1ebe28>
    3498:	08080808 	j	202020 <_end+0x1ebe28>
    349c:	08080808 	j	202020 <_end+0x1ebe28>
    34a0:	08080808 	j	202020 <_end+0x1ebe28>
    34a4:	08080808 	j	202020 <_end+0x1ebe28>
    34a8:	08080808 	j	202020 <_end+0x1ebe28>
    34ac:	08080808 	j	202020 <_end+0x1ebe28>
    34b0:	08080808 	j	202020 <_end+0x1ebe28>
    34b4:	08080808 	j	202020 <_end+0x1ebe28>
    34b8:	08080808 	j	202020 <_end+0x1ebe28>
    34bc:	08080808 	j	202020 <_end+0x1ebe28>
    34c0:	08080808 	j	202020 <_end+0x1ebe28>
    34c4:	08080808 	j	202020 <_end+0x1ebe28>
    34c8:	08080808 	j	202020 <_end+0x1ebe28>
    34cc:	00000043 	sra	zero,zero,0x1

Disassembly of section .ctors:

000034d0 <__CTOR_LIST__>:
    34d0:	ffffffff 	sdc3	$31,-1(ra)

000034d4 <__CTOR_END__>:
    34d4:	00000000 	nop

Disassembly of section .dtors:

000034d8 <__DTOR_LIST__>:
    34d8:	ffffffff 	sdc3	$31,-1(ra)

000034dc <__DTOR_END__>:
    34dc:	00000000 	nop

Disassembly of section .eh_frame:

000034e0 <__EH_FRAME_BEGIN__>:
    34e0:	00000010 	mfhi	zero
    34e4:	00000000 	nop
    34e8:	00527a01 	0x527a01
    34ec:	011f7c01 	0x11f7c01
    34f0:	001d0d0b 	0x1d0d0b
    34f4:	00000010 	mfhi	zero
    34f8:	00000018 	mult	zero,zero
    34fc:	00001160 	0x1160
    3500:	00000090 	0x90
    3504:	00000000 	nop
    3508:	00000010 	mfhi	zero
    350c:	0000002c 	0x2c
    3510:	000011f0 	tge	zero,zero,0x47
    3514:	00000380 	sll	zero,zero,0xe
    3518:	00000000 	nop
    351c:	0000001c 	0x1c
    3520:	00000040 	ssnop
    3524:	00001570 	tge	zero,zero,0x55
    3528:	0000029c 	0x29c
    352c:	100e4400 	beq	zero,t7,14530 <_gp+0x73c8>
    3530:	99039150 	lwr	a0,-28336(a5)
    3534:	0d019f02 	jal	4067c08 <_end+0x4051a10>
    3538:	00000019 	multu	zero,zero

0000353c <__FRAME_END__>:
    353c:	00000000 	nop
    3540:	00000010 	mfhi	zero
    3544:	00000064 	0x64
    3548:	00001870 	tge	zero,zero,0x61
    354c:	00000014 	0x14
    3550:	00000000 	nop
    3554:	00000018 	mult	zero,zero
    3558:	00000078 	0x78
    355c:	00001884 	0x1884
    3560:	00000030 	tge	zero,zero
    3564:	080e4400 	j	391000 <_end+0x37ae08>
    3568:	91019f50 	lbu	v0,-24752(a5)
    356c:	00000002 	srl	zero,zero,0x0
    3570:	00000020 	add	zero,zero,zero
    3574:	00000094 	0x94
    3578:	000018b4 	teq	zero,zero,0x62
    357c:	00000144 	0x144
    3580:	180e4400 	0x180e4400
    3584:	5c069148 	0x5c069148
    3588:	0592019f 	bltzall	t5,3c08 <_fdata+0x2d8>
    358c:	03940493 	0x3940493
    3590:	00000295 	0x295
    3594:	00000028 	0x28
    3598:	000000b8 	0xb8
    359c:	000019f8 	0x19f8
    35a0:	00000168 	0x168
    35a4:	300e4400 	andi	t7,zero,0x4400
    35a8:	6c059648 	0x6c059648
    35ac:	09920a91 	j	6482a44 <_end+0x646c84c>
    35b0:	06950893 	0x6950893
    35b4:	019f0398 	0x19f0398
    35b8:	04970794 	0x4970794
    35bc:	00000299 	0x299
    35c0:	00000010 	mfhi	zero
    35c4:	000000e4 	0xe4
    35c8:	00001b60 	0x1b60
    35cc:	00000008 	jr	zero
    35d0:	00000000 	nop
    35d4:	00000010 	mfhi	zero
    35d8:	000000f8 	0xf8
    35dc:	00001b68 	0x1b68
    35e0:	0000000c 	syscall
    35e4:	00000000 	nop
    35e8:	00000018 	mult	zero,zero
    35ec:	0000010c 	syscall	0x4
    35f0:	00001b74 	teq	zero,zero,0x6d
    35f4:	00000038 	0x38
    35f8:	080e4400 	j	391000 <_end+0x37ae08>
    35fc:	91019f4c 	lbu	v0,-24756(a5)
    3600:	00000002 	srl	zero,zero,0x0
    3604:	00000010 	mfhi	zero
    3608:	00000128 	0x128
    360c:	00001bac 	0x1bac
    3610:	00000008 	jr	zero
    3614:	00000000 	nop
    3618:	00000020 	add	zero,zero,zero
    361c:	0000013c 	0x13c
    3620:	00001bb4 	teq	zero,zero,0x6e
    3624:	000000a8 	0xa8
    3628:	180e4400 	0x180e4400
    362c:	50039348 	beql	zero,a0,fffe8350 <_end+0xfffd2158>
    3630:	04920591 	bltzall	a1,4c78 <impure_data+0x358>
    3634:	9f480294 	0x9f480294
    3638:	00000001 	movf	zero,zero,$fcc0
    363c:	00000018 	mult	zero,zero
    3640:	00000160 	0x160
    3644:	00001c5c 	0x1c5c
    3648:	00000040 	ssnop
    364c:	080e4400 	j	391000 <_end+0x37ae08>
    3650:	91019f4c 	lbu	v0,-24756(a5)
    3654:	00000002 	srl	zero,zero,0x0
    3658:	0000001c 	0x1c
    365c:	0000017c 	0x17c
    3660:	00001c9c 	0x1c9c
    3664:	0000009c 	0x9c
    3668:	100e4400 	beq	zero,t7,1466c <_gp+0x7504>
    366c:	4c049148 	0x4c049148
    3670:	0392019f 	0x392019f
    3674:	00000293 	0x293
    3678:	00000010 	mfhi	zero
    367c:	0000019c 	0x19c
    3680:	00001d38 	0x1d38
    3684:	00000008 	jr	zero
    3688:	00000000 	nop
    368c:	00000010 	mfhi	zero
    3690:	000001b0 	tge	zero,zero,0x6
    3694:	00001d40 	sll	a0,zero,0x15
    3698:	00000008 	jr	zero
    369c:	00000000 	nop
    36a0:	00000010 	mfhi	zero
    36a4:	000001c4 	0x1c4
    36a8:	00001d48 	0x1d48
    36ac:	00000024 	and	zero,zero,zero
    36b0:	00000000 	nop
    36b4:	00000010 	mfhi	zero
    36b8:	000001d8 	0x1d8
    36bc:	00001d6c 	0x1d6c
    36c0:	00000024 	and	zero,zero,zero
    36c4:	00000000 	nop
    36c8:	00000010 	mfhi	zero
    36cc:	000001ec 	0x1ec
    36d0:	00001d90 	0x1d90
    36d4:	00000024 	and	zero,zero,zero
    36d8:	00000000 	nop
    36dc:	00000010 	mfhi	zero
    36e0:	00000200 	sll	zero,zero,0x8
    36e4:	00001db4 	teq	zero,zero,0x76
    36e8:	00000024 	and	zero,zero,zero
    36ec:	00000000 	nop
    36f0:	00000010 	mfhi	zero
    36f4:	00000214 	0x214
    36f8:	00001dd8 	0x1dd8
    36fc:	00000028 	0x28
    3700:	00000000 	nop
    3704:	00000010 	mfhi	zero
    3708:	00000228 	0x228
    370c:	00001e00 	sll	a0,zero,0x18
    3710:	00000028 	0x28
    3714:	00000000 	nop
    3718:	00000010 	mfhi	zero
    371c:	0000023c 	0x23c
    3720:	00001e28 	0x1e28
    3724:	00000028 	0x28
    3728:	00000000 	nop
    372c:	00000010 	mfhi	zero
    3730:	00000250 	0x250
    3734:	00001e50 	0x1e50
    3738:	00000028 	0x28
    373c:	00000000 	nop
    3740:	00000010 	mfhi	zero
    3744:	00000264 	0x264
    3748:	00001e78 	0x1e78
    374c:	00000028 	0x28
    3750:	00000000 	nop
    3754:	00000010 	mfhi	zero
    3758:	00000278 	0x278
    375c:	00001ea0 	0x1ea0
    3760:	00000014 	0x14
    3764:	00000000 	nop
    3768:	00000010 	mfhi	zero
    376c:	0000028c 	syscall	0xa
    3770:	00001eb4 	teq	zero,zero,0x7a
    3774:	00000014 	0x14
    3778:	00000000 	nop
    377c:	00000010 	mfhi	zero
    3780:	000002a0 	0x2a0
    3784:	00001ec8 	0x1ec8
    3788:	00000008 	jr	zero
    378c:	00000000 	nop
    3790:	00000010 	mfhi	zero
    3794:	000002b4 	teq	zero,zero,0xa
    3798:	00001ed0 	0x1ed0
    379c:	00000014 	0x14
    37a0:	00000000 	nop
    37a4:	00000010 	mfhi	zero
    37a8:	000002c8 	0x2c8
    37ac:	00001ee4 	0x1ee4
    37b0:	00000014 	0x14
    37b4:	00000000 	nop
    37b8:	00000010 	mfhi	zero
    37bc:	000002dc 	0x2dc
    37c0:	00001ef8 	0x1ef8
    37c4:	00000008 	jr	zero
    37c8:	00000000 	nop
    37cc:	00000010 	mfhi	zero
    37d0:	000002f0 	tge	zero,zero,0xb
    37d4:	00001f00 	sll	a0,zero,0x1c
    37d8:	00000030 	tge	zero,zero
    37dc:	00000000 	nop
    37e0:	00000010 	mfhi	zero
    37e4:	00000304 	0x304
    37e8:	00001f30 	tge	zero,zero,0x7c
    37ec:	0000000c 	syscall
    37f0:	00000000 	nop
    37f4:	00000018 	mult	zero,zero
    37f8:	00000318 	0x318
    37fc:	00001f3c 	0x1f3c
    3800:	00000070 	tge	zero,zero,0x1
    3804:	080e4400 	j	391000 <_end+0x37ae08>
    3808:	9f02914c 	0x9f02914c
    380c:	00000001 	movf	zero,zero,$fcc0
    3810:	00000010 	mfhi	zero
    3814:	00000334 	teq	zero,zero,0xc
    3818:	00001fac 	0x1fac
    381c:	00000044 	0x44
    3820:	00000000 	nop
    3824:	00000010 	mfhi	zero
    3828:	00000348 	0x348
    382c:	00001ff0 	tge	zero,zero,0x7f
    3830:	0000052c 	0x52c
    3834:	00000000 	nop
    3838:	0000001c 	0x1c
    383c:	0000035c 	0x35c
    3840:	0000251c 	0x251c
    3844:	000000ac 	0xac
    3848:	180e4400 	0x180e4400
    384c:	92059158 	lbu	a2,-28328(t9)
    3850:	9f039304 	0x9f039304
    3854:	00029401 	0x29401
    3858:	00000018 	mult	zero,zero
    385c:	0000037c 	0x37c
    3860:	000025c8 	0x25c8
    3864:	00000040 	ssnop
    3868:	100e4400 	beq	zero,t7,1486c <_gp+0x7704>
    386c:	50039148 	beql	zero,a0,fffe7d90 <_end+0xfffd1b98>
    3870:	0292019f 	0x292019f
    3874:	0000001c 	0x1c
    3878:	00000398 	0x398
    387c:	00002608 	0x2608
    3880:	0000010c 	syscall	0x4
    3884:	180e4800 	0x180e4800
    3888:	93059158 	lbu	a2,-28328(s7)
    388c:	9f029403 	0x9f029403
    3890:	00049201 	0x49201
    3894:	00000020 	add	zero,zero,zero
    3898:	000003b8 	0x3b8
    389c:	00002714 	0x2714
    38a0:	0000012c 	0x12c
    38a4:	180e4400 	0x180e4400
    38a8:	54049248 	bnel	zero,a1,fffe81cc <_end+0xfffd1fd4>
    38ac:	03930591 	0x3930591
    38b0:	9f480294 	0x9f480294
    38b4:	00000001 	movf	zero,zero,$fcc0
    38b8:	00000018 	mult	zero,zero
    38bc:	000003dc 	0x3dc
    38c0:	00002840 	sll	a2,zero,0x1
    38c4:	000002d0 	0x2d0
    38c8:	100e4400 	beq	zero,t7,148cc <_gp+0x7764>
    38cc:	91019f50 	lbu	v0,-24752(a5)
    38d0:	00029203 	sra	s1,v1,0x8
    38d4:	00000010 	mfhi	zero
    38d8:	000003f8 	0x3f8
    38dc:	00002b10 	0x2b10
    38e0:	0000002c 	0x2c
    38e4:	00000000 	nop
    38e8:	00000024 	and	zero,zero,zero
    38ec:	0000040c 	syscall	0x10
    38f0:	00002b3c 	0x2b3c
    38f4:	0000080c 	syscall	0x20
    38f8:	280e4800 	slti	t7,zero,18432
    38fc:	9309916c 	lbu	a6,-28308(s7)
    3900:	95069407 	lhu	a3,-27641(a5)
    3904:	97049605 	lhu	a1,-27131(s7)
    3908:	9f029803 	amo.and	s2,s7,v1
    390c:	00089201 	0x89201
    3910:	00000018 	mult	zero,zero
    3914:	00000434 	teq	zero,zero,0x10
    3918:	00003348 	0x3348
    391c:	00000050 	0x50
    3920:	080e4400 	j	391000 <_end+0x37ae08>
    3924:	4c029148 	0x4c029148
    3928:	0000019f 	0x19f

Disassembly of section .jcr:

0000392c <__JCR_END__>:
    392c:	00000000 	nop

Disassembly of section .data:

00003930 <kv>:
    3930:	000002fe 	0x2fe
    3934:	000006f4 	teq	zero,zero,0x1b
    3938:	000008e6 	0x8e6
    393c:	00000911 	0x911
    3940:	00000a74 	teq	zero,zero,0x29
    3944:	00001229 	0x1229
    3948:	00001b7d 	0x1b7d
    394c:	00001cfb 	0x1cfb
    3950:	000026bb 	0x26bb
    3954:	00002ba1 	0x2ba1
    3958:	00002bd7 	0x2bd7
    395c:	00002d13 	0x2d13
    3960:	00002dc1 	0x2dc1
    3964:	0000316c 	0x316c
    3968:	000033ad 	0x33ad
    396c:	00003437 	0x3437
    3970:	0000394f 	0x394f
    3974:	0000412f 	0x412f
    3978:	00004241 	0x4241
    397c:	000042de 	0x42de
    3980:	000048bc 	0x48bc
    3984:	0000493d 	0x493d
    3988:	00004ba4 	0x4ba4
    398c:	00004bf8 	0x4bf8
    3990:	00004eca 	0x4eca
    3994:	00005721 	0x5721
    3998:	00006141 	0x6141
    399c:	000062db 	0x62db
    39a0:	00006814 	0x6814
    39a4:	000073c8 	0x73c8
    39a8:	0000743f 	0x743f
    39ac:	000077c6 	0x77c6
    39b0:	00007841 	0x7841
    39b4:	00007a78 	0x7a78
    39b8:	00007b54 	0x7b54
    39bc:	00007bc5 	0x7bc5
    39c0:	00008195 	0x8195
    39c4:	00008910 	0x8910
    39c8:	00009391 	0x9391
    39cc:	00009415 	0x9415
    39d0:	00009524 	0x9524
    39d4:	000096d5 	0x96d5
    39d8:	00009bb9 	0x9bb9
    39dc:	0000a364 	0xa364
    39e0:	0000a673 	tltu	zero,zero,0x299
    39e4:	0000b281 	0xb281
    39e8:	0000b32f 	0xb32f
    39ec:	0000b7f1 	tgeu	zero,zero,0x2df
    39f0:	0000b89e 	0xb89e
    39f4:	0000bd6b 	0xbd6b
    39f8:	0000be39 	0xbe39
    39fc:	0000bfa2 	0xbfa2
    3a00:	0000c68a 	0xc68a
    3a04:	0000c778 	0xc778
    3a08:	0000cea1 	0xcea1
    3a0c:	0000d124 	0xd124
    3a10:	0000da56 	0xda56
    3a14:	0000dc2f 	0xdc2f
    3a18:	0000e7e4 	0xe7e4
    3a1c:	0000ebe7 	0xebe7
    3a20:	0000f048 	0xf048
    3a24:	0001001c 	0x1001c
    3a28:	0001017c 	0x1017c
    3a2c:	00010caa 	0x10caa
    3a30:	00010dc1 	0x10dc1
    3a34:	00010e9f 	0x10e9f
    3a38:	00011360 	0x11360
    3a3c:	000114da 	0x114da
    3a40:	00011754 	0x11754
    3a44:	00011af7 	0x11af7
    3a48:	00011ed1 	0x11ed1
    3a4c:	00011fbe 	0x11fbe
    3a50:	0001290f 	0x1290f
    3a54:	00012bf2 	tlt	zero,v0,0xaf
    3a58:	00012c15 	0x12c15
    3a5c:	00012dfc 	0x12dfc
    3a60:	00013082 	srl	a3,v0,0x2
    3a64:	000135f3 	tltu	zero,v0,0xd7
    3a68:	0001396b 	0x1396b
    3a6c:	00013aca 	0x13aca
    3a70:	00014000 	sll	a5,v0,0x0
    3a74:	00014244 	0x14244
    3a78:	000142c2 	srl	a5,v0,0xb
    3a7c:	000146a4 	0x146a4
    3a80:	000149a3 	0x149a3
    3a84:	00014b88 	0x14b88
    3a88:	00014d9f 	0x14d9f
    3a8c:	000150f8 	0x150f8
    3a90:	000150f9 	0x150f9
    3a94:	00015245 	0x15245
    3a98:	000154b5 	0x154b5
    3a9c:	00015f6e 	0x15f6e
    3aa0:	00015fc8 	0x15fc8
    3aa4:	000164cb 	0x164cb
    3aa8:	000165f8 	0x165f8
    3aac:	000168ab 	0x168ab
    3ab0:	00016e5b 	0x16e5b
    3ab4:	00017686 	0x17686
    3ab8:	00017c34 	teq	zero,v0,0x1f0
    3abc:	00017d74 	teq	zero,v0,0x1f5
    3ac0:	000182db 	0x182db
    3ac4:	0001887e 	0x1887e
    3ac8:	000188bb 	0x188bb
    3acc:	00018add 	0x18add
    3ad0:	0001910e 	0x1910e
    3ad4:	000191e0 	0x191e0
    3ad8:	000194fe 	0x194fe
    3adc:	00019742 	srl	s1,v0,0x1d
    3ae0:	00019a46 	0x19a46
    3ae4:	00019a62 	0x19a62
    3ae8:	0001a60b 	0x1a60b
    3aec:	0001ad6d 	0x1ad6d
    3af0:	0001af53 	0x1af53
    3af4:	0001b13c 	0x1b13c
    3af8:	0001b31a 	0x1b31a
    3afc:	0001b723 	0x1b723
    3b00:	0001beff 	0x1beff
    3b04:	0001c02d 	0x1c02d
    3b08:	0001cb56 	0x1cb56
    3b0c:	0001d0e5 	0x1d0e5
    3b10:	0001d33c 	0x1d33c
    3b14:	0001d389 	0x1d389
    3b18:	0001d686 	0x1d686
    3b1c:	0001db0b 	0x1db0b
    3b20:	0001dc50 	0x1dc50
    3b24:	0001dffc 	0x1dffc
    3b28:	0001e32f 	0x1e32f
    3b2c:	0001ecbb 	0x1ecbb
    3b30:	0001edb9 	0x1edb9
    3b34:	0001efa1 	0x1efa1
    3b38:	0001f85f 	0x1f85f
    3b3c:	0001fa86 	0x1fa86
    3b40:	0001faf6 	tne	zero,v0,0x3eb
    3b44:	0001feae 	0x1feae
    3b48:	000202e0 	0x202e0
    3b4c:	00020496 	0x20496
    3b50:	00020619 	0x20619
    3b54:	00020c8f 	0x20c8f
    3b58:	00020cdf 	0x20cdf
    3b5c:	000213e8 	0x213e8
    3b60:	00021826 	xor	a0,zero,v1
    3b64:	00021af4 	teq	zero,v1,0x6b
    3b68:	00021ed2 	0x21ed2
    3b6c:	000225c9 	0x225c9
    3b70:	000227b5 	0x227b5
    3b74:	00022b6e 	0x22b6e
    3b78:	00022feb 	0x22feb
    3b7c:	0002311d 	0x2311d
    3b80:	00023469 	0x23469
    3b84:	00024566 	0x24566
    3b88:	0002475d 	0x2475d
    3b8c:	00024eb5 	0x24eb5
    3b90:	00025233 	tltu	zero,v1,0x148
    3b94:	0002544c 	syscall	0x951
    3b98:	00025b73 	tltu	zero,v1,0x16d
    3b9c:	0002648f 	0x2648f
    3ba0:	000265f9 	0x265f9
    3ba4:	0002720f 	0x2720f
    3ba8:	0002728c 	syscall	0x9ca
    3bac:	000273a4 	0x273a4
    3bb0:	000281a0 	0x281a0
    3bb4:	0002849a 	0x2849a
    3bb8:	00028f90 	0x28f90
    3bbc:	000293a6 	0x293a6
    3bc0:	000297b8 	0x297b8
    3bc4:	00029959 	0x29959
    3bc8:	00029c8e 	0x29c8e
    3bcc:	0002a12b 	0x2a12b
    3bd0:	0002a1a1 	0x2a1a1
    3bd4:	0002a4b0 	tge	zero,v1,0x292
    3bd8:	0002a9a6 	0x2a9a6
    3bdc:	0002ad43 	sra	s4,v1,0x15
    3be0:	0002b2ba 	0x2b2ba
    3be4:	0002b8a0 	0x2b8a0
    3be8:	0002b947 	0x2b947
    3bec:	0002b9f4 	teq	zero,v1,0x2e7
    3bf0:	0002bac0 	sll	s6,v1,0xb
    3bf4:	0002cecf 	0x2cecf
    3bf8:	0002d268 	0x2d268
    3bfc:	0002d9b2 	tlt	zero,v1,0x366
    3c00:	0002d9b9 	0x2d9b9
    3c04:	0002da93 	0x2da93
    3c08:	0002dce4 	0x2dce4
    3c0c:	0002f8f6 	tne	zero,v1,0x3e3
    3c10:	0002fa3d 	0x2fa3d
    3c14:	0002fdeb 	0x2fdeb
    3c18:	000312ba 	0x312ba
    3c1c:	00032045 	0x32045
    3c20:	00032068 	0x32068
    3c24:	0003246a 	0x3246a
    3c28:	0003247f 	0x3247f
    3c2c:	00032a16 	0x32a16
    3c30:	00032a4e 	0x32a4e
    3c34:	00032aeb 	0x32aeb
    3c38:	00032b56 	0x32b56
    3c3c:	00032ccf 	0x32ccf
    3c40:	00032ece 	0x32ece
    3c44:	00032ee4 	0x32ee4
    3c48:	000333ba 	0x333ba
    3c4c:	000334c8 	0x334c8
    3c50:	000336fe 	0x336fe
    3c54:	00033f64 	0x33f64
    3c58:	00034132 	tlt	zero,a0,0x104
    3c5c:	00034ad5 	0x34ad5
    3c60:	00035520 	0x35520
    3c64:	000357ba 	0x357ba
    3c68:	0003584f 	0x3584f
    3c6c:	000366dd 	0x366dd
    3c70:	00036732 	tlt	zero,a0,0x19c
    3c74:	00036a29 	0x36a29
    3c78:	00036f25 	0x36f25
    3c7c:	0003704d 	break	0x3,0x1c1
    3c80:	00037641 	0x37641
    3c84:	00037981 	0x37981
    3c88:	00037a21 	0x37a21
    3c8c:	00037ef6 	tne	zero,a0,0x1fb
    3c90:	00038773 	tltu	zero,a0,0x21d
    3c94:	00038ab3 	tltu	zero,a0,0x22a
    3c98:	00038cde 	0x38cde
    3c9c:	00038e0c 	syscall	0xe38
    3ca0:	0003909a 	0x3909a
    3ca4:	00039163 	0x39163
    3ca8:	000391a5 	0x391a5
    3cac:	0003933c 	0x3933c
    3cb0:	00039f58 	0x39f58
    3cb4:	00039f6e 	0x39f6e
    3cb8:	0003a8cf 	0x3a8cf
    3cbc:	0003a9cd 	break	0x3,0x2a7
    3cc0:	0003b2c2 	srl	s5,a0,0xb
    3cc4:	0003ba52 	0x3ba52
    3cc8:	0003bf94 	0x3bf94
    3ccc:	0003c601 	0x3c601
    3cd0:	0003c635 	0x3c635
    3cd4:	0003c6ea 	0x3c6ea
    3cd8:	0003c748 	0x3c748
    3cdc:	0003d449 	0x3d449
    3ce0:	0003d9dc 	0x3d9dc
    3ce4:	0003db99 	0x3db99
    3ce8:	0003e79f 	0x3e79f
    3cec:	0003e8c2 	srl	sp,a0,0x3
    3cf0:	0003f31f 	0x3f31f
    3cf4:	0003f72b 	0x3f72b
    3cf8:	0003f968 	0x3f968
    3cfc:	0003fc0b 	0x3fc0b
    3d00:	0003fc84 	0x3fc84
    3d04:	0003fe76 	tne	zero,a0,0x3f9
    3d08:	00040010 	0x40010
    3d0c:	00040141 	0x40141
    3d10:	00040254 	0x40254
    3d14:	00040327 	0x40327
    3d18:	0004033d 	0x4033d
    3d1c:	0004061e 	0x4061e
    3d20:	00040717 	0x40717
    3d24:	00040a41 	0x40a41
    3d28:	00040b41 	0x40b41
    3d2c:	000416e8 	0x416e8
    3d30:	000421f4 	teq	zero,a1,0x87
    3d34:	00042353 	0x42353
    3d38:	00042513 	0x42513
    3d3c:	00042810 	0x42810
    3d40:	00042828 	0x42828
    3d44:	000428a4 	0x428a4
    3d48:	00042bfe 	0x42bfe
    3d4c:	00042fac 	0x42fac
    3d50:	0004303f 	0x4303f
    3d54:	0004373d 	0x4373d
    3d58:	00043a91 	0x43a91
    3d5c:	000447d5 	0x447d5
    3d60:	00044ad2 	0x44ad2
    3d64:	00044b23 	0x44b23
    3d68:	0004506b 	0x4506b
    3d6c:	000457d3 	0x457d3
    3d70:	00045abd 	0x45abd
    3d74:	00045d17 	0x45d17
    3d78:	000465ce 	0x465ce
    3d7c:	00046686 	0x46686
    3d80:	00046b0c 	syscall	0x11ac
    3d84:	0004764d 	break	0x4,0x1d9
    3d88:	000478a1 	0x478a1
    3d8c:	00047af9 	0x47af9
    3d90:	00048236 	tne	zero,a1,0x208
    3d94:	00048b35 	0x48b35
    3d98:	00049222 	0x49222
    3d9c:	000496dc 	0x496dc
    3da0:	000498cd 	break	0x4,0x263
    3da4:	0004a4c2 	srl	s3,a1,0x13
    3da8:	0004a58c 	syscall	0x1296
    3dac:	0004ab15 	0x4ab15
    3db0:	0004af97 	0x4af97
    3db4:	0004b7d9 	0x4b7d9
    3db8:	0004c0b5 	0x4c0b5
    3dbc:	0004c2d0 	0x4c2d0
    3dc0:	0004c92d 	0x4c92d
    3dc4:	0004cae0 	0x4cae0
    3dc8:	0004cfa5 	0x4cfa5
    3dcc:	0004d2a2 	0x4d2a2
    3dd0:	0004d31a 	0x4d31a
    3dd4:	0004d341 	0x4d341
    3dd8:	0004d39e 	0x4d39e
    3ddc:	0004d439 	0x4d439
    3de0:	0004d945 	0x4d945
    3de4:	0004d9cc 	syscall	0x1367
    3de8:	0004da29 	0x4da29
    3dec:	0004df71 	tgeu	zero,a1,0x37d
    3df0:	0004dfa2 	0x4dfa2
    3df4:	0004e59b 	0x4e59b
    3df8:	0004e905 	0x4e905
    3dfc:	0004ee50 	0x4ee50
    3e00:	0004ee58 	0x4ee58
    3e04:	0004f987 	0x4f987
    3e08:	0004faef 	0x4faef
    3e0c:	00050178 	0x50178
    3e10:	000505b8 	0x505b8
    3e14:	00050c63 	0x50c63
    3e18:	00051866 	0x51866
    3e1c:	00051b0d 	break	0x5,0x6c
    3e20:	00051b18 	0x51b18
    3e24:	00051de9 	0x51de9
    3e28:	00051e58 	0x51e58
    3e2c:	00051ed5 	0x51ed5
    3e30:	00052137 	0x52137
    3e34:	000521e3 	0x521e3
    3e38:	0005286e 	0x5286e
    3e3c:	000529b7 	0x529b7
    3e40:	00052acf 	0x52acf
    3e44:	0005309f 	0x5309f
    3e48:	00053955 	0x53955
    3e4c:	00053eb9 	0x53eb9
    3e50:	0005445e 	0x5445e
    3e54:	00054585 	0x54585
    3e58:	00054770 	tge	zero,a2,0x11d
    3e5c:	00055e70 	tge	zero,a2,0x179
    3e60:	00056675 	0x56675
    3e64:	000568f9 	0x568f9
    3e68:	00056921 	0x56921
    3e6c:	00056ce7 	0x56ce7
    3e70:	00056fc4 	0x56fc4
    3e74:	000579c9 	0x579c9
    3e78:	00057cd5 	0x57cd5
    3e7c:	00057f41 	0x57f41
    3e80:	000581ab 	0x581ab
    3e84:	000585bb 	0x585bb
    3e88:	00058c8e 	0x58c8e
    3e8c:	00058de2 	0x58de2
    3e90:	0005b108 	0x5b108
    3e94:	0005b282 	srl	s5,a2,0xa
    3e98:	0005b29e 	0x5b29e
    3e9c:	0005b448 	0x5b448
    3ea0:	0005b4dd 	0x5b4dd
    3ea4:	0005bb8f 	0x5bb8f
    3ea8:	0005bbcd 	break	0x5,0x2ef
    3eac:	0005bc09 	0x5bc09
    3eb0:	0005bcb3 	tltu	zero,a2,0x2f2
    3eb4:	0005bdee 	0x5bdee
    3eb8:	0005be42 	srl	s6,a2,0x19
    3ebc:	0005be8f 	0x5be8f
    3ec0:	0005c63c 	0x5c63c
    3ec4:	0005c667 	0x5c667
    3ec8:	0005c68c 	syscall	0x171a
    3ecc:	0005d002 	srl	k0,a2,0x0
    3ed0:	0005d01c 	0x5d01c
    3ed4:	0005d2b0 	tge	zero,a2,0x34a
    3ed8:	0005d3a9 	0x5d3a9
    3edc:	0005dd0b 	0x5dd0b
    3ee0:	0005dd3d 	0x5dd3d
    3ee4:	0005e04e 	0x5e04e
    3ee8:	0005e09b 	0x5e09b
    3eec:	0005e4ef 	0x5e4ef
    3ef0:	0005ea30 	tge	zero,a2,0x3a8
    3ef4:	0005eb81 	0x5eb81
    3ef8:	0005ec16 	0x5ec16
    3efc:	00060612 	0x60612
    3f00:	00060865 	0x60865
    3f04:	000609a5 	0x609a5
    3f08:	00060c52 	0x60c52
    3f0c:	00060e1f 	0x60e1f
    3f10:	00060fa0 	0x60fa0
    3f14:	0006101d 	0x6101d
    3f18:	00061077 	0x61077
    3f1c:	000611c2 	srl	v1,a3,0x7
    3f20:	000613bb 	0x613bb
    3f24:	00061479 	0x61479
    3f28:	00061771 	tgeu	zero,a3,0x5d
    3f2c:	00061ce4 	0x61ce4
    3f30:	00061d70 	tge	zero,a3,0x75
    3f34:	00062147 	0x62147
    3f38:	000621e8 	0x621e8
    3f3c:	000623ad 	0x623ad
    3f40:	00062f56 	0x62f56
    3f44:	000631fb 	0x631fb
    3f48:	0006345d 	0x6345d
    3f4c:	00063567 	0x63567
    3f50:	0006382f 	0x6382f
    3f54:	00063879 	0x63879
    3f58:	000638d9 	0x638d9
    3f5c:	00063b67 	0x63b67
    3f60:	000648c1 	0x648c1
    3f64:	00064bac 	0x64bac
    3f68:	00064bf5 	0x64bf5
    3f6c:	00064ea8 	0x64ea8
    3f70:	000653ef 	0x653ef
    3f74:	00065885 	0x65885
    3f78:	000658e5 	0x658e5
    3f7c:	00065f43 	sra	t4,a3,0x1d
    3f80:	00065f6a 	0x65f6a
    3f84:	00066392 	0x66392
    3f88:	00066732 	tlt	zero,a3,0x19c
    3f8c:	0006675e 	0x6675e
    3f90:	00066b77 	0x66b77
    3f94:	00066d83 	sra	t6,a3,0x16
    3f98:	00066eb4 	teq	zero,a3,0x1ba
    3f9c:	00068050 	0x68050
    3fa0:	00068280 	sll	t9,a3,0xa
    3fa4:	000682e4 	0x682e4
    3fa8:	00068502 	srl	t9,a3,0x14
    3fac:	00068865 	0x68865
    3fb0:	00068b0b 	0x68b0b
    3fb4:	00069636 	tne	zero,a3,0x258
    3fb8:	00069840 	sll	s2,a3,0x1
    3fbc:	00069f1b 	0x69f1b
    3fc0:	0006a493 	0x6a493
    3fc4:	0006ac04 	0x6ac04
    3fc8:	0006ae86 	0x6ae86
    3fcc:	0006afdb 	0x6afdb
    3fd0:	0006b156 	0x6b156
    3fd4:	0006b449 	0x6b449
    3fd8:	0006b585 	0x6b585
    3fdc:	0006b73c 	0x6b73c
    3fe0:	0006b969 	0x6b969
    3fe4:	0006baa6 	0x6baa6
    3fe8:	0006bbf5 	0x6bbf5
    3fec:	0006c140 	sll	s7,a3,0x5
    3ff0:	0006c7e1 	0x6c7e1
    3ff4:	0006c8eb 	0x6c8eb
    3ff8:	0006cda6 	0x6cda6
    3ffc:	0006d21d 	0x6d21d
    4000:	0006d525 	0x6d525
    4004:	0006d59d 	0x6d59d
    4008:	0006d842 	srl	k1,a3,0x1
    400c:	0006e151 	0x6e151
    4010:	0006e715 	0x6e715
    4014:	0006f0d7 	0x6f0d7
    4018:	0006f31e 	0x6f31e
    401c:	0006f875 	0x6f875
    4020:	0006fac0 	sll	ra,a3,0xb
    4024:	000705c5 	0x705c5
    4028:	00070b8c 	syscall	0x1c2e
    402c:	00070e89 	0x70e89
    4030:	0007180a 	movz	a0,zero,a4
    4034:	000718cb 	0x718cb
    4038:	000719f2 	tlt	zero,a4,0x67
    403c:	00071d49 	0x71d49
    4040:	00071f77 	0x71f77
    4044:	000720da 	0x720da
    4048:	00072619 	0x72619
    404c:	00072be7 	0x72be7
    4050:	00072d3c 	0x72d3c
    4054:	00072f16 	0x72f16
    4058:	000732f3 	tltu	zero,a4,0xcb
    405c:	0007363e 	0x7363e
    4060:	00073872 	tlt	zero,a4,0xe1
    4064:	00073c38 	0x73c38
    4068:	000740f9 	0x740f9
    406c:	000742de 	0x742de
    4070:	00074614 	0x74614
    4074:	00074702 	srl	a5,a4,0x1c
    4078:	000749c2 	srl	a6,a4,0x7
    407c:	00074b1b 	0x74b1b
    4080:	0007501b 	0x7501b
    4084:	00075107 	0x75107
    4088:	0007527b 	0x7527b
    408c:	0007540c 	syscall	0x1d50
    4090:	00075749 	0x75749
    4094:	000757d3 	0x757d3
    4098:	000757f7 	0x757f7
    409c:	00075b73 	tltu	zero,a4,0x16d
    40a0:	00075f13 	0x75f13
    40a4:	00076034 	teq	zero,a4,0x180
    40a8:	000765cc 	syscall	0x1d97
    40ac:	00076ebf 	0x76ebf
    40b0:	0007728b 	0x7728b
    40b4:	00077412 	0x77412
    40b8:	000777f6 	tne	zero,a4,0x1df
    40bc:	00077a94 	0x77a94
    40c0:	00077d43 	sra	t8,a4,0x15
    40c4:	00077d62 	0x77d62
    40c8:	000783e6 	0x783e6
    40cc:	000786e9 	0x786e9
    40d0:	000787ac 	0x787ac
    40d4:	00078916 	0x78916
    40d8:	00079191 	0x79191
    40dc:	00079a6c 	0x79a6c
    40e0:	00079ac9 	0x79ac9
    40e4:	00079ec1 	0x79ec1
    40e8:	00079f0d 	break	0x7,0x27c
    40ec:	00079ffb 	0x79ffb
    40f0:	0007a4e1 	0x7a4e1
    40f4:	0007a823 	negu	s4,a4
    40f8:	0007abe7 	0x7abe7
    40fc:	0007ad60 	0x7ad60
    4100:	0007af2f 	0x7af2f
    4104:	0007afaf 	0x7afaf
    4108:	0007b1bb 	0x7b1bb
    410c:	0007b37e 	0x7b37e
    4110:	0007b777 	0x7b777
    4114:	0007bfaf 	0x7bfaf
    4118:	0007cad7 	0x7cad7
    411c:	0007cb86 	0x7cb86
    4120:	0007cce7 	0x7cce7
    4124:	0007cd0c 	syscall	0x1f34
    4128:	0007ce41 	0x7ce41
    412c:	0007cf26 	0x7cf26
    4130:	0007d0a9 	0x7d0a9
    4134:	0007d0eb 	0x7d0eb
    4138:	0007d1e6 	0x7d1e6
    413c:	0007d23f 	0x7d23f
    4140:	0007d5a8 	0x7d5a8
    4144:	0007d921 	0x7d921
    4148:	0007d960 	0x7d960
    414c:	0007dbd8 	0x7dbd8
    4150:	0007dd2e 	0x7dd2e
    4154:	0007def5 	0x7def5
    4158:	0007df99 	0x7df99
    415c:	0007e602 	srl	gp,a4,0x18
    4160:	0007e647 	0x7e647
    4164:	0007eb46 	0x7eb46
    4168:	0007f361 	0x7f361
    416c:	0007f389 	0x7f389
    4170:	0007f9cc 	syscall	0x1fe7
    4174:	0007fa49 	0x7fa49
    4178:	0007fad6 	0x7fad6
    417c:	0008077b 	0x8077b
    4180:	00080b05 	0x80b05
    4184:	00081c17 	0x81c17
    4188:	00081fc2 	srl	a0,a5,0x1f
    418c:	0008247f 	0x8247f
    4190:	0008262e 	0x8262e
    4194:	0008283f 	0x8283f
    4198:	00082fbc 	0x82fbc
    419c:	00083005 	0x83005
    41a0:	0008331e 	0x8331e
    41a4:	00083ab9 	0x83ab9
    41a8:	0008424b 	0x8424b
    41ac:	00084275 	0x84275
    41b0:	00084a2d 	0x84a2d
    41b4:	00084b10 	0x84b10
    41b8:	00084bec 	0x84bec
    41bc:	0008511b 	0x8511b
    41c0:	000862ce 	0x862ce
    41c4:	00086638 	0x86638
    41c8:	00086cc3 	sra	t6,a5,0x13
    41cc:	000878c4 	0x878c4
    41d0:	000879fd 	0x879fd
    41d4:	00087e56 	0x87e56
    41d8:	000883ed 	0x883ed
    41dc:	00088f67 	0x88f67
    41e0:	000890db 	0x890db
    41e4:	00089551 	0x89551
    41e8:	00089f5c 	0x89f5c
    41ec:	0008a03d 	0x8a03d
    41f0:	0008a1fb 	0x8a1fb
    41f4:	0008a67b 	0x8a67b
    41f8:	0008ab94 	0x8ab94
    41fc:	0008ae6d 	0x8ae6d
    4200:	0008b049 	0x8b049
    4204:	0008b327 	0x8b327
    4208:	0008b48e 	0x8b48e
    420c:	0008b79e 	0x8b79e
    4210:	0008bc7c 	0x8bc7c
    4214:	0008ce84 	0x8ce84
    4218:	0008d223 	0x8d223
    421c:	0008d4e9 	0x8d4e9
    4220:	0008ded4 	0x8ded4
    4224:	0008e29f 	0x8e29f
    4228:	0008e549 	0x8e549
    422c:	0008ee9e 	0x8ee9e
    4230:	0008f050 	0x8f050
    4234:	0008f77e 	0x8f77e
    4238:	0008fdd2 	0x8fdd2
    423c:	0008fdea 	0x8fdea
    4240:	00090151 	0x90151
    4244:	00090251 	0x90251
    4248:	00090279 	0x90279
    424c:	00090606 	0x90606
    4250:	00090682 	srl	zero,a6,0x1a
    4254:	000909e2 	0x909e2
    4258:	00090e03 	sra	v0,a6,0x18
    425c:	00091304 	0x91304
    4260:	00091325 	0x91325
    4264:	000914d1 	0x914d1
    4268:	00091879 	0x91879
    426c:	00091a02 	srl	a0,a6,0x8
    4270:	00091d81 	0x91d81
    4274:	00091deb 	0x91deb
    4278:	00092000 	sll	a1,a6,0x0
    427c:	0009237d 	0x9237d
    4280:	00092554 	0x92554
    4284:	000925ec 	0x925ec
    4288:	00092601 	0x92601
    428c:	00092c7b 	0x92c7b
    4290:	00092e68 	0x92e68
    4294:	00093167 	0x93167
    4298:	00093706 	0x93706
    429c:	00093907 	0x93907
    42a0:	00093ddb 	0x93ddb
    42a4:	00094257 	0x94257
    42a8:	000942cf 	0x942cf
    42ac:	0009462d 	0x9462d
    42b0:	00094852 	0x94852
    42b4:	000949db 	0x949db
    42b8:	00094d09 	0x94d09
    42bc:	00094dd9 	0x94dd9
    42c0:	0009515a 	0x9515a
    42c4:	000953a7 	0x953a7
    42c8:	00095f89 	0x95f89
    42cc:	00095fe2 	0x95fe2
    42d0:	0009667b 	0x9667b
    42d4:	00096804 	sllv	t6,a6,zero
    42d8:	0009690f 	0x9690f
    42dc:	00097031 	tgeu	zero,a6,0x1c0
    42e0:	00097880 	sll	t8,a6,0x2
    42e4:	000978c6 	0x978c6
    42e8:	000979e7 	0x979e7
    42ec:	0009840a 	0x9840a
    42f0:	0009889d 	0x9889d
    42f4:	00098b40 	sll	s0,a6,0xd
    42f8:	000998e8 	0x998e8
    42fc:	00099910 	0x99910
    4300:	0009a117 	0x9a117
    4304:	0009a698 	0x9a698
    4308:	0009a6f5 	0x9a6f5
    430c:	0009a82e 	0x9a82e
    4310:	0009a883 	sra	s4,a6,0x2
    4314:	0009a982 	srl	s4,a6,0x6
    4318:	0009ad12 	0x9ad12
    431c:	0009b2b0 	tge	zero,a6,0x2ca
    4320:	0009b2f4 	teq	zero,a6,0x2cb
    4324:	0009b88e 	0x9b88e
    4328:	0009c0ad 	0x9c0ad
    432c:	0009c0f9 	0x9c0f9
    4330:	0009c62b 	0x9c62b
    4334:	0009cc4d 	break	0x9,0x331
    4338:	0009cfd1 	0x9cfd1
    433c:	0009d1e6 	0x9d1e6
    4340:	0009d36f 	0x9d36f
    4344:	0009d976 	tne	zero,a6,0x365
    4348:	0009d978 	0x9d978
    434c:	0009ddef 	0x9ddef
    4350:	0009df00 	sll	k1,a6,0x1c
    4354:	0009e0f7 	0x9e0f7
    4358:	0009e1c8 	0x9e1c8
    435c:	0009e499 	0x9e499
    4360:	0009e80a 	movz	sp,zero,a6
    4364:	0009ef62 	0x9ef62
    4368:	0009f172 	tlt	zero,a6,0x3c5
    436c:	0009f214 	0x9f214
    4370:	0009f35d 	0x9f35d
    4374:	000a04be 	0xa04be
    4378:	000a052a 	0xa052a
    437c:	000a113c 	0xa113c
    4380:	000a1451 	0xa1451
    4384:	000a1509 	0xa1509
    4388:	000a1f08 	0xa1f08
    438c:	000a2878 	0xa2878
    4390:	000a2e5b 	0xa2e5b
    4394:	000a30ac 	0xa30ac
    4398:	000a34d9 	0xa34d9
    439c:	000a3ae3 	0xa3ae3
    43a0:	000a3e66 	0xa3e66
    43a4:	000a43ed 	0xa43ed
    43a8:	000a54d3 	0xa54d3
    43ac:	000a55a5 	0xa55a5
    43b0:	000a57d3 	0xa57d3
    43b4:	000a5985 	0xa5985
    43b8:	000a5ef6 	tne	zero,a7,0x17b
    43bc:	000a64e5 	0xa64e5
    43c0:	000a6566 	0xa6566
    43c4:	000a6b20 	0xa6b20
    43c8:	000a6b53 	0xa6b53
    43cc:	000a6f49 	0xa6f49
    43d0:	000a72eb 	0xa72eb
    43d4:	000a74e6 	0xa74e6
    43d8:	000a8751 	0xa8751
    43dc:	000a8757 	0xa8757
    43e0:	000a877c 	0xa877c
    43e4:	000a90b9 	0xa90b9
    43e8:	000a9236 	tne	zero,a7,0x248
    43ec:	000a93ee 	0xa93ee
    43f0:	000a97c0 	sll	s1,a7,0x1f
    43f4:	000a98b3 	tltu	zero,a7,0x262
    43f8:	000aa9d6 	0xaa9d6
    43fc:	000aae54 	0xaae54
    4400:	000aafce 	0xaafce
    4404:	000abab3 	tltu	zero,a7,0x2ea
    4408:	000abe91 	0xabe91
    440c:	000abebf 	0xabebf
    4410:	000ac856 	0xac856
    4414:	000ad1cf 	0xad1cf
    4418:	000ad20d 	break	0xa,0x348
    441c:	000ad364 	0xad364
    4420:	000ae592 	0xae592
    4424:	000aef7d 	0xaef7d
    4428:	000af266 	0xaf266
    442c:	000af5b8 	0xaf5b8
    4430:	000afdea 	0xafdea
    4434:	000b0209 	0xb0209
    4438:	000b0621 	0xb0621
    443c:	000b09ae 	0xb09ae
    4440:	000b09d4 	0xb09d4
    4444:	000b0f6a 	0xb0f6a
    4448:	000b12ff 	0xb12ff
    444c:	000b21f8 	0xb21f8
    4450:	000b2347 	0xb2347
    4454:	000b312d 	0xb312d
    4458:	000b3834 	teq	zero,t4,0xe0
    445c:	000b3b2c 	0xb3b2c
    4460:	000b3c25 	0xb3c25
    4464:	000b41bb 	0xb41bb
    4468:	000b4300 	sll	a5,t4,0xc
    446c:	000b49fa 	0xb49fa
    4470:	000b4b1b 	0xb4b1b
    4474:	000b52c1 	0xb52c1
    4478:	000b5f66 	0xb5f66
    447c:	000b612e 	0xb612e
    4480:	000b663e 	0xb663e
    4484:	000b6926 	0xb6926
    4488:	000b6e6c 	0xb6e6c
    448c:	000b730e 	0xb730e
    4490:	000b7871 	tgeu	zero,t4,0x1e1
    4494:	000b7907 	0xb7907
    4498:	000b792c 	0xb792c
    449c:	000b7cd5 	0xb7cd5
    44a0:	000b856c 	0xb856c
    44a4:	000b880f 	0xb880f
    44a8:	000b8c13 	0xb8c13
    44ac:	000b8e80 	sll	s0,t4,0x1a
    44b0:	000b8ef2 	tlt	zero,t4,0x23b
    44b4:	000b90be 	0xb90be
    44b8:	000b944a 	0xb944a
    44bc:	000b95ca 	0xb95ca
    44c0:	000b9841 	0xb9841
    44c4:	000b9842 	srl	s2,t4,0x1
    44c8:	000b9b19 	0xb9b19
    44cc:	000b9d36 	tne	zero,t4,0x274
    44d0:	000b9f56 	0xb9f56
    44d4:	000ba321 	0xba321
    44d8:	000bbd3b 	0xbbd3b
    44dc:	000bc7d7 	0xbc7d7
    44e0:	000bc811 	0xbc811
    44e4:	000bcde8 	0xbcde8
    44e8:	000bd29e 	0xbd29e
    44ec:	000bd41b 	0xbd41b
    44f0:	000bd556 	0xbd556
    44f4:	000bdfe0 	0xbdfe0
    44f8:	000bf4ad 	0xbf4ad
    44fc:	000bf50b 	0xbf50b
    4500:	000bf5b9 	0xbf5b9
    4504:	000bfbe3 	0xbfbe3
    4508:	000bff01 	0xbff01
    450c:	000c012a 	0xc012a
    4510:	000c01ba 	0xc01ba
    4514:	000c05ac 	0xc05ac
    4518:	000c0a7a 	0xc0a7a
    451c:	000c0bd3 	0xc0bd3
    4520:	000c0f66 	0xc0f66
    4524:	000c1239 	0xc1239
    4528:	000c12f6 	tne	zero,t5,0x4b
    452c:	000c24c8 	0xc24c8
    4530:	000c274d 	break	0xc,0x9d
    4534:	000c279b 	0xc279b
    4538:	000c2c2f 	0xc2c2f
    453c:	000c2e7c 	0xc2e7c
    4540:	000c311c 	0xc311c
    4544:	000c35db 	0xc35db
    4548:	000c3c3c 	0xc3c3c
    454c:	000c48e0 	0xc48e0
    4550:	000c4c36 	tne	zero,t5,0x130
    4554:	000c4d6d 	0xc4d6d
    4558:	000c50a7 	0xc50a7
    455c:	000c526c 	0xc526c
    4560:	000c5962 	0xc5962
    4564:	000c5b7b 	0xc5b7b
    4568:	000c5df0 	tge	zero,t5,0x177
    456c:	000c5e48 	0xc5e48
    4570:	000c657a 	0xc657a
    4574:	000c664d 	break	0xc,0x199
    4578:	000c677e 	0xc677e
    457c:	000c6bdd 	0xc6bdd
    4580:	000c6cb7 	0xc6cb7
    4584:	000c6e40 	sll	t6,t5,0x19
    4588:	000c7222 	0xc7222
    458c:	000c7347 	0xc7347
    4590:	000c7496 	0xc7496
    4594:	000c7528 	0xc7528
    4598:	000c800a 	movz	t9,zero,t5
    459c:	000c80c4 	0xc80c4
    45a0:	000c85a4 	0xc85a4
    45a4:	000c8a3a 	0xc8a3a
    45a8:	000c91e4 	0xc91e4
    45ac:	000c980f 	0xc980f
    45b0:	000ca294 	0xca294
    45b4:	000cab20 	0xcab20
    45b8:	000cb121 	0xcb121
    45bc:	000cb751 	0xcb751
    45c0:	000cbfdc 	0xcbfdc
    45c4:	000cc00f 	0xcc00f
    45c8:	000cc058 	0xcc058
    45cc:	000cc061 	0xcc061
    45d0:	000cc8bc 	0xcc8bc
    45d4:	000cca46 	0xcca46
    45d8:	000ccd75 	0xccd75
    45dc:	000cd114 	0xcd114
    45e0:	000cd8c7 	0xcd8c7
    45e4:	000ce22b 	0xce22b
    45e8:	000ce41a 	0xce41a
    45ec:	000ce780 	sll	gp,t5,0x1e
    45f0:	000ce9c9 	0xce9c9
    45f4:	000cee17 	0xcee17
    45f8:	000cf87b 	0xcf87b
    45fc:	000cf891 	0xcf891
    4600:	000cf9a2 	0xcf9a2
    4604:	000d028c 	syscall	0x340a
    4608:	000d0507 	0xd0507
    460c:	000d13fe 	0xd13fe
    4610:	000d1643 	sra	v1,t6,0x19
    4614:	000d198f 	0xd198f
    4618:	000d29a5 	0xd29a5
    461c:	000d2ac6 	0xd2ac6
    4620:	000d2ba4 	0xd2ba4
    4624:	000d3073 	tltu	zero,t6,0xc1
    4628:	000d3453 	0xd3453
    462c:	000d34df 	0xd34df
    4630:	000d36b0 	tge	zero,t6,0xda
    4634:	000d3802 	srl	a4,t6,0x0
    4638:	000d39dc 	0xd39dc
    463c:	000d3a0f 	0xd3a0f
    4640:	000d3d62 	0xd3d62
    4644:	000d3e2c 	0xd3e2c
    4648:	000d42ec 	0xd42ec
    464c:	000d4761 	0xd4761
    4650:	000d4e28 	0xd4e28
    4654:	000d4f61 	0xd4f61
    4658:	000d5253 	0xd5253
    465c:	000d5467 	0xd5467
    4660:	000d57bb 	0xd57bb
    4664:	000d5ced 	0xd5ced
    4668:	000d6096 	0xd6096
    466c:	000d620b 	0xd620b
    4670:	000d6231 	tgeu	zero,t6,0x188
    4674:	000d64e7 	0xd64e7
    4678:	000d65f6 	tne	zero,t6,0x197
    467c:	000d69cf 	0xd69cf
    4680:	000d6b4f 	0xd6b4f
    4684:	000d6d7a 	0xd6d7a
    4688:	000d6ed6 	0xd6ed6
    468c:	000d6f83 	sra	t6,t6,0x1e
    4690:	000d711f 	0xd711f
    4694:	000d7485 	0xd7485
    4698:	000d7cae 	0xd7cae
    469c:	000d7d7e 	0xd7d7e
    46a0:	000d7edd 	0xd7edd
    46a4:	000d8045 	0xd8045
    46a8:	000d805f 	0xd805f
    46ac:	000d81b1 	tgeu	zero,t6,0x206
    46b0:	000d8353 	0xd8353
    46b4:	000d8c0c 	syscall	0x3630
    46b8:	000d904a 	0xd904a
    46bc:	000d932e 	0xd932e
    46c0:	000d9af3 	tltu	zero,t6,0x26b
    46c4:	000d9f3c 	0xd9f3c
    46c8:	000d9fed 	0xd9fed
    46cc:	000da383 	sra	s3,t6,0xe
    46d0:	000da45e 	0xda45e
    46d4:	000da48d 	break	0xd,0x292
    46d8:	000da7ad 	0xda7ad
    46dc:	000daa98 	0xdaa98
    46e0:	000db4ca 	0xdb4ca
    46e4:	000db4f4 	teq	zero,t6,0x2d3
    46e8:	000db74d 	break	0xd,0x2dd
    46ec:	000dba07 	0xdba07
    46f0:	000dbe6e 	0xdbe6e
    46f4:	000dc129 	0xdc129
    46f8:	000dc726 	0xdc726
    46fc:	000dcbb3 	tltu	zero,t6,0x32e
    4700:	000dd409 	0xdd409
    4704:	000dd60b 	0xdd60b
    4708:	000dd7e8 	0xdd7e8
    470c:	000dd96c 	0xdd96c
    4710:	000ddc2a 	0xddc2a
    4714:	000de19a 	0xde19a
    4718:	000de77e 	0xde77e
    471c:	000ded46 	0xded46
    4720:	000ded57 	0xded57
    4724:	000df284 	0xdf284
    4728:	000df686 	0xdf686
    472c:	000df8bc 	0xdf8bc
    4730:	000dfa27 	0xdfa27
    4734:	000e008e 	0xe008e
    4738:	000e00f1 	tgeu	zero,t7,0x3
    473c:	000e01f6 	tne	zero,t7,0x7
    4740:	000e03ce 	0xe03ce
    4744:	000e03e9 	0xe03e9
    4748:	000e082b 	sltu	v0,zero,t7
    474c:	000e0851 	0xe0851
    4750:	000e0894 	0xe0894
    4754:	000e0d7f 	0xe0d7f
    4758:	000e10d4 	0xe10d4
    475c:	000e1179 	0xe1179
    4760:	000e1763 	0xe1763
    4764:	000e190f 	0xe190f
    4768:	000e20b8 	0xe20b8
    476c:	000e21be 	0xe21be
    4770:	000e229a 	0xe229a
    4774:	000e285d 	0xe285d
    4778:	000e2bd0 	0xe2bd0
    477c:	000e2c52 	0xe2c52
    4780:	000e394b 	0xe394b
    4784:	000e3d8e 	0xe3d8e
    4788:	000e3ea1 	0xe3ea1
    478c:	000e3ee8 	0xe3ee8
    4790:	000e4226 	0xe4226
    4794:	000e425c 	0xe425c
    4798:	000e4619 	0xe4619
    479c:	000e493c 	0xe493c
    47a0:	000e4f8d 	break	0xe,0x13e
    47a4:	000e5435 	0xe5435
    47a8:	000e5689 	0xe5689
    47ac:	000e56a2 	0xe56a2
    47b0:	000e593e 	0xe593e
    47b4:	000e5b8f 	0xe5b8f
    47b8:	000e6074 	teq	zero,t7,0x181
    47bc:	000e6686 	0xe6686
    47c0:	000e6920 	0xe6920
    47c4:	000e732d 	0xe732d
    47c8:	000e7467 	0xe7467
    47cc:	000e7b97 	0xe7b97
    47d0:	000e7c73 	tltu	zero,t7,0x1f1
    47d4:	000e8103 	sra	t9,t7,0x4
    47d8:	000e8f5a 	0xe8f5a
    47dc:	000e905c 	0xe905c
    47e0:	000e9253 	0xe9253
    47e4:	000e9304 	0xe9304
    47e8:	000e9581 	0xe9581
    47ec:	000e95f7 	0xe95f7
    47f0:	000e987a 	0xe987a
    47f4:	000e9fe1 	0xe9fe1
    47f8:	000ea1e1 	0xea1e1
    47fc:	000ea46c 	0xea46c
    4800:	000ea74d 	break	0xe,0x29d
    4804:	000eaac4 	0xeaac4
    4808:	000eab7b 	0xeab7b
    480c:	000eae1b 	0xeae1b
    4810:	000eafe7 	0xeafe7
    4814:	000eb3f0 	tge	zero,t7,0x2cf
    4818:	000eb501 	0xeb501
    481c:	000eb61c 	0xeb61c
    4820:	000eb662 	0xeb662
    4824:	000eb7df 	0xeb7df
    4828:	000eb8d9 	0xeb8d9
    482c:	000eb932 	tlt	zero,t7,0x2e4
    4830:	000eba83 	sra	s6,t7,0xa
    4834:	000ebc49 	0xebc49
    4838:	000ebc8c 	syscall	0x3af2
    483c:	000ebca1 	0xebca1
    4840:	000ecedb 	0xecedb
    4844:	000ed247 	0xed247
    4848:	000ed774 	teq	zero,t7,0x35d
    484c:	000ee207 	0xee207
    4850:	000ee874 	teq	zero,t7,0x3a1
    4854:	000eea60 	0xeea60
    4858:	000ef074 	teq	zero,t7,0x3c1
    485c:	000ef1b7 	0xef1b7
    4860:	000ef3ac 	0xef3ac
    4864:	000ef658 	0xef658
    4868:	000ef846 	rorv	ra,t7,zero
    486c:	000efc79 	0xefc79
    4870:	000efdf2 	tlt	zero,t7,0x3f7
    4874:	000efef2 	tlt	zero,t7,0x3fb
    4878:	000eff9a 	0xeff9a
    487c:	000f0050 	0xf0050
    4880:	000f01a2 	0xf01a2
    4884:	000f01c0 	sll	zero,t8,0x7
    4888:	000f0252 	0xf0252
    488c:	000f06a1 	0xf06a1
    4890:	000f0ad1 	0xf0ad1
    4894:	000f0e3f 	0xf0e3f
    4898:	000f0ff1 	tgeu	zero,t8,0x3f
    489c:	000f12e7 	0xf12e7
    48a0:	000f16df 	0xf16df
    48a4:	000f203e 	0xf203e
    48a8:	000f2181 	0xf2181
    48ac:	000f246e 	0xf246e
    48b0:	000f24be 	0xf24be
    48b4:	000f2a55 	0xf2a55
    48b8:	000f2e62 	0xf2e62
    48bc:	000f2eaa 	0xf2eaa
    48c0:	000f306f 	0xf306f
    48c4:	000f3115 	0xf3115
    48c8:	000f31c8 	0xf31c8
    48cc:	000f361a 	0xf361a

000048d0 <keys>:
    48d0:	00048236 	tne	zero,a1,0x208
    48d4:	0007dd2e 	0x7dd2e
    48d8:	000d3802 	srl	a4,t6,0x0
    48dc:	00075b73 	tltu	zero,a4,0x16d
    48e0:	000e082b 	sltu	v0,zero,t7
    48e4:	000c6cb7 	0xc6cb7
    48e8:	0007cd0c 	syscall	0x1f34
    48ec:	000e493c 	0xe493c
    48f0:	0001d0e5 	0x1d0e5
    48f4:	000008e6 	0x8e6

000048f8 <ref>:
    48f8:	00000118 	0x118
    48fc:	00000208 	0x208
    4900:	00000341 	0x341
    4904:	000001db 	0x1db
    4908:	00000386 	0x386
    490c:	00000314 	0x314
    4910:	000001fd 	0x1fd
    4914:	0000039b 	0x39b
    4918:	00000077 	0x77
    491c:	00000002 	srl	zero,zero,0x0

00004920 <impure_data>:
    4920:	00000000 	nop
    4924:	00004c10 	0x4c10
    4928:	00004c80 	sll	a6,zero,0x12
    492c:	00004cf0 	tge	zero,zero,0x133
    4930:	00000000 	nop
    4934:	00000000 	nop
    4938:	00000000 	nop
    493c:	00000000 	nop
    4940:	00000000 	nop
    4944:	00000000 	nop
    4948:	00000000 	nop
    494c:	00000000 	nop
    4950:	00000000 	nop
    4954:	000034cc 	syscall	0xd3
    4958:	00000000 	nop
    495c:	00000000 	nop
    4960:	00000000 	nop
    4964:	00000000 	nop
    4968:	00000000 	nop
    496c:	00000000 	nop
    4970:	00000000 	nop
    4974:	00000000 	nop
    4978:	00000000 	nop
    497c:	00000000 	nop
    4980:	00000000 	nop
    4984:	00000000 	nop
    4988:	00000000 	nop
    498c:	00000000 	nop
    4990:	00000000 	nop
    4994:	00000000 	nop
    4998:	00000000 	nop
    499c:	00000000 	nop
    49a0:	00000000 	nop
    49a4:	00000000 	nop
    49a8:	00000000 	nop
    49ac:	00000000 	nop
    49b0:	00000000 	nop
    49b4:	00000000 	nop
    49b8:	00000000 	nop
    49bc:	00000000 	nop
    49c0:	00000000 	nop
    49c4:	00000000 	nop
    49c8:	00000001 	movf	zero,zero,$fcc0
    49cc:	00000000 	nop
    49d0:	abcd330e 	swl	t6,13070(at)
    49d4:	e66d1234 	swc1	t6,4660(s2)
    49d8:	0005deec 	0x5deec
    49dc:	0000000b 	movn	zero,zero,zero
    49e0:	00000000 	nop
    49e4:	00000000 	nop
    49e8:	00000000 	nop
    49ec:	00000000 	nop
    49f0:	00000000 	nop
    49f4:	00000000 	nop
    49f8:	00000000 	nop
    49fc:	00000000 	nop
    4a00:	00000000 	nop
    4a04:	00000000 	nop
    4a08:	00000000 	nop
    4a0c:	00000000 	nop
    4a10:	00000000 	nop
    4a14:	00000000 	nop
    4a18:	00000000 	nop
    4a1c:	00000000 	nop
    4a20:	00000000 	nop
    4a24:	00000000 	nop
    4a28:	00000000 	nop
    4a2c:	00000000 	nop
    4a30:	00000000 	nop
    4a34:	00000000 	nop
    4a38:	00000000 	nop
    4a3c:	00000000 	nop
    4a40:	00000000 	nop
    4a44:	00000000 	nop
    4a48:	00000000 	nop
    4a4c:	00000000 	nop
    4a50:	00000000 	nop
    4a54:	00000000 	nop
    4a58:	00000000 	nop
    4a5c:	00000000 	nop
    4a60:	00000000 	nop
    4a64:	00000000 	nop
    4a68:	00000000 	nop
    4a6c:	00000000 	nop
    4a70:	00000000 	nop
    4a74:	00000000 	nop
    4a78:	00000000 	nop
    4a7c:	00000000 	nop
    4a80:	00000000 	nop
    4a84:	00000000 	nop
    4a88:	00000000 	nop
    4a8c:	00000000 	nop
    4a90:	00000000 	nop
    4a94:	00000000 	nop
    4a98:	00000000 	nop
    4a9c:	00000000 	nop
    4aa0:	00000000 	nop
    4aa4:	00000000 	nop
    4aa8:	00000000 	nop
    4aac:	00000000 	nop
    4ab0:	00000000 	nop
    4ab4:	00000000 	nop
    4ab8:	00000000 	nop
    4abc:	00000000 	nop
    4ac0:	00000000 	nop
    4ac4:	00000000 	nop
    4ac8:	00000000 	nop
    4acc:	00000000 	nop
    4ad0:	00000000 	nop
    4ad4:	00000000 	nop
    4ad8:	00000000 	nop
    4adc:	00000000 	nop
    4ae0:	00000000 	nop
    4ae4:	00000000 	nop
    4ae8:	00000000 	nop
    4aec:	00000000 	nop
    4af0:	00000000 	nop
    4af4:	00000000 	nop
    4af8:	00000000 	nop
    4afc:	00000000 	nop
    4b00:	00000000 	nop
    4b04:	00000000 	nop
    4b08:	00000000 	nop
    4b0c:	00000000 	nop
    4b10:	00000000 	nop
    4b14:	00000000 	nop
    4b18:	00000000 	nop
    4b1c:	00000000 	nop
    4b20:	00000000 	nop
    4b24:	00000000 	nop
    4b28:	00000000 	nop
    4b2c:	00000000 	nop
    4b30:	00000000 	nop
    4b34:	00000000 	nop
    4b38:	00000000 	nop
    4b3c:	00000000 	nop
    4b40:	00000000 	nop
    4b44:	00000000 	nop
    4b48:	00000000 	nop
    4b4c:	00000000 	nop
    4b50:	00000000 	nop
    4b54:	00000000 	nop
    4b58:	00000000 	nop
    4b5c:	00000000 	nop
    4b60:	00000000 	nop
    4b64:	00000000 	nop
    4b68:	00000000 	nop
    4b6c:	00000000 	nop
    4b70:	00000000 	nop
    4b74:	00000000 	nop
    4b78:	00000000 	nop
    4b7c:	00000000 	nop
    4b80:	00000000 	nop
    4b84:	00000000 	nop
    4b88:	00000000 	nop
    4b8c:	00000000 	nop
    4b90:	00000000 	nop
    4b94:	00000000 	nop
    4b98:	00000000 	nop
    4b9c:	00000000 	nop
    4ba0:	00000000 	nop
    4ba4:	00000000 	nop
    4ba8:	00000000 	nop
    4bac:	00000000 	nop
    4bb0:	00000000 	nop
    4bb4:	00000000 	nop
    4bb8:	00000000 	nop
    4bbc:	00000000 	nop
    4bc0:	00000000 	nop
    4bc4:	00000000 	nop
    4bc8:	00000000 	nop
    4bcc:	00000000 	nop
    4bd0:	00000000 	nop
    4bd4:	00000000 	nop
    4bd8:	00000000 	nop
    4bdc:	00000000 	nop
    4be0:	00000000 	nop
    4be4:	00000000 	nop
    4be8:	00000000 	nop
    4bec:	00000000 	nop
    4bf0:	00000000 	nop
    4bf4:	00000000 	nop
    4bf8:	00000000 	nop
    4bfc:	00000000 	nop
    4c00:	00000000 	nop
    4c04:	00000000 	nop
    4c08:	00000000 	nop
    4c0c:	00000000 	nop
    4c10:	00000000 	nop
    4c14:	00000000 	nop
    4c18:	00000000 	nop
    4c1c:	00000000 	nop
    4c20:	00000000 	nop
    4c24:	00000000 	nop
    4c28:	00000000 	nop
    4c2c:	00000000 	nop
    4c30:	00000000 	nop
    4c34:	00000000 	nop
    4c38:	00000000 	nop
    4c3c:	00000000 	nop
    4c40:	00000000 	nop
    4c44:	00000000 	nop
    4c48:	00000000 	nop
    4c4c:	00000000 	nop
    4c50:	00000000 	nop
    4c54:	00000000 	nop
    4c58:	00000000 	nop
    4c5c:	00000000 	nop
    4c60:	00000000 	nop
    4c64:	00000000 	nop
    4c68:	00000000 	nop
    4c6c:	00000000 	nop
    4c70:	00000000 	nop
    4c74:	00000000 	nop
    4c78:	00000000 	nop
    4c7c:	00000000 	nop
    4c80:	00000000 	nop
    4c84:	00000000 	nop
    4c88:	00000000 	nop
    4c8c:	00000000 	nop
    4c90:	00000000 	nop
    4c94:	00000000 	nop
    4c98:	00000000 	nop
    4c9c:	00000000 	nop
    4ca0:	00000000 	nop
    4ca4:	00000000 	nop
    4ca8:	00000000 	nop
    4cac:	00000000 	nop
    4cb0:	00000000 	nop
    4cb4:	00000000 	nop
    4cb8:	00000000 	nop
    4cbc:	00000000 	nop
    4cc0:	00000000 	nop
    4cc4:	00000000 	nop
    4cc8:	00000000 	nop
    4ccc:	00000000 	nop
    4cd0:	00000000 	nop
    4cd4:	00000000 	nop
    4cd8:	00000000 	nop
    4cdc:	00000000 	nop
    4ce0:	00000000 	nop
    4ce4:	00000000 	nop
    4ce8:	00000000 	nop
    4cec:	00000000 	nop
    4cf0:	00000000 	nop
    4cf4:	00000000 	nop
    4cf8:	00000000 	nop
    4cfc:	00000000 	nop
    4d00:	00000000 	nop
    4d04:	00000000 	nop
    4d08:	00000000 	nop
    4d0c:	00000000 	nop
    4d10:	00000000 	nop
    4d14:	00000000 	nop
    4d18:	00000000 	nop
    4d1c:	00000000 	nop
    4d20:	00000000 	nop
    4d24:	00000000 	nop
    4d28:	00000000 	nop
    4d2c:	00000000 	nop
    4d30:	00000000 	nop
    4d34:	00000000 	nop
    4d38:	00000000 	nop
    4d3c:	00000000 	nop
    4d40:	00000000 	nop
    4d44:	00000000 	nop
    4d48:	00000000 	nop
    4d4c:	00000000 	nop
    4d50:	00000000 	nop
    4d54:	00000000 	nop
    4d58:	00000000 	nop
    4d5c:	00000000 	nop

00004d60 <__malloc_av_>:
    4d60:	00000000 	nop
    4d64:	00000000 	nop
    4d68:	00004d60 	0x4d60
    4d6c:	00004d60 	0x4d60
    4d70:	00004d68 	0x4d68
    4d74:	00004d68 	0x4d68
    4d78:	00004d70 	tge	zero,zero,0x135
    4d7c:	00004d70 	tge	zero,zero,0x135
    4d80:	00004d78 	0x4d78
    4d84:	00004d78 	0x4d78
    4d88:	00004d80 	sll	a6,zero,0x16
    4d8c:	00004d80 	sll	a6,zero,0x16
    4d90:	00004d88 	0x4d88
    4d94:	00004d88 	0x4d88
    4d98:	00004d90 	0x4d90
    4d9c:	00004d90 	0x4d90
    4da0:	00004d98 	0x4d98
    4da4:	00004d98 	0x4d98
    4da8:	00004da0 	0x4da0
    4dac:	00004da0 	0x4da0
    4db0:	00004da8 	0x4da8
    4db4:	00004da8 	0x4da8
    4db8:	00004db0 	tge	zero,zero,0x136
    4dbc:	00004db0 	tge	zero,zero,0x136
    4dc0:	00004db8 	0x4db8
    4dc4:	00004db8 	0x4db8
    4dc8:	00004dc0 	sll	a6,zero,0x17
    4dcc:	00004dc0 	sll	a6,zero,0x17
    4dd0:	00004dc8 	0x4dc8
    4dd4:	00004dc8 	0x4dc8
    4dd8:	00004dd0 	0x4dd0
    4ddc:	00004dd0 	0x4dd0
    4de0:	00004dd8 	0x4dd8
    4de4:	00004dd8 	0x4dd8
    4de8:	00004de0 	0x4de0
    4dec:	00004de0 	0x4de0
    4df0:	00004de8 	0x4de8
    4df4:	00004de8 	0x4de8
    4df8:	00004df0 	tge	zero,zero,0x137
    4dfc:	00004df0 	tge	zero,zero,0x137
    4e00:	00004df8 	0x4df8
    4e04:	00004df8 	0x4df8
    4e08:	00004e00 	sll	a6,zero,0x18
    4e0c:	00004e00 	sll	a6,zero,0x18
    4e10:	00004e08 	0x4e08
    4e14:	00004e08 	0x4e08
    4e18:	00004e10 	0x4e10
    4e1c:	00004e10 	0x4e10
    4e20:	00004e18 	0x4e18
    4e24:	00004e18 	0x4e18
    4e28:	00004e20 	0x4e20
    4e2c:	00004e20 	0x4e20
    4e30:	00004e28 	0x4e28
    4e34:	00004e28 	0x4e28
    4e38:	00004e30 	tge	zero,zero,0x138
    4e3c:	00004e30 	tge	zero,zero,0x138
    4e40:	00004e38 	0x4e38
    4e44:	00004e38 	0x4e38
    4e48:	00004e40 	sll	a6,zero,0x19
    4e4c:	00004e40 	sll	a6,zero,0x19
    4e50:	00004e48 	0x4e48
    4e54:	00004e48 	0x4e48
    4e58:	00004e50 	0x4e50
    4e5c:	00004e50 	0x4e50
    4e60:	00004e58 	0x4e58
    4e64:	00004e58 	0x4e58
    4e68:	00004e60 	0x4e60
    4e6c:	00004e60 	0x4e60
    4e70:	00004e68 	0x4e68
    4e74:	00004e68 	0x4e68
    4e78:	00004e70 	tge	zero,zero,0x139
    4e7c:	00004e70 	tge	zero,zero,0x139
    4e80:	00004e78 	0x4e78
    4e84:	00004e78 	0x4e78
    4e88:	00004e80 	sll	a6,zero,0x1a
    4e8c:	00004e80 	sll	a6,zero,0x1a
    4e90:	00004e88 	0x4e88
    4e94:	00004e88 	0x4e88
    4e98:	00004e90 	0x4e90
    4e9c:	00004e90 	0x4e90
    4ea0:	00004e98 	0x4e98
    4ea4:	00004e98 	0x4e98
    4ea8:	00004ea0 	0x4ea0
    4eac:	00004ea0 	0x4ea0
    4eb0:	00004ea8 	0x4ea8
    4eb4:	00004ea8 	0x4ea8
    4eb8:	00004eb0 	tge	zero,zero,0x13a
    4ebc:	00004eb0 	tge	zero,zero,0x13a
    4ec0:	00004eb8 	0x4eb8
    4ec4:	00004eb8 	0x4eb8
    4ec8:	00004ec0 	sll	a6,zero,0x1b
    4ecc:	00004ec0 	sll	a6,zero,0x1b
    4ed0:	00004ec8 	0x4ec8
    4ed4:	00004ec8 	0x4ec8
    4ed8:	00004ed0 	0x4ed0
    4edc:	00004ed0 	0x4ed0
    4ee0:	00004ed8 	0x4ed8
    4ee4:	00004ed8 	0x4ed8
    4ee8:	00004ee0 	0x4ee0
    4eec:	00004ee0 	0x4ee0
    4ef0:	00004ee8 	0x4ee8
    4ef4:	00004ee8 	0x4ee8
    4ef8:	00004ef0 	tge	zero,zero,0x13b
    4efc:	00004ef0 	tge	zero,zero,0x13b
    4f00:	00004ef8 	0x4ef8
    4f04:	00004ef8 	0x4ef8
    4f08:	00004f00 	sll	a6,zero,0x1c
    4f0c:	00004f00 	sll	a6,zero,0x1c
    4f10:	00004f08 	0x4f08
    4f14:	00004f08 	0x4f08
    4f18:	00004f10 	0x4f10
    4f1c:	00004f10 	0x4f10
    4f20:	00004f18 	0x4f18
    4f24:	00004f18 	0x4f18
    4f28:	00004f20 	0x4f20
    4f2c:	00004f20 	0x4f20
    4f30:	00004f28 	0x4f28
    4f34:	00004f28 	0x4f28
    4f38:	00004f30 	tge	zero,zero,0x13c
    4f3c:	00004f30 	tge	zero,zero,0x13c
    4f40:	00004f38 	0x4f38
    4f44:	00004f38 	0x4f38
    4f48:	00004f40 	sll	a6,zero,0x1d
    4f4c:	00004f40 	sll	a6,zero,0x1d
    4f50:	00004f48 	0x4f48
    4f54:	00004f48 	0x4f48
    4f58:	00004f50 	0x4f50
    4f5c:	00004f50 	0x4f50
    4f60:	00004f58 	0x4f58
    4f64:	00004f58 	0x4f58
    4f68:	00004f60 	0x4f60
    4f6c:	00004f60 	0x4f60
    4f70:	00004f68 	0x4f68
    4f74:	00004f68 	0x4f68
    4f78:	00004f70 	tge	zero,zero,0x13d
    4f7c:	00004f70 	tge	zero,zero,0x13d
    4f80:	00004f78 	0x4f78
    4f84:	00004f78 	0x4f78
    4f88:	00004f80 	sll	a6,zero,0x1e
    4f8c:	00004f80 	sll	a6,zero,0x1e
    4f90:	00004f88 	0x4f88
    4f94:	00004f88 	0x4f88
    4f98:	00004f90 	0x4f90
    4f9c:	00004f90 	0x4f90
    4fa0:	00004f98 	0x4f98
    4fa4:	00004f98 	0x4f98
    4fa8:	00004fa0 	0x4fa0
    4fac:	00004fa0 	0x4fa0
    4fb0:	00004fa8 	0x4fa8
    4fb4:	00004fa8 	0x4fa8
    4fb8:	00004fb0 	tge	zero,zero,0x13e
    4fbc:	00004fb0 	tge	zero,zero,0x13e
    4fc0:	00004fb8 	0x4fb8
    4fc4:	00004fb8 	0x4fb8
    4fc8:	00004fc0 	sll	a6,zero,0x1f
    4fcc:	00004fc0 	sll	a6,zero,0x1f
    4fd0:	00004fc8 	0x4fc8
    4fd4:	00004fc8 	0x4fc8
    4fd8:	00004fd0 	0x4fd0
    4fdc:	00004fd0 	0x4fd0
    4fe0:	00004fd8 	0x4fd8
    4fe4:	00004fd8 	0x4fd8
    4fe8:	00004fe0 	0x4fe0
    4fec:	00004fe0 	0x4fe0
    4ff0:	00004fe8 	0x4fe8
    4ff4:	00004fe8 	0x4fe8
    4ff8:	00004ff0 	tge	zero,zero,0x13f
    4ffc:	00004ff0 	tge	zero,zero,0x13f
    5000:	00004ff8 	0x4ff8
    5004:	00004ff8 	0x4ff8
    5008:	00005000 	sll	a7,zero,0x0
    500c:	00005000 	sll	a7,zero,0x0
    5010:	00005008 	0x5008
    5014:	00005008 	0x5008
    5018:	00005010 	mfhi	a7
    501c:	00005010 	mfhi	a7
    5020:	00005018 	0x5018
    5024:	00005018 	0x5018
    5028:	00005020 	add	a7,zero,zero
    502c:	00005020 	add	a7,zero,zero
    5030:	00005028 	0x5028
    5034:	00005028 	0x5028
    5038:	00005030 	tge	zero,zero,0x140
    503c:	00005030 	tge	zero,zero,0x140
    5040:	00005038 	0x5038
    5044:	00005038 	0x5038
    5048:	00005040 	sll	a7,zero,0x1
    504c:	00005040 	sll	a7,zero,0x1
    5050:	00005048 	0x5048
    5054:	00005048 	0x5048
    5058:	00005050 	0x5050
    505c:	00005050 	0x5050
    5060:	00005058 	0x5058
    5064:	00005058 	0x5058
    5068:	00005060 	0x5060
    506c:	00005060 	0x5060
    5070:	00005068 	0x5068
    5074:	00005068 	0x5068
    5078:	00005070 	tge	zero,zero,0x141
    507c:	00005070 	tge	zero,zero,0x141
    5080:	00005078 	0x5078
    5084:	00005078 	0x5078
    5088:	00005080 	sll	a7,zero,0x2
    508c:	00005080 	sll	a7,zero,0x2
    5090:	00005088 	0x5088
    5094:	00005088 	0x5088
    5098:	00005090 	0x5090
    509c:	00005090 	0x5090
    50a0:	00005098 	0x5098
    50a4:	00005098 	0x5098
    50a8:	000050a0 	0x50a0
    50ac:	000050a0 	0x50a0
    50b0:	000050a8 	0x50a8
    50b4:	000050a8 	0x50a8
    50b8:	000050b0 	tge	zero,zero,0x142
    50bc:	000050b0 	tge	zero,zero,0x142
    50c0:	000050b8 	0x50b8
    50c4:	000050b8 	0x50b8
    50c8:	000050c0 	sll	a7,zero,0x3
    50cc:	000050c0 	sll	a7,zero,0x3
    50d0:	000050c8 	0x50c8
    50d4:	000050c8 	0x50c8
    50d8:	000050d0 	0x50d0
    50dc:	000050d0 	0x50d0
    50e0:	000050d8 	0x50d8
    50e4:	000050d8 	0x50d8
    50e8:	000050e0 	0x50e0
    50ec:	000050e0 	0x50e0
    50f0:	000050e8 	0x50e8
    50f4:	000050e8 	0x50e8
    50f8:	000050f0 	tge	zero,zero,0x143
    50fc:	000050f0 	tge	zero,zero,0x143
    5100:	000050f8 	0x50f8
    5104:	000050f8 	0x50f8
    5108:	00005100 	sll	a7,zero,0x4
    510c:	00005100 	sll	a7,zero,0x4
    5110:	00005108 	0x5108
    5114:	00005108 	0x5108
    5118:	00005110 	0x5110
    511c:	00005110 	0x5110
    5120:	00005118 	0x5118
    5124:	00005118 	0x5118
    5128:	00005120 	0x5120
    512c:	00005120 	0x5120
    5130:	00005128 	0x5128
    5134:	00005128 	0x5128
    5138:	00005130 	tge	zero,zero,0x144
    513c:	00005130 	tge	zero,zero,0x144
    5140:	00005138 	0x5138
    5144:	00005138 	0x5138
    5148:	00005140 	sll	a7,zero,0x5
    514c:	00005140 	sll	a7,zero,0x5
    5150:	00005148 	0x5148
    5154:	00005148 	0x5148
    5158:	00005150 	0x5150
    515c:	00005150 	0x5150
    5160:	00005158 	0x5158
    5164:	00005158 	0x5158

Disassembly of section .sdata:

00005168 <__dso_handle>:
    5168:	00000000 	nop

0000516c <keys_sz>:
    516c:	0000000a 	movz	zero,zero,zero

00005170 <kv_sz>:
    5170:	000003e8 	0x3e8

00005174 <_impure_ptr>:
    5174:	00004920 	0x4920

00005178 <_global_impure_ptr>:
    5178:	00004920 	0x4920

0000517c <__malloc_trim_threshold>:
    517c:	00020000 	sll	zero,v1,0x0

00005180 <__malloc_sbrk_base>:
    5180:	ffffffff 	sdc3	$31,-1(ra)

Disassembly of section .sbss:

00005188 <lock.1487>:
    5188:	00000000 	nop
    518c:	00000000 	nop

00005190 <__malloc_lock_object>:
    5190:	00000000 	nop
    5194:	00000000 	nop

00005198 <__malloc_top_pad>:
    5198:	00000000 	nop

0000519c <__malloc_max_sbrked_mem>:
    519c:	00000000 	nop

000051a0 <__malloc_max_total_mem>:
    51a0:	00000000 	nop

000051a4 <errno>:
    51a4:	00000000 	nop

Disassembly of section .bss:

000051a8 <completed.2510>:
    51a8:	00000000 	nop

000051ac <dtor_idx.2512>:
    51ac:	00000000 	nop

000051b0 <object.2539>:
    51b0:	00000000 	nop
    51b4:	00000000 	nop
    51b8:	00000000 	nop
    51bc:	00000000 	nop
    51c0:	00000000 	nop
    51c4:	00000000 	nop

000051c8 <heap_end.1789>:
    51c8:	00000000 	nop

000051cc <__malloc_current_mallinfo>:
    51cc:	00000000 	nop
    51d0:	00000000 	nop
    51d4:	00000000 	nop
    51d8:	00000000 	nop
    51dc:	00000000 	nop
    51e0:	00000000 	nop
    51e4:	00000000 	nop
    51e8:	00000000 	nop
    51ec:	00000000 	nop
    51f0:	00000000 	nop
    51f4:	00000000 	nop

000051f8 <_reent_data>:
    51f8:	00000000 	nop
    51fc:	00000000 	nop
    5200:	00000000 	nop
    5204:	00000000 	nop
    5208:	00000000 	nop
    520c:	00000000 	nop
    5210:	00000000 	nop
    5214:	00000000 	nop
    5218:	00000000 	nop
    521c:	00000000 	nop
    5220:	00000000 	nop
    5224:	00000000 	nop
    5228:	00000000 	nop
    522c:	00000000 	nop
    5230:	00000000 	nop
    5234:	00000000 	nop
    5238:	00000000 	nop
    523c:	00000000 	nop
    5240:	00000000 	nop
    5244:	00000000 	nop
    5248:	00000000 	nop
    524c:	00000000 	nop
    5250:	00000000 	nop
    5254:	00000000 	nop
    5258:	00000000 	nop
    525c:	00000000 	nop
    5260:	00000000 	nop
    5264:	00000000 	nop
    5268:	00000000 	nop
    526c:	00000000 	nop
    5270:	00000000 	nop
    5274:	00000000 	nop
    5278:	00000000 	nop
    527c:	00000000 	nop
    5280:	00000000 	nop
    5284:	00000000 	nop
    5288:	00000000 	nop
    528c:	00000000 	nop
    5290:	00000000 	nop
    5294:	00000000 	nop
    5298:	00000000 	nop
    529c:	00000000 	nop
    52a0:	00000000 	nop
    52a4:	00000000 	nop
    52a8:	00000000 	nop
    52ac:	00000000 	nop
    52b0:	00000000 	nop
    52b4:	00000000 	nop
    52b8:	00000000 	nop
    52bc:	00000000 	nop
    52c0:	00000000 	nop
    52c4:	00000000 	nop
    52c8:	00000000 	nop
    52cc:	00000000 	nop
    52d0:	00000000 	nop
    52d4:	00000000 	nop
    52d8:	00000000 	nop
    52dc:	00000000 	nop
    52e0:	00000000 	nop
    52e4:	00000000 	nop
    52e8:	00000000 	nop
    52ec:	00000000 	nop
    52f0:	00000000 	nop
    52f4:	00000000 	nop
    52f8:	00000000 	nop
    52fc:	00000000 	nop
    5300:	00000000 	nop
    5304:	00000000 	nop
    5308:	00000000 	nop
    530c:	00000000 	nop
    5310:	00000000 	nop
    5314:	00000000 	nop
    5318:	00000000 	nop
    531c:	00000000 	nop
    5320:	00000000 	nop
    5324:	00000000 	nop
    5328:	00000000 	nop
    532c:	00000000 	nop
    5330:	00000000 	nop
    5334:	00000000 	nop
    5338:	00000000 	nop
    533c:	00000000 	nop
    5340:	00000000 	nop
    5344:	00000000 	nop
    5348:	00000000 	nop
    534c:	00000000 	nop
    5350:	00000000 	nop
    5354:	00000000 	nop
    5358:	00000000 	nop
    535c:	00000000 	nop
    5360:	00000000 	nop
    5364:	00000000 	nop
    5368:	00000000 	nop
    536c:	00000000 	nop
    5370:	00000000 	nop
    5374:	00000000 	nop
    5378:	00000000 	nop
    537c:	00000000 	nop
    5380:	00000000 	nop
    5384:	00000000 	nop
    5388:	00000000 	nop
    538c:	00000000 	nop
    5390:	00000000 	nop
    5394:	00000000 	nop
    5398:	00000000 	nop
    539c:	00000000 	nop
    53a0:	00000000 	nop
    53a4:	00000000 	nop
    53a8:	00000000 	nop
    53ac:	00000000 	nop
    53b0:	00000000 	nop
    53b4:	00000000 	nop
    53b8:	00000000 	nop
    53bc:	00000000 	nop
    53c0:	00000000 	nop
    53c4:	00000000 	nop
    53c8:	00000000 	nop
    53cc:	00000000 	nop
    53d0:	00000000 	nop
    53d4:	00000000 	nop
    53d8:	00000000 	nop
    53dc:	00000000 	nop
    53e0:	00000000 	nop
    53e4:	00000000 	nop
    53e8:	00000000 	nop
    53ec:	00000000 	nop
    53f0:	00000000 	nop
    53f4:	00000000 	nop
    53f8:	00000000 	nop
    53fc:	00000000 	nop
    5400:	00000000 	nop
    5404:	00000000 	nop
    5408:	00000000 	nop
    540c:	00000000 	nop
    5410:	00000000 	nop
    5414:	00000000 	nop
    5418:	00000000 	nop
    541c:	00000000 	nop
    5420:	00000000 	nop
    5424:	00000000 	nop
    5428:	00000000 	nop
    542c:	00000000 	nop
    5430:	00000000 	nop
    5434:	00000000 	nop
    5438:	00000000 	nop
    543c:	00000000 	nop
    5440:	00000000 	nop
    5444:	00000000 	nop
    5448:	00000000 	nop
    544c:	00000000 	nop
    5450:	00000000 	nop
    5454:	00000000 	nop
    5458:	00000000 	nop
    545c:	00000000 	nop
    5460:	00000000 	nop
    5464:	00000000 	nop
    5468:	00000000 	nop
    546c:	00000000 	nop
    5470:	00000000 	nop
    5474:	00000000 	nop
    5478:	00000000 	nop
    547c:	00000000 	nop
    5480:	00000000 	nop
    5484:	00000000 	nop
    5488:	00000000 	nop
    548c:	00000000 	nop
    5490:	00000000 	nop
    5494:	00000000 	nop
    5498:	00000000 	nop
    549c:	00000000 	nop
    54a0:	00000000 	nop
    54a4:	00000000 	nop
    54a8:	00000000 	nop
    54ac:	00000000 	nop
    54b0:	00000000 	nop
    54b4:	00000000 	nop
    54b8:	00000000 	nop
    54bc:	00000000 	nop
    54c0:	00000000 	nop
    54c4:	00000000 	nop
    54c8:	00000000 	nop
    54cc:	00000000 	nop
    54d0:	00000000 	nop
    54d4:	00000000 	nop
    54d8:	00000000 	nop
    54dc:	00000000 	nop
    54e0:	00000000 	nop
    54e4:	00000000 	nop
    54e8:	00000000 	nop
    54ec:	00000000 	nop
    54f0:	00000000 	nop
    54f4:	00000000 	nop
    54f8:	00000000 	nop
    54fc:	00000000 	nop
    5500:	00000000 	nop
    5504:	00000000 	nop
    5508:	00000000 	nop
    550c:	00000000 	nop
    5510:	00000000 	nop
    5514:	00000000 	nop
    5518:	00000000 	nop
    551c:	00000000 	nop
    5520:	00000000 	nop
    5524:	00000000 	nop
    5528:	00000000 	nop
    552c:	00000000 	nop
    5530:	00000000 	nop
    5534:	00000000 	nop
    5538:	00000000 	nop
    553c:	00000000 	nop
    5540:	00000000 	nop
    5544:	00000000 	nop
    5548:	00000000 	nop
    554c:	00000000 	nop
    5550:	00000000 	nop
    5554:	00000000 	nop
    5558:	00000000 	nop
    555c:	00000000 	nop
    5560:	00000000 	nop
    5564:	00000000 	nop
    5568:	00000000 	nop
    556c:	00000000 	nop
    5570:	00000000 	nop
    5574:	00000000 	nop
    5578:	00000000 	nop
    557c:	00000000 	nop
    5580:	00000000 	nop
    5584:	00000000 	nop
    5588:	00000000 	nop
    558c:	00000000 	nop
    5590:	00000000 	nop
    5594:	00000000 	nop
    5598:	00000000 	nop
    559c:	00000000 	nop
    55a0:	00000000 	nop
    55a4:	00000000 	nop
    55a8:	00000000 	nop
    55ac:	00000000 	nop
    55b0:	00000000 	nop
    55b4:	00000000 	nop
    55b8:	00000000 	nop
    55bc:	00000000 	nop
    55c0:	00000000 	nop
    55c4:	00000000 	nop
    55c8:	00000000 	nop
    55cc:	00000000 	nop
    55d0:	00000000 	nop
    55d4:	00000000 	nop
    55d8:	00000000 	nop
    55dc:	00000000 	nop
    55e0:	00000000 	nop
    55e4:	00000000 	nop
    55e8:	00000000 	nop
    55ec:	00000000 	nop
    55f0:	00000000 	nop
    55f4:	00000000 	nop
    55f8:	00000000 	nop
    55fc:	00000000 	nop
    5600:	00000000 	nop
    5604:	00000000 	nop
    5608:	00000000 	nop
    560c:	00000000 	nop
    5610:	00000000 	nop
    5614:	00000000 	nop
    5618:	00000000 	nop
    561c:	00000000 	nop
    5620:	00000000 	nop
    5624:	00000000 	nop
    5628:	00000000 	nop
    562c:	00000000 	nop
    5630:	00000000 	nop
    5634:	00000000 	nop
    5638:	00000000 	nop
    563c:	00000000 	nop
    5640:	00000000 	nop
    5644:	00000000 	nop
    5648:	00000000 	nop
    564c:	00000000 	nop
    5650:	00000000 	nop
    5654:	00000000 	nop
    5658:	00000000 	nop
    565c:	00000000 	nop
    5660:	00000000 	nop
    5664:	00000000 	nop
    5668:	00000000 	nop
    566c:	00000000 	nop
    5670:	00000000 	nop
    5674:	00000000 	nop
    5678:	00000000 	nop
    567c:	00000000 	nop
    5680:	00000000 	nop
    5684:	00000000 	nop
    5688:	00000000 	nop
    568c:	00000000 	nop
    5690:	00000000 	nop
    5694:	00000000 	nop
    5698:	00000000 	nop
    569c:	00000000 	nop
    56a0:	00000000 	nop
    56a4:	00000000 	nop
    56a8:	00000000 	nop
    56ac:	00000000 	nop
    56b0:	00000000 	nop
    56b4:	00000000 	nop
    56b8:	00000000 	nop
    56bc:	00000000 	nop
    56c0:	00000000 	nop
    56c4:	00000000 	nop
    56c8:	00000000 	nop
    56cc:	00000000 	nop
    56d0:	00000000 	nop
    56d4:	00000000 	nop
    56d8:	00000000 	nop
    56dc:	00000000 	nop
    56e0:	00000000 	nop
    56e4:	00000000 	nop
    56e8:	00000000 	nop
    56ec:	00000000 	nop
    56f0:	00000000 	nop
    56f4:	00000000 	nop
    56f8:	00000000 	nop
    56fc:	00000000 	nop
    5700:	00000000 	nop
    5704:	00000000 	nop
    5708:	00000000 	nop
    570c:	00000000 	nop
    5710:	00000000 	nop
    5714:	00000000 	nop
    5718:	00000000 	nop
    571c:	00000000 	nop
    5720:	00000000 	nop
    5724:	00000000 	nop
    5728:	00000000 	nop
    572c:	00000000 	nop
    5730:	00000000 	nop
    5734:	00000000 	nop
    5738:	00000000 	nop
    573c:	00000000 	nop
    5740:	00000000 	nop
    5744:	00000000 	nop
    5748:	00000000 	nop
    574c:	00000000 	nop
    5750:	00000000 	nop
    5754:	00000000 	nop
    5758:	00000000 	nop
    575c:	00000000 	nop
    5760:	00000000 	nop
    5764:	00000000 	nop
    5768:	00000000 	nop
    576c:	00000000 	nop
    5770:	00000000 	nop
    5774:	00000000 	nop
    5778:	00000000 	nop
    577c:	00000000 	nop
    5780:	00000000 	nop
    5784:	00000000 	nop
    5788:	00000000 	nop
    578c:	00000000 	nop
    5790:	00000000 	nop
    5794:	00000000 	nop
    5798:	00000000 	nop
    579c:	00000000 	nop
    57a0:	00000000 	nop
    57a4:	00000000 	nop
    57a8:	00000000 	nop
    57ac:	00000000 	nop
    57b0:	00000000 	nop
    57b4:	00000000 	nop
    57b8:	00000000 	nop
    57bc:	00000000 	nop
    57c0:	00000000 	nop
    57c4:	00000000 	nop
    57c8:	00000000 	nop
    57cc:	00000000 	nop
    57d0:	00000000 	nop
    57d4:	00000000 	nop
    57d8:	00000000 	nop
    57dc:	00000000 	nop
    57e0:	00000000 	nop
    57e4:	00000000 	nop
    57e8:	00000000 	nop
    57ec:	00000000 	nop
    57f0:	00000000 	nop
    57f4:	00000000 	nop
    57f8:	00000000 	nop
    57fc:	00000000 	nop
    5800:	00000000 	nop
    5804:	00000000 	nop
    5808:	00000000 	nop
    580c:	00000000 	nop
    5810:	00000000 	nop
    5814:	00000000 	nop
    5818:	00000000 	nop
    581c:	00000000 	nop
    5820:	00000000 	nop
    5824:	00000000 	nop
    5828:	00000000 	nop
    582c:	00000000 	nop
    5830:	00000000 	nop
    5834:	00000000 	nop
    5838:	00000000 	nop
    583c:	00000000 	nop
    5840:	00000000 	nop
    5844:	00000000 	nop
    5848:	00000000 	nop
    584c:	00000000 	nop
    5850:	00000000 	nop
    5854:	00000000 	nop
    5858:	00000000 	nop
    585c:	00000000 	nop
    5860:	00000000 	nop
    5864:	00000000 	nop
    5868:	00000000 	nop
    586c:	00000000 	nop
    5870:	00000000 	nop
    5874:	00000000 	nop
    5878:	00000000 	nop
    587c:	00000000 	nop
    5880:	00000000 	nop
    5884:	00000000 	nop
    5888:	00000000 	nop
    588c:	00000000 	nop
    5890:	00000000 	nop
    5894:	00000000 	nop
    5898:	00000000 	nop
    589c:	00000000 	nop
    58a0:	00000000 	nop
    58a4:	00000000 	nop
    58a8:	00000000 	nop
    58ac:	00000000 	nop
    58b0:	00000000 	nop
    58b4:	00000000 	nop
    58b8:	00000000 	nop
    58bc:	00000000 	nop
    58c0:	00000000 	nop
    58c4:	00000000 	nop
    58c8:	00000000 	nop
    58cc:	00000000 	nop
    58d0:	00000000 	nop
    58d4:	00000000 	nop
    58d8:	00000000 	nop
    58dc:	00000000 	nop
    58e0:	00000000 	nop
    58e4:	00000000 	nop
    58e8:	00000000 	nop
    58ec:	00000000 	nop
    58f0:	00000000 	nop
    58f4:	00000000 	nop
    58f8:	00000000 	nop
    58fc:	00000000 	nop
    5900:	00000000 	nop
    5904:	00000000 	nop
    5908:	00000000 	nop
    590c:	00000000 	nop
    5910:	00000000 	nop
    5914:	00000000 	nop
    5918:	00000000 	nop
    591c:	00000000 	nop
    5920:	00000000 	nop
    5924:	00000000 	nop
    5928:	00000000 	nop
    592c:	00000000 	nop
    5930:	00000000 	nop
    5934:	00000000 	nop
    5938:	00000000 	nop
    593c:	00000000 	nop
    5940:	00000000 	nop
    5944:	00000000 	nop
    5948:	00000000 	nop
    594c:	00000000 	nop
    5950:	00000000 	nop
    5954:	00000000 	nop
    5958:	00000000 	nop
    595c:	00000000 	nop
    5960:	00000000 	nop
    5964:	00000000 	nop
    5968:	00000000 	nop
    596c:	00000000 	nop
    5970:	00000000 	nop
    5974:	00000000 	nop
    5978:	00000000 	nop
    597c:	00000000 	nop
    5980:	00000000 	nop
    5984:	00000000 	nop
    5988:	00000000 	nop
    598c:	00000000 	nop
    5990:	00000000 	nop
    5994:	00000000 	nop
    5998:	00000000 	nop
    599c:	00000000 	nop
    59a0:	00000000 	nop
    59a4:	00000000 	nop
    59a8:	00000000 	nop
    59ac:	00000000 	nop
    59b0:	00000000 	nop
    59b4:	00000000 	nop
    59b8:	00000000 	nop
    59bc:	00000000 	nop
    59c0:	00000000 	nop
    59c4:	00000000 	nop
    59c8:	00000000 	nop
    59cc:	00000000 	nop
    59d0:	00000000 	nop
    59d4:	00000000 	nop
    59d8:	00000000 	nop
    59dc:	00000000 	nop
    59e0:	00000000 	nop
    59e4:	00000000 	nop
    59e8:	00000000 	nop
    59ec:	00000000 	nop
    59f0:	00000000 	nop
    59f4:	00000000 	nop
    59f8:	00000000 	nop
    59fc:	00000000 	nop
    5a00:	00000000 	nop
    5a04:	00000000 	nop
    5a08:	00000000 	nop
    5a0c:	00000000 	nop
    5a10:	00000000 	nop
    5a14:	00000000 	nop
    5a18:	00000000 	nop
    5a1c:	00000000 	nop
    5a20:	00000000 	nop
    5a24:	00000000 	nop
    5a28:	00000000 	nop
    5a2c:	00000000 	nop
    5a30:	00000000 	nop
    5a34:	00000000 	nop
    5a38:	00000000 	nop
    5a3c:	00000000 	nop
    5a40:	00000000 	nop
    5a44:	00000000 	nop
    5a48:	00000000 	nop
    5a4c:	00000000 	nop
    5a50:	00000000 	nop
    5a54:	00000000 	nop
    5a58:	00000000 	nop
    5a5c:	00000000 	nop
    5a60:	00000000 	nop
    5a64:	00000000 	nop
    5a68:	00000000 	nop
    5a6c:	00000000 	nop
    5a70:	00000000 	nop
    5a74:	00000000 	nop
    5a78:	00000000 	nop
    5a7c:	00000000 	nop
    5a80:	00000000 	nop
    5a84:	00000000 	nop
    5a88:	00000000 	nop
    5a8c:	00000000 	nop
    5a90:	00000000 	nop
    5a94:	00000000 	nop
    5a98:	00000000 	nop
    5a9c:	00000000 	nop
    5aa0:	00000000 	nop
    5aa4:	00000000 	nop
    5aa8:	00000000 	nop
    5aac:	00000000 	nop
    5ab0:	00000000 	nop
    5ab4:	00000000 	nop
    5ab8:	00000000 	nop
    5abc:	00000000 	nop
    5ac0:	00000000 	nop
    5ac4:	00000000 	nop
    5ac8:	00000000 	nop
    5acc:	00000000 	nop
    5ad0:	00000000 	nop
    5ad4:	00000000 	nop
    5ad8:	00000000 	nop
    5adc:	00000000 	nop
    5ae0:	00000000 	nop
    5ae4:	00000000 	nop
    5ae8:	00000000 	nop
    5aec:	00000000 	nop
    5af0:	00000000 	nop
    5af4:	00000000 	nop
    5af8:	00000000 	nop
    5afc:	00000000 	nop
    5b00:	00000000 	nop
    5b04:	00000000 	nop
    5b08:	00000000 	nop
    5b0c:	00000000 	nop
    5b10:	00000000 	nop
    5b14:	00000000 	nop
    5b18:	00000000 	nop
    5b1c:	00000000 	nop
    5b20:	00000000 	nop
    5b24:	00000000 	nop
    5b28:	00000000 	nop
    5b2c:	00000000 	nop
    5b30:	00000000 	nop
    5b34:	00000000 	nop
    5b38:	00000000 	nop
    5b3c:	00000000 	nop
    5b40:	00000000 	nop
    5b44:	00000000 	nop
    5b48:	00000000 	nop
    5b4c:	00000000 	nop
    5b50:	00000000 	nop
    5b54:	00000000 	nop
    5b58:	00000000 	nop
    5b5c:	00000000 	nop
    5b60:	00000000 	nop
    5b64:	00000000 	nop
    5b68:	00000000 	nop
    5b6c:	00000000 	nop
    5b70:	00000000 	nop
    5b74:	00000000 	nop
    5b78:	00000000 	nop
    5b7c:	00000000 	nop
    5b80:	00000000 	nop
    5b84:	00000000 	nop
    5b88:	00000000 	nop
    5b8c:	00000000 	nop
    5b90:	00000000 	nop
    5b94:	00000000 	nop
    5b98:	00000000 	nop
    5b9c:	00000000 	nop
    5ba0:	00000000 	nop
    5ba4:	00000000 	nop
    5ba8:	00000000 	nop
    5bac:	00000000 	nop
    5bb0:	00000000 	nop
    5bb4:	00000000 	nop
    5bb8:	00000000 	nop
    5bbc:	00000000 	nop
    5bc0:	00000000 	nop
    5bc4:	00000000 	nop
    5bc8:	00000000 	nop
    5bcc:	00000000 	nop
    5bd0:	00000000 	nop
    5bd4:	00000000 	nop
    5bd8:	00000000 	nop
    5bdc:	00000000 	nop
    5be0:	00000000 	nop
    5be4:	00000000 	nop
    5be8:	00000000 	nop
    5bec:	00000000 	nop
    5bf0:	00000000 	nop
    5bf4:	00000000 	nop
    5bf8:	00000000 	nop
    5bfc:	00000000 	nop
    5c00:	00000000 	nop
    5c04:	00000000 	nop
    5c08:	00000000 	nop
    5c0c:	00000000 	nop
    5c10:	00000000 	nop
    5c14:	00000000 	nop
    5c18:	00000000 	nop
    5c1c:	00000000 	nop
    5c20:	00000000 	nop
    5c24:	00000000 	nop
    5c28:	00000000 	nop
    5c2c:	00000000 	nop
    5c30:	00000000 	nop
    5c34:	00000000 	nop
    5c38:	00000000 	nop
    5c3c:	00000000 	nop
    5c40:	00000000 	nop
    5c44:	00000000 	nop
    5c48:	00000000 	nop
    5c4c:	00000000 	nop
    5c50:	00000000 	nop
    5c54:	00000000 	nop
    5c58:	00000000 	nop
    5c5c:	00000000 	nop
    5c60:	00000000 	nop
    5c64:	00000000 	nop
    5c68:	00000000 	nop
    5c6c:	00000000 	nop
    5c70:	00000000 	nop
    5c74:	00000000 	nop
    5c78:	00000000 	nop
    5c7c:	00000000 	nop
    5c80:	00000000 	nop
    5c84:	00000000 	nop
    5c88:	00000000 	nop
    5c8c:	00000000 	nop
    5c90:	00000000 	nop
    5c94:	00000000 	nop
    5c98:	00000000 	nop
    5c9c:	00000000 	nop
    5ca0:	00000000 	nop
    5ca4:	00000000 	nop
    5ca8:	00000000 	nop
    5cac:	00000000 	nop
    5cb0:	00000000 	nop
    5cb4:	00000000 	nop
    5cb8:	00000000 	nop
    5cbc:	00000000 	nop
    5cc0:	00000000 	nop
    5cc4:	00000000 	nop
    5cc8:	00000000 	nop
    5ccc:	00000000 	nop
    5cd0:	00000000 	nop
    5cd4:	00000000 	nop
    5cd8:	00000000 	nop
    5cdc:	00000000 	nop
    5ce0:	00000000 	nop
    5ce4:	00000000 	nop
    5ce8:	00000000 	nop
    5cec:	00000000 	nop
    5cf0:	00000000 	nop
    5cf4:	00000000 	nop
    5cf8:	00000000 	nop
    5cfc:	00000000 	nop
    5d00:	00000000 	nop
    5d04:	00000000 	nop
    5d08:	00000000 	nop
    5d0c:	00000000 	nop
    5d10:	00000000 	nop
    5d14:	00000000 	nop
    5d18:	00000000 	nop
    5d1c:	00000000 	nop
    5d20:	00000000 	nop
    5d24:	00000000 	nop
    5d28:	00000000 	nop
    5d2c:	00000000 	nop
    5d30:	00000000 	nop
    5d34:	00000000 	nop
    5d38:	00000000 	nop
    5d3c:	00000000 	nop
    5d40:	00000000 	nop
    5d44:	00000000 	nop
    5d48:	00000000 	nop
    5d4c:	00000000 	nop
    5d50:	00000000 	nop
    5d54:	00000000 	nop
    5d58:	00000000 	nop
    5d5c:	00000000 	nop
    5d60:	00000000 	nop
    5d64:	00000000 	nop
    5d68:	00000000 	nop
    5d6c:	00000000 	nop
    5d70:	00000000 	nop
    5d74:	00000000 	nop
    5d78:	00000000 	nop
    5d7c:	00000000 	nop
    5d80:	00000000 	nop
    5d84:	00000000 	nop
    5d88:	00000000 	nop
    5d8c:	00000000 	nop
    5d90:	00000000 	nop
    5d94:	00000000 	nop
    5d98:	00000000 	nop
    5d9c:	00000000 	nop
    5da0:	00000000 	nop
    5da4:	00000000 	nop
    5da8:	00000000 	nop
    5dac:	00000000 	nop
    5db0:	00000000 	nop
    5db4:	00000000 	nop
    5db8:	00000000 	nop
    5dbc:	00000000 	nop
    5dc0:	00000000 	nop
    5dc4:	00000000 	nop
    5dc8:	00000000 	nop
    5dcc:	00000000 	nop
    5dd0:	00000000 	nop
    5dd4:	00000000 	nop
    5dd8:	00000000 	nop
    5ddc:	00000000 	nop
    5de0:	00000000 	nop
    5de4:	00000000 	nop
    5de8:	00000000 	nop
    5dec:	00000000 	nop
    5df0:	00000000 	nop
    5df4:	00000000 	nop
    5df8:	00000000 	nop
    5dfc:	00000000 	nop
    5e00:	00000000 	nop
    5e04:	00000000 	nop
    5e08:	00000000 	nop
    5e0c:	00000000 	nop
    5e10:	00000000 	nop
    5e14:	00000000 	nop
    5e18:	00000000 	nop
    5e1c:	00000000 	nop
    5e20:	00000000 	nop
    5e24:	00000000 	nop
    5e28:	00000000 	nop
    5e2c:	00000000 	nop
    5e30:	00000000 	nop
    5e34:	00000000 	nop
    5e38:	00000000 	nop
    5e3c:	00000000 	nop
    5e40:	00000000 	nop
    5e44:	00000000 	nop
    5e48:	00000000 	nop
    5e4c:	00000000 	nop
    5e50:	00000000 	nop
    5e54:	00000000 	nop
    5e58:	00000000 	nop
    5e5c:	00000000 	nop
    5e60:	00000000 	nop
    5e64:	00000000 	nop
    5e68:	00000000 	nop
    5e6c:	00000000 	nop
    5e70:	00000000 	nop
    5e74:	00000000 	nop
    5e78:	00000000 	nop
    5e7c:	00000000 	nop
    5e80:	00000000 	nop
    5e84:	00000000 	nop
    5e88:	00000000 	nop
    5e8c:	00000000 	nop
    5e90:	00000000 	nop
    5e94:	00000000 	nop
    5e98:	00000000 	nop
    5e9c:	00000000 	nop
    5ea0:	00000000 	nop
    5ea4:	00000000 	nop
    5ea8:	00000000 	nop
    5eac:	00000000 	nop
    5eb0:	00000000 	nop
    5eb4:	00000000 	nop
    5eb8:	00000000 	nop
    5ebc:	00000000 	nop
    5ec0:	00000000 	nop
    5ec4:	00000000 	nop
    5ec8:	00000000 	nop
    5ecc:	00000000 	nop
    5ed0:	00000000 	nop
    5ed4:	00000000 	nop
    5ed8:	00000000 	nop
    5edc:	00000000 	nop
    5ee0:	00000000 	nop
    5ee4:	00000000 	nop
    5ee8:	00000000 	nop
    5eec:	00000000 	nop
    5ef0:	00000000 	nop
    5ef4:	00000000 	nop
    5ef8:	00000000 	nop
    5efc:	00000000 	nop
    5f00:	00000000 	nop
    5f04:	00000000 	nop
    5f08:	00000000 	nop
    5f0c:	00000000 	nop
    5f10:	00000000 	nop
    5f14:	00000000 	nop
    5f18:	00000000 	nop
    5f1c:	00000000 	nop
    5f20:	00000000 	nop
    5f24:	00000000 	nop
    5f28:	00000000 	nop
    5f2c:	00000000 	nop
    5f30:	00000000 	nop
    5f34:	00000000 	nop
    5f38:	00000000 	nop
    5f3c:	00000000 	nop
    5f40:	00000000 	nop
    5f44:	00000000 	nop
    5f48:	00000000 	nop
    5f4c:	00000000 	nop
    5f50:	00000000 	nop
    5f54:	00000000 	nop
    5f58:	00000000 	nop
    5f5c:	00000000 	nop
    5f60:	00000000 	nop
    5f64:	00000000 	nop
    5f68:	00000000 	nop
    5f6c:	00000000 	nop
    5f70:	00000000 	nop
    5f74:	00000000 	nop
    5f78:	00000000 	nop
    5f7c:	00000000 	nop
    5f80:	00000000 	nop
    5f84:	00000000 	nop
    5f88:	00000000 	nop
    5f8c:	00000000 	nop
    5f90:	00000000 	nop
    5f94:	00000000 	nop
    5f98:	00000000 	nop
    5f9c:	00000000 	nop
    5fa0:	00000000 	nop
    5fa4:	00000000 	nop
    5fa8:	00000000 	nop
    5fac:	00000000 	nop
    5fb0:	00000000 	nop
    5fb4:	00000000 	nop
    5fb8:	00000000 	nop
    5fbc:	00000000 	nop
    5fc0:	00000000 	nop
    5fc4:	00000000 	nop
    5fc8:	00000000 	nop
    5fcc:	00000000 	nop
    5fd0:	00000000 	nop
    5fd4:	00000000 	nop
    5fd8:	00000000 	nop
    5fdc:	00000000 	nop
    5fe0:	00000000 	nop
    5fe4:	00000000 	nop
    5fe8:	00000000 	nop
    5fec:	00000000 	nop
    5ff0:	00000000 	nop
    5ff4:	00000000 	nop
    5ff8:	00000000 	nop
    5ffc:	00000000 	nop
    6000:	00000000 	nop
    6004:	00000000 	nop
    6008:	00000000 	nop
    600c:	00000000 	nop
    6010:	00000000 	nop
    6014:	00000000 	nop
    6018:	00000000 	nop
    601c:	00000000 	nop
    6020:	00000000 	nop
    6024:	00000000 	nop
    6028:	00000000 	nop
    602c:	00000000 	nop
    6030:	00000000 	nop
    6034:	00000000 	nop
    6038:	00000000 	nop
    603c:	00000000 	nop
    6040:	00000000 	nop
    6044:	00000000 	nop
    6048:	00000000 	nop
    604c:	00000000 	nop
    6050:	00000000 	nop
    6054:	00000000 	nop
    6058:	00000000 	nop
    605c:	00000000 	nop
    6060:	00000000 	nop
    6064:	00000000 	nop
    6068:	00000000 	nop
    606c:	00000000 	nop
    6070:	00000000 	nop
    6074:	00000000 	nop
    6078:	00000000 	nop
    607c:	00000000 	nop
    6080:	00000000 	nop
    6084:	00000000 	nop
    6088:	00000000 	nop
    608c:	00000000 	nop
    6090:	00000000 	nop
    6094:	00000000 	nop
    6098:	00000000 	nop
    609c:	00000000 	nop
    60a0:	00000000 	nop
    60a4:	00000000 	nop
    60a8:	00000000 	nop
    60ac:	00000000 	nop
    60b0:	00000000 	nop
    60b4:	00000000 	nop
    60b8:	00000000 	nop
    60bc:	00000000 	nop
    60c0:	00000000 	nop
    60c4:	00000000 	nop
    60c8:	00000000 	nop
    60cc:	00000000 	nop
    60d0:	00000000 	nop
    60d4:	00000000 	nop
    60d8:	00000000 	nop
    60dc:	00000000 	nop
    60e0:	00000000 	nop
    60e4:	00000000 	nop
    60e8:	00000000 	nop
    60ec:	00000000 	nop
    60f0:	00000000 	nop
    60f4:	00000000 	nop
    60f8:	00000000 	nop
    60fc:	00000000 	nop
    6100:	00000000 	nop
    6104:	00000000 	nop
    6108:	00000000 	nop
    610c:	00000000 	nop
    6110:	00000000 	nop
    6114:	00000000 	nop
    6118:	00000000 	nop
    611c:	00000000 	nop
    6120:	00000000 	nop
    6124:	00000000 	nop
    6128:	00000000 	nop
    612c:	00000000 	nop
    6130:	00000000 	nop
    6134:	00000000 	nop
    6138:	00000000 	nop
    613c:	00000000 	nop
    6140:	00000000 	nop
    6144:	00000000 	nop
    6148:	00000000 	nop
    614c:	00000000 	nop
    6150:	00000000 	nop
    6154:	00000000 	nop
    6158:	00000000 	nop
    615c:	00000000 	nop
    6160:	00000000 	nop
    6164:	00000000 	nop
    6168:	00000000 	nop
    616c:	00000000 	nop
    6170:	00000000 	nop
    6174:	00000000 	nop
    6178:	00000000 	nop
    617c:	00000000 	nop
    6180:	00000000 	nop
    6184:	00000000 	nop
    6188:	00000000 	nop
    618c:	00000000 	nop
    6190:	00000000 	nop
    6194:	00000000 	nop
    6198:	00000000 	nop
    619c:	00000000 	nop
    61a0:	00000000 	nop
    61a4:	00000000 	nop
    61a8:	00000000 	nop
    61ac:	00000000 	nop
    61b0:	00000000 	nop
    61b4:	00000000 	nop
    61b8:	00000000 	nop
    61bc:	00000000 	nop
    61c0:	00000000 	nop
    61c4:	00000000 	nop
    61c8:	00000000 	nop
    61cc:	00000000 	nop
    61d0:	00000000 	nop
    61d4:	00000000 	nop
    61d8:	00000000 	nop
    61dc:	00000000 	nop
    61e0:	00000000 	nop
    61e4:	00000000 	nop
    61e8:	00000000 	nop
    61ec:	00000000 	nop
    61f0:	00000000 	nop
    61f4:	00000000 	nop
    61f8:	00000000 	nop
    61fc:	00000000 	nop
    6200:	00000000 	nop
    6204:	00000000 	nop
    6208:	00000000 	nop
    620c:	00000000 	nop
    6210:	00000000 	nop
    6214:	00000000 	nop
    6218:	00000000 	nop
    621c:	00000000 	nop
    6220:	00000000 	nop
    6224:	00000000 	nop
    6228:	00000000 	nop
    622c:	00000000 	nop
    6230:	00000000 	nop
    6234:	00000000 	nop
    6238:	00000000 	nop
    623c:	00000000 	nop
    6240:	00000000 	nop
    6244:	00000000 	nop
    6248:	00000000 	nop
    624c:	00000000 	nop
    6250:	00000000 	nop
    6254:	00000000 	nop
    6258:	00000000 	nop
    625c:	00000000 	nop
    6260:	00000000 	nop
    6264:	00000000 	nop
    6268:	00000000 	nop
    626c:	00000000 	nop
    6270:	00000000 	nop
    6274:	00000000 	nop
    6278:	00000000 	nop
    627c:	00000000 	nop
    6280:	00000000 	nop
    6284:	00000000 	nop
    6288:	00000000 	nop
    628c:	00000000 	nop
    6290:	00000000 	nop
    6294:	00000000 	nop
    6298:	00000000 	nop
    629c:	00000000 	nop
    62a0:	00000000 	nop
    62a4:	00000000 	nop
    62a8:	00000000 	nop
    62ac:	00000000 	nop
    62b0:	00000000 	nop
    62b4:	00000000 	nop
    62b8:	00000000 	nop
    62bc:	00000000 	nop
    62c0:	00000000 	nop
    62c4:	00000000 	nop
    62c8:	00000000 	nop
    62cc:	00000000 	nop
    62d0:	00000000 	nop
    62d4:	00000000 	nop
    62d8:	00000000 	nop
    62dc:	00000000 	nop
    62e0:	00000000 	nop
    62e4:	00000000 	nop
    62e8:	00000000 	nop
    62ec:	00000000 	nop
    62f0:	00000000 	nop
    62f4:	00000000 	nop
    62f8:	00000000 	nop
    62fc:	00000000 	nop
    6300:	00000000 	nop
    6304:	00000000 	nop
    6308:	00000000 	nop
    630c:	00000000 	nop
    6310:	00000000 	nop
    6314:	00000000 	nop
    6318:	00000000 	nop
    631c:	00000000 	nop
    6320:	00000000 	nop
    6324:	00000000 	nop
    6328:	00000000 	nop
    632c:	00000000 	nop
    6330:	00000000 	nop
    6334:	00000000 	nop
    6338:	00000000 	nop
    633c:	00000000 	nop
    6340:	00000000 	nop
    6344:	00000000 	nop
    6348:	00000000 	nop
    634c:	00000000 	nop
    6350:	00000000 	nop
    6354:	00000000 	nop
    6358:	00000000 	nop
    635c:	00000000 	nop
    6360:	00000000 	nop
    6364:	00000000 	nop
    6368:	00000000 	nop
    636c:	00000000 	nop
    6370:	00000000 	nop
    6374:	00000000 	nop
    6378:	00000000 	nop
    637c:	00000000 	nop
    6380:	00000000 	nop
    6384:	00000000 	nop
    6388:	00000000 	nop
    638c:	00000000 	nop
    6390:	00000000 	nop
    6394:	00000000 	nop
    6398:	00000000 	nop
    639c:	00000000 	nop
    63a0:	00000000 	nop
    63a4:	00000000 	nop
    63a8:	00000000 	nop
    63ac:	00000000 	nop
    63b0:	00000000 	nop
    63b4:	00000000 	nop
    63b8:	00000000 	nop
    63bc:	00000000 	nop
    63c0:	00000000 	nop
    63c4:	00000000 	nop
    63c8:	00000000 	nop
    63cc:	00000000 	nop
    63d0:	00000000 	nop
    63d4:	00000000 	nop
    63d8:	00000000 	nop
    63dc:	00000000 	nop
    63e0:	00000000 	nop
    63e4:	00000000 	nop
    63e8:	00000000 	nop
    63ec:	00000000 	nop
    63f0:	00000000 	nop
    63f4:	00000000 	nop
    63f8:	00000000 	nop
    63fc:	00000000 	nop
    6400:	00000000 	nop
    6404:	00000000 	nop
    6408:	00000000 	nop
    640c:	00000000 	nop
    6410:	00000000 	nop
    6414:	00000000 	nop
    6418:	00000000 	nop
    641c:	00000000 	nop
    6420:	00000000 	nop
    6424:	00000000 	nop
    6428:	00000000 	nop
    642c:	00000000 	nop
    6430:	00000000 	nop
    6434:	00000000 	nop
    6438:	00000000 	nop
    643c:	00000000 	nop
    6440:	00000000 	nop
    6444:	00000000 	nop
    6448:	00000000 	nop
    644c:	00000000 	nop
    6450:	00000000 	nop
    6454:	00000000 	nop
    6458:	00000000 	nop
    645c:	00000000 	nop
    6460:	00000000 	nop
    6464:	00000000 	nop
    6468:	00000000 	nop
    646c:	00000000 	nop
    6470:	00000000 	nop
    6474:	00000000 	nop
    6478:	00000000 	nop
    647c:	00000000 	nop
    6480:	00000000 	nop
    6484:	00000000 	nop
    6488:	00000000 	nop
    648c:	00000000 	nop
    6490:	00000000 	nop
    6494:	00000000 	nop
    6498:	00000000 	nop
    649c:	00000000 	nop
    64a0:	00000000 	nop
    64a4:	00000000 	nop
    64a8:	00000000 	nop
    64ac:	00000000 	nop
    64b0:	00000000 	nop
    64b4:	00000000 	nop
    64b8:	00000000 	nop
    64bc:	00000000 	nop
    64c0:	00000000 	nop
    64c4:	00000000 	nop
    64c8:	00000000 	nop
    64cc:	00000000 	nop
    64d0:	00000000 	nop
    64d4:	00000000 	nop
    64d8:	00000000 	nop
    64dc:	00000000 	nop
    64e0:	00000000 	nop
    64e4:	00000000 	nop
    64e8:	00000000 	nop
    64ec:	00000000 	nop
    64f0:	00000000 	nop
    64f4:	00000000 	nop
    64f8:	00000000 	nop
    64fc:	00000000 	nop
    6500:	00000000 	nop
    6504:	00000000 	nop
    6508:	00000000 	nop
    650c:	00000000 	nop
    6510:	00000000 	nop
    6514:	00000000 	nop
    6518:	00000000 	nop
    651c:	00000000 	nop
    6520:	00000000 	nop
    6524:	00000000 	nop
    6528:	00000000 	nop
    652c:	00000000 	nop
    6530:	00000000 	nop
    6534:	00000000 	nop
    6538:	00000000 	nop
    653c:	00000000 	nop
    6540:	00000000 	nop
    6544:	00000000 	nop
    6548:	00000000 	nop
    654c:	00000000 	nop
    6550:	00000000 	nop
    6554:	00000000 	nop
    6558:	00000000 	nop
    655c:	00000000 	nop
    6560:	00000000 	nop
    6564:	00000000 	nop
    6568:	00000000 	nop
    656c:	00000000 	nop
    6570:	00000000 	nop
    6574:	00000000 	nop
    6578:	00000000 	nop
    657c:	00000000 	nop
    6580:	00000000 	nop
    6584:	00000000 	nop
    6588:	00000000 	nop
    658c:	00000000 	nop
    6590:	00000000 	nop
    6594:	00000000 	nop
    6598:	00000000 	nop
    659c:	00000000 	nop
    65a0:	00000000 	nop
    65a4:	00000000 	nop
    65a8:	00000000 	nop
    65ac:	00000000 	nop
    65b0:	00000000 	nop
    65b4:	00000000 	nop
    65b8:	00000000 	nop
    65bc:	00000000 	nop
    65c0:	00000000 	nop
    65c4:	00000000 	nop
    65c8:	00000000 	nop
    65cc:	00000000 	nop
    65d0:	00000000 	nop
    65d4:	00000000 	nop
    65d8:	00000000 	nop
    65dc:	00000000 	nop
    65e0:	00000000 	nop
    65e4:	00000000 	nop
    65e8:	00000000 	nop
    65ec:	00000000 	nop
    65f0:	00000000 	nop
    65f4:	00000000 	nop
    65f8:	00000000 	nop
    65fc:	00000000 	nop
    6600:	00000000 	nop
    6604:	00000000 	nop
    6608:	00000000 	nop
    660c:	00000000 	nop
    6610:	00000000 	nop
    6614:	00000000 	nop
    6618:	00000000 	nop
    661c:	00000000 	nop
    6620:	00000000 	nop
    6624:	00000000 	nop
    6628:	00000000 	nop
    662c:	00000000 	nop
    6630:	00000000 	nop
    6634:	00000000 	nop
    6638:	00000000 	nop
    663c:	00000000 	nop
    6640:	00000000 	nop
    6644:	00000000 	nop
    6648:	00000000 	nop
    664c:	00000000 	nop
    6650:	00000000 	nop
    6654:	00000000 	nop
    6658:	00000000 	nop
    665c:	00000000 	nop
    6660:	00000000 	nop
    6664:	00000000 	nop
    6668:	00000000 	nop
    666c:	00000000 	nop
    6670:	00000000 	nop
    6674:	00000000 	nop
    6678:	00000000 	nop
    667c:	00000000 	nop
    6680:	00000000 	nop
    6684:	00000000 	nop
    6688:	00000000 	nop
    668c:	00000000 	nop
    6690:	00000000 	nop
    6694:	00000000 	nop
    6698:	00000000 	nop
    669c:	00000000 	nop
    66a0:	00000000 	nop
    66a4:	00000000 	nop
    66a8:	00000000 	nop
    66ac:	00000000 	nop
    66b0:	00000000 	nop
    66b4:	00000000 	nop
    66b8:	00000000 	nop
    66bc:	00000000 	nop
    66c0:	00000000 	nop
    66c4:	00000000 	nop
    66c8:	00000000 	nop
    66cc:	00000000 	nop
    66d0:	00000000 	nop
    66d4:	00000000 	nop
    66d8:	00000000 	nop
    66dc:	00000000 	nop
    66e0:	00000000 	nop
    66e4:	00000000 	nop
    66e8:	00000000 	nop
    66ec:	00000000 	nop
    66f0:	00000000 	nop
    66f4:	00000000 	nop
    66f8:	00000000 	nop
    66fc:	00000000 	nop
    6700:	00000000 	nop
    6704:	00000000 	nop
    6708:	00000000 	nop
    670c:	00000000 	nop
    6710:	00000000 	nop
    6714:	00000000 	nop
    6718:	00000000 	nop
    671c:	00000000 	nop
    6720:	00000000 	nop
    6724:	00000000 	nop
    6728:	00000000 	nop
    672c:	00000000 	nop
    6730:	00000000 	nop
    6734:	00000000 	nop
    6738:	00000000 	nop
    673c:	00000000 	nop
    6740:	00000000 	nop
    6744:	00000000 	nop
    6748:	00000000 	nop
    674c:	00000000 	nop
    6750:	00000000 	nop
    6754:	00000000 	nop
    6758:	00000000 	nop
    675c:	00000000 	nop
    6760:	00000000 	nop
    6764:	00000000 	nop
    6768:	00000000 	nop
    676c:	00000000 	nop
    6770:	00000000 	nop
    6774:	00000000 	nop
    6778:	00000000 	nop
    677c:	00000000 	nop
    6780:	00000000 	nop
    6784:	00000000 	nop
    6788:	00000000 	nop
    678c:	00000000 	nop
    6790:	00000000 	nop
    6794:	00000000 	nop
    6798:	00000000 	nop
    679c:	00000000 	nop
    67a0:	00000000 	nop
    67a4:	00000000 	nop
    67a8:	00000000 	nop
    67ac:	00000000 	nop
    67b0:	00000000 	nop
    67b4:	00000000 	nop
    67b8:	00000000 	nop
    67bc:	00000000 	nop
    67c0:	00000000 	nop
    67c4:	00000000 	nop
    67c8:	00000000 	nop
    67cc:	00000000 	nop
    67d0:	00000000 	nop
    67d4:	00000000 	nop
    67d8:	00000000 	nop
    67dc:	00000000 	nop
    67e0:	00000000 	nop
    67e4:	00000000 	nop
    67e8:	00000000 	nop
    67ec:	00000000 	nop
    67f0:	00000000 	nop
    67f4:	00000000 	nop
    67f8:	00000000 	nop
    67fc:	00000000 	nop
    6800:	00000000 	nop
    6804:	00000000 	nop
    6808:	00000000 	nop
    680c:	00000000 	nop
    6810:	00000000 	nop
    6814:	00000000 	nop
    6818:	00000000 	nop
    681c:	00000000 	nop
    6820:	00000000 	nop
    6824:	00000000 	nop
    6828:	00000000 	nop
    682c:	00000000 	nop
    6830:	00000000 	nop
    6834:	00000000 	nop
    6838:	00000000 	nop
    683c:	00000000 	nop
    6840:	00000000 	nop
    6844:	00000000 	nop
    6848:	00000000 	nop
    684c:	00000000 	nop
    6850:	00000000 	nop
    6854:	00000000 	nop
    6858:	00000000 	nop
    685c:	00000000 	nop
    6860:	00000000 	nop
    6864:	00000000 	nop
    6868:	00000000 	nop
    686c:	00000000 	nop
    6870:	00000000 	nop
    6874:	00000000 	nop
    6878:	00000000 	nop
    687c:	00000000 	nop
    6880:	00000000 	nop
    6884:	00000000 	nop
    6888:	00000000 	nop
    688c:	00000000 	nop
    6890:	00000000 	nop
    6894:	00000000 	nop
    6898:	00000000 	nop
    689c:	00000000 	nop
    68a0:	00000000 	nop
    68a4:	00000000 	nop
    68a8:	00000000 	nop
    68ac:	00000000 	nop
    68b0:	00000000 	nop
    68b4:	00000000 	nop
    68b8:	00000000 	nop
    68bc:	00000000 	nop
    68c0:	00000000 	nop
    68c4:	00000000 	nop
    68c8:	00000000 	nop
    68cc:	00000000 	nop
    68d0:	00000000 	nop
    68d4:	00000000 	nop
    68d8:	00000000 	nop
    68dc:	00000000 	nop
    68e0:	00000000 	nop
    68e4:	00000000 	nop
    68e8:	00000000 	nop
    68ec:	00000000 	nop
    68f0:	00000000 	nop
    68f4:	00000000 	nop
    68f8:	00000000 	nop
    68fc:	00000000 	nop
    6900:	00000000 	nop
    6904:	00000000 	nop
    6908:	00000000 	nop
    690c:	00000000 	nop
    6910:	00000000 	nop
    6914:	00000000 	nop
    6918:	00000000 	nop
    691c:	00000000 	nop
    6920:	00000000 	nop
    6924:	00000000 	nop
    6928:	00000000 	nop
    692c:	00000000 	nop
    6930:	00000000 	nop
    6934:	00000000 	nop
    6938:	00000000 	nop
    693c:	00000000 	nop
    6940:	00000000 	nop
    6944:	00000000 	nop
    6948:	00000000 	nop
    694c:	00000000 	nop
    6950:	00000000 	nop
    6954:	00000000 	nop
    6958:	00000000 	nop
    695c:	00000000 	nop
    6960:	00000000 	nop
    6964:	00000000 	nop
    6968:	00000000 	nop
    696c:	00000000 	nop
    6970:	00000000 	nop
    6974:	00000000 	nop
    6978:	00000000 	nop
    697c:	00000000 	nop
    6980:	00000000 	nop
    6984:	00000000 	nop
    6988:	00000000 	nop
    698c:	00000000 	nop
    6990:	00000000 	nop
    6994:	00000000 	nop
    6998:	00000000 	nop
    699c:	00000000 	nop
    69a0:	00000000 	nop
    69a4:	00000000 	nop
    69a8:	00000000 	nop
    69ac:	00000000 	nop
    69b0:	00000000 	nop
    69b4:	00000000 	nop
    69b8:	00000000 	nop
    69bc:	00000000 	nop
    69c0:	00000000 	nop
    69c4:	00000000 	nop
    69c8:	00000000 	nop
    69cc:	00000000 	nop
    69d0:	00000000 	nop
    69d4:	00000000 	nop
    69d8:	00000000 	nop
    69dc:	00000000 	nop
    69e0:	00000000 	nop
    69e4:	00000000 	nop
    69e8:	00000000 	nop
    69ec:	00000000 	nop
    69f0:	00000000 	nop
    69f4:	00000000 	nop
    69f8:	00000000 	nop
    69fc:	00000000 	nop
    6a00:	00000000 	nop
    6a04:	00000000 	nop
    6a08:	00000000 	nop
    6a0c:	00000000 	nop
    6a10:	00000000 	nop
    6a14:	00000000 	nop
    6a18:	00000000 	nop
    6a1c:	00000000 	nop
    6a20:	00000000 	nop
    6a24:	00000000 	nop
    6a28:	00000000 	nop
    6a2c:	00000000 	nop
    6a30:	00000000 	nop
    6a34:	00000000 	nop
    6a38:	00000000 	nop
    6a3c:	00000000 	nop
    6a40:	00000000 	nop
    6a44:	00000000 	nop
    6a48:	00000000 	nop
    6a4c:	00000000 	nop
    6a50:	00000000 	nop
    6a54:	00000000 	nop
    6a58:	00000000 	nop
    6a5c:	00000000 	nop
    6a60:	00000000 	nop
    6a64:	00000000 	nop
    6a68:	00000000 	nop
    6a6c:	00000000 	nop
    6a70:	00000000 	nop
    6a74:	00000000 	nop
    6a78:	00000000 	nop
    6a7c:	00000000 	nop
    6a80:	00000000 	nop
    6a84:	00000000 	nop
    6a88:	00000000 	nop
    6a8c:	00000000 	nop
    6a90:	00000000 	nop
    6a94:	00000000 	nop
    6a98:	00000000 	nop
    6a9c:	00000000 	nop
    6aa0:	00000000 	nop
    6aa4:	00000000 	nop
    6aa8:	00000000 	nop
    6aac:	00000000 	nop
    6ab0:	00000000 	nop
    6ab4:	00000000 	nop
    6ab8:	00000000 	nop
    6abc:	00000000 	nop
    6ac0:	00000000 	nop
    6ac4:	00000000 	nop
    6ac8:	00000000 	nop
    6acc:	00000000 	nop
    6ad0:	00000000 	nop
    6ad4:	00000000 	nop
    6ad8:	00000000 	nop
    6adc:	00000000 	nop
    6ae0:	00000000 	nop
    6ae4:	00000000 	nop
    6ae8:	00000000 	nop
    6aec:	00000000 	nop
    6af0:	00000000 	nop
    6af4:	00000000 	nop
    6af8:	00000000 	nop
    6afc:	00000000 	nop
    6b00:	00000000 	nop
    6b04:	00000000 	nop
    6b08:	00000000 	nop
    6b0c:	00000000 	nop
    6b10:	00000000 	nop
    6b14:	00000000 	nop
    6b18:	00000000 	nop
    6b1c:	00000000 	nop
    6b20:	00000000 	nop
    6b24:	00000000 	nop
    6b28:	00000000 	nop
    6b2c:	00000000 	nop
    6b30:	00000000 	nop
    6b34:	00000000 	nop
    6b38:	00000000 	nop
    6b3c:	00000000 	nop
    6b40:	00000000 	nop
    6b44:	00000000 	nop
    6b48:	00000000 	nop
    6b4c:	00000000 	nop
    6b50:	00000000 	nop
    6b54:	00000000 	nop
    6b58:	00000000 	nop
    6b5c:	00000000 	nop
    6b60:	00000000 	nop
    6b64:	00000000 	nop
    6b68:	00000000 	nop
    6b6c:	00000000 	nop
    6b70:	00000000 	nop
    6b74:	00000000 	nop
    6b78:	00000000 	nop
    6b7c:	00000000 	nop
    6b80:	00000000 	nop
    6b84:	00000000 	nop
    6b88:	00000000 	nop
    6b8c:	00000000 	nop
    6b90:	00000000 	nop
    6b94:	00000000 	nop
    6b98:	00000000 	nop
    6b9c:	00000000 	nop
    6ba0:	00000000 	nop
    6ba4:	00000000 	nop
    6ba8:	00000000 	nop
    6bac:	00000000 	nop
    6bb0:	00000000 	nop
    6bb4:	00000000 	nop
    6bb8:	00000000 	nop
    6bbc:	00000000 	nop
    6bc0:	00000000 	nop
    6bc4:	00000000 	nop
    6bc8:	00000000 	nop
    6bcc:	00000000 	nop
    6bd0:	00000000 	nop
    6bd4:	00000000 	nop
    6bd8:	00000000 	nop
    6bdc:	00000000 	nop
    6be0:	00000000 	nop
    6be4:	00000000 	nop
    6be8:	00000000 	nop
    6bec:	00000000 	nop
    6bf0:	00000000 	nop
    6bf4:	00000000 	nop
    6bf8:	00000000 	nop
    6bfc:	00000000 	nop
    6c00:	00000000 	nop
    6c04:	00000000 	nop
    6c08:	00000000 	nop
    6c0c:	00000000 	nop
    6c10:	00000000 	nop
    6c14:	00000000 	nop
    6c18:	00000000 	nop
    6c1c:	00000000 	nop
    6c20:	00000000 	nop
    6c24:	00000000 	nop
    6c28:	00000000 	nop
    6c2c:	00000000 	nop
    6c30:	00000000 	nop
    6c34:	00000000 	nop
    6c38:	00000000 	nop
    6c3c:	00000000 	nop
    6c40:	00000000 	nop
    6c44:	00000000 	nop
    6c48:	00000000 	nop
    6c4c:	00000000 	nop
    6c50:	00000000 	nop
    6c54:	00000000 	nop
    6c58:	00000000 	nop
    6c5c:	00000000 	nop
    6c60:	00000000 	nop
    6c64:	00000000 	nop
    6c68:	00000000 	nop
    6c6c:	00000000 	nop
    6c70:	00000000 	nop
    6c74:	00000000 	nop
    6c78:	00000000 	nop
    6c7c:	00000000 	nop
    6c80:	00000000 	nop
    6c84:	00000000 	nop
    6c88:	00000000 	nop
    6c8c:	00000000 	nop
    6c90:	00000000 	nop
    6c94:	00000000 	nop
    6c98:	00000000 	nop
    6c9c:	00000000 	nop
    6ca0:	00000000 	nop
    6ca4:	00000000 	nop
    6ca8:	00000000 	nop
    6cac:	00000000 	nop
    6cb0:	00000000 	nop
    6cb4:	00000000 	nop
    6cb8:	00000000 	nop
    6cbc:	00000000 	nop
    6cc0:	00000000 	nop
    6cc4:	00000000 	nop
    6cc8:	00000000 	nop
    6ccc:	00000000 	nop
    6cd0:	00000000 	nop
    6cd4:	00000000 	nop
    6cd8:	00000000 	nop
    6cdc:	00000000 	nop
    6ce0:	00000000 	nop
    6ce4:	00000000 	nop
    6ce8:	00000000 	nop
    6cec:	00000000 	nop
    6cf0:	00000000 	nop
    6cf4:	00000000 	nop
    6cf8:	00000000 	nop
    6cfc:	00000000 	nop
    6d00:	00000000 	nop
    6d04:	00000000 	nop
    6d08:	00000000 	nop
    6d0c:	00000000 	nop
    6d10:	00000000 	nop
    6d14:	00000000 	nop
    6d18:	00000000 	nop
    6d1c:	00000000 	nop
    6d20:	00000000 	nop
    6d24:	00000000 	nop
    6d28:	00000000 	nop
    6d2c:	00000000 	nop
    6d30:	00000000 	nop
    6d34:	00000000 	nop
    6d38:	00000000 	nop
    6d3c:	00000000 	nop
    6d40:	00000000 	nop
    6d44:	00000000 	nop
    6d48:	00000000 	nop
    6d4c:	00000000 	nop
    6d50:	00000000 	nop
    6d54:	00000000 	nop
    6d58:	00000000 	nop
    6d5c:	00000000 	nop
    6d60:	00000000 	nop
    6d64:	00000000 	nop
    6d68:	00000000 	nop
    6d6c:	00000000 	nop
    6d70:	00000000 	nop
    6d74:	00000000 	nop
    6d78:	00000000 	nop
    6d7c:	00000000 	nop
    6d80:	00000000 	nop
    6d84:	00000000 	nop
    6d88:	00000000 	nop
    6d8c:	00000000 	nop
    6d90:	00000000 	nop
    6d94:	00000000 	nop
    6d98:	00000000 	nop
    6d9c:	00000000 	nop
    6da0:	00000000 	nop
    6da4:	00000000 	nop
    6da8:	00000000 	nop
    6dac:	00000000 	nop
    6db0:	00000000 	nop
    6db4:	00000000 	nop
    6db8:	00000000 	nop
    6dbc:	00000000 	nop
    6dc0:	00000000 	nop
    6dc4:	00000000 	nop
    6dc8:	00000000 	nop
    6dcc:	00000000 	nop
    6dd0:	00000000 	nop
    6dd4:	00000000 	nop
    6dd8:	00000000 	nop
    6ddc:	00000000 	nop
    6de0:	00000000 	nop
    6de4:	00000000 	nop
    6de8:	00000000 	nop
    6dec:	00000000 	nop
    6df0:	00000000 	nop
    6df4:	00000000 	nop
    6df8:	00000000 	nop
    6dfc:	00000000 	nop
    6e00:	00000000 	nop
    6e04:	00000000 	nop
    6e08:	00000000 	nop
    6e0c:	00000000 	nop
    6e10:	00000000 	nop
    6e14:	00000000 	nop
    6e18:	00000000 	nop
    6e1c:	00000000 	nop
    6e20:	00000000 	nop
    6e24:	00000000 	nop
    6e28:	00000000 	nop
    6e2c:	00000000 	nop
    6e30:	00000000 	nop
    6e34:	00000000 	nop
    6e38:	00000000 	nop
    6e3c:	00000000 	nop
    6e40:	00000000 	nop
    6e44:	00000000 	nop
    6e48:	00000000 	nop
    6e4c:	00000000 	nop
    6e50:	00000000 	nop
    6e54:	00000000 	nop
    6e58:	00000000 	nop
    6e5c:	00000000 	nop
    6e60:	00000000 	nop
    6e64:	00000000 	nop
    6e68:	00000000 	nop
    6e6c:	00000000 	nop
    6e70:	00000000 	nop
    6e74:	00000000 	nop
    6e78:	00000000 	nop
    6e7c:	00000000 	nop
    6e80:	00000000 	nop
    6e84:	00000000 	nop
    6e88:	00000000 	nop
    6e8c:	00000000 	nop
    6e90:	00000000 	nop
    6e94:	00000000 	nop
    6e98:	00000000 	nop
    6e9c:	00000000 	nop
    6ea0:	00000000 	nop
    6ea4:	00000000 	nop
    6ea8:	00000000 	nop
    6eac:	00000000 	nop
    6eb0:	00000000 	nop
    6eb4:	00000000 	nop
    6eb8:	00000000 	nop
    6ebc:	00000000 	nop
    6ec0:	00000000 	nop
    6ec4:	00000000 	nop
    6ec8:	00000000 	nop
    6ecc:	00000000 	nop
    6ed0:	00000000 	nop
    6ed4:	00000000 	nop
    6ed8:	00000000 	nop
    6edc:	00000000 	nop
    6ee0:	00000000 	nop
    6ee4:	00000000 	nop
    6ee8:	00000000 	nop
    6eec:	00000000 	nop
    6ef0:	00000000 	nop
    6ef4:	00000000 	nop
    6ef8:	00000000 	nop
    6efc:	00000000 	nop
    6f00:	00000000 	nop
    6f04:	00000000 	nop
    6f08:	00000000 	nop
    6f0c:	00000000 	nop
    6f10:	00000000 	nop
    6f14:	00000000 	nop
    6f18:	00000000 	nop
    6f1c:	00000000 	nop
    6f20:	00000000 	nop
    6f24:	00000000 	nop
    6f28:	00000000 	nop
    6f2c:	00000000 	nop
    6f30:	00000000 	nop
    6f34:	00000000 	nop
    6f38:	00000000 	nop
    6f3c:	00000000 	nop
    6f40:	00000000 	nop
    6f44:	00000000 	nop
    6f48:	00000000 	nop
    6f4c:	00000000 	nop
    6f50:	00000000 	nop
    6f54:	00000000 	nop
    6f58:	00000000 	nop
    6f5c:	00000000 	nop
    6f60:	00000000 	nop
    6f64:	00000000 	nop
    6f68:	00000000 	nop
    6f6c:	00000000 	nop
    6f70:	00000000 	nop
    6f74:	00000000 	nop
    6f78:	00000000 	nop
    6f7c:	00000000 	nop
    6f80:	00000000 	nop
    6f84:	00000000 	nop
    6f88:	00000000 	nop
    6f8c:	00000000 	nop
    6f90:	00000000 	nop
    6f94:	00000000 	nop
    6f98:	00000000 	nop
    6f9c:	00000000 	nop
    6fa0:	00000000 	nop
    6fa4:	00000000 	nop
    6fa8:	00000000 	nop
    6fac:	00000000 	nop
    6fb0:	00000000 	nop
    6fb4:	00000000 	nop
    6fb8:	00000000 	nop
    6fbc:	00000000 	nop
    6fc0:	00000000 	nop
    6fc4:	00000000 	nop
    6fc8:	00000000 	nop
    6fcc:	00000000 	nop
    6fd0:	00000000 	nop
    6fd4:	00000000 	nop
    6fd8:	00000000 	nop
    6fdc:	00000000 	nop
    6fe0:	00000000 	nop
    6fe4:	00000000 	nop
    6fe8:	00000000 	nop
    6fec:	00000000 	nop
    6ff0:	00000000 	nop
    6ff4:	00000000 	nop
    6ff8:	00000000 	nop
    6ffc:	00000000 	nop
    7000:	00000000 	nop
    7004:	00000000 	nop
    7008:	00000000 	nop
    700c:	00000000 	nop
    7010:	00000000 	nop
    7014:	00000000 	nop
    7018:	00000000 	nop
    701c:	00000000 	nop
    7020:	00000000 	nop
    7024:	00000000 	nop
    7028:	00000000 	nop
    702c:	00000000 	nop
    7030:	00000000 	nop
    7034:	00000000 	nop
    7038:	00000000 	nop
    703c:	00000000 	nop
    7040:	00000000 	nop
    7044:	00000000 	nop
    7048:	00000000 	nop
    704c:	00000000 	nop
    7050:	00000000 	nop
    7054:	00000000 	nop
    7058:	00000000 	nop
    705c:	00000000 	nop
    7060:	00000000 	nop
    7064:	00000000 	nop
    7068:	00000000 	nop
    706c:	00000000 	nop
    7070:	00000000 	nop
    7074:	00000000 	nop
    7078:	00000000 	nop
    707c:	00000000 	nop
    7080:	00000000 	nop
    7084:	00000000 	nop
    7088:	00000000 	nop
    708c:	00000000 	nop
    7090:	00000000 	nop
    7094:	00000000 	nop
    7098:	00000000 	nop
    709c:	00000000 	nop
    70a0:	00000000 	nop
    70a4:	00000000 	nop
    70a8:	00000000 	nop
    70ac:	00000000 	nop
    70b0:	00000000 	nop
    70b4:	00000000 	nop
    70b8:	00000000 	nop
    70bc:	00000000 	nop
    70c0:	00000000 	nop
    70c4:	00000000 	nop
    70c8:	00000000 	nop
    70cc:	00000000 	nop
    70d0:	00000000 	nop
    70d4:	00000000 	nop
    70d8:	00000000 	nop
    70dc:	00000000 	nop
    70e0:	00000000 	nop
    70e4:	00000000 	nop
    70e8:	00000000 	nop
    70ec:	00000000 	nop
    70f0:	00000000 	nop
    70f4:	00000000 	nop
    70f8:	00000000 	nop
    70fc:	00000000 	nop
    7100:	00000000 	nop
    7104:	00000000 	nop
    7108:	00000000 	nop
    710c:	00000000 	nop
    7110:	00000000 	nop
    7114:	00000000 	nop
    7118:	00000000 	nop
    711c:	00000000 	nop
    7120:	00000000 	nop
    7124:	00000000 	nop
    7128:	00000000 	nop
    712c:	00000000 	nop
    7130:	00000000 	nop
    7134:	00000000 	nop
    7138:	00000000 	nop
    713c:	00000000 	nop
    7140:	00000000 	nop
    7144:	00000000 	nop
    7148:	00000000 	nop
    714c:	00000000 	nop
    7150:	00000000 	nop
    7154:	00000000 	nop
    7158:	00000000 	nop
    715c:	00000000 	nop
    7160:	00000000 	nop
    7164:	00000000 	nop
    7168:	00000000 	nop
    716c:	00000000 	nop
    7170:	00000000 	nop
    7174:	00000000 	nop
    7178:	00000000 	nop
    717c:	00000000 	nop
    7180:	00000000 	nop
    7184:	00000000 	nop
    7188:	00000000 	nop
    718c:	00000000 	nop
    7190:	00000000 	nop
    7194:	00000000 	nop
    7198:	00000000 	nop
    719c:	00000000 	nop
    71a0:	00000000 	nop
    71a4:	00000000 	nop
    71a8:	00000000 	nop
    71ac:	00000000 	nop
    71b0:	00000000 	nop
    71b4:	00000000 	nop
    71b8:	00000000 	nop
    71bc:	00000000 	nop
    71c0:	00000000 	nop
    71c4:	00000000 	nop
    71c8:	00000000 	nop
    71cc:	00000000 	nop
    71d0:	00000000 	nop
    71d4:	00000000 	nop
    71d8:	00000000 	nop
    71dc:	00000000 	nop
    71e0:	00000000 	nop
    71e4:	00000000 	nop
    71e8:	00000000 	nop
    71ec:	00000000 	nop
    71f0:	00000000 	nop
    71f4:	00000000 	nop
    71f8:	00000000 	nop
    71fc:	00000000 	nop
    7200:	00000000 	nop
    7204:	00000000 	nop
    7208:	00000000 	nop
    720c:	00000000 	nop
    7210:	00000000 	nop
    7214:	00000000 	nop
    7218:	00000000 	nop
    721c:	00000000 	nop
    7220:	00000000 	nop
    7224:	00000000 	nop
    7228:	00000000 	nop
    722c:	00000000 	nop
    7230:	00000000 	nop
    7234:	00000000 	nop
    7238:	00000000 	nop
    723c:	00000000 	nop
    7240:	00000000 	nop
    7244:	00000000 	nop
    7248:	00000000 	nop
    724c:	00000000 	nop
    7250:	00000000 	nop
    7254:	00000000 	nop
    7258:	00000000 	nop
    725c:	00000000 	nop
    7260:	00000000 	nop
    7264:	00000000 	nop
    7268:	00000000 	nop
    726c:	00000000 	nop
    7270:	00000000 	nop
    7274:	00000000 	nop
    7278:	00000000 	nop
    727c:	00000000 	nop
    7280:	00000000 	nop
    7284:	00000000 	nop
    7288:	00000000 	nop
    728c:	00000000 	nop
    7290:	00000000 	nop
    7294:	00000000 	nop
    7298:	00000000 	nop
    729c:	00000000 	nop
    72a0:	00000000 	nop
    72a4:	00000000 	nop
    72a8:	00000000 	nop
    72ac:	00000000 	nop
    72b0:	00000000 	nop
    72b4:	00000000 	nop
    72b8:	00000000 	nop
    72bc:	00000000 	nop
    72c0:	00000000 	nop
    72c4:	00000000 	nop
    72c8:	00000000 	nop
    72cc:	00000000 	nop
    72d0:	00000000 	nop
    72d4:	00000000 	nop
    72d8:	00000000 	nop
    72dc:	00000000 	nop
    72e0:	00000000 	nop
    72e4:	00000000 	nop
    72e8:	00000000 	nop
    72ec:	00000000 	nop
    72f0:	00000000 	nop
    72f4:	00000000 	nop
    72f8:	00000000 	nop
    72fc:	00000000 	nop
    7300:	00000000 	nop
    7304:	00000000 	nop
    7308:	00000000 	nop
    730c:	00000000 	nop
    7310:	00000000 	nop
    7314:	00000000 	nop
    7318:	00000000 	nop
    731c:	00000000 	nop
    7320:	00000000 	nop
    7324:	00000000 	nop
    7328:	00000000 	nop
    732c:	00000000 	nop
    7330:	00000000 	nop
    7334:	00000000 	nop
    7338:	00000000 	nop
    733c:	00000000 	nop
    7340:	00000000 	nop
    7344:	00000000 	nop
    7348:	00000000 	nop
    734c:	00000000 	nop
    7350:	00000000 	nop
    7354:	00000000 	nop
    7358:	00000000 	nop
    735c:	00000000 	nop
    7360:	00000000 	nop
    7364:	00000000 	nop
    7368:	00000000 	nop
    736c:	00000000 	nop
    7370:	00000000 	nop
    7374:	00000000 	nop
    7378:	00000000 	nop
    737c:	00000000 	nop
    7380:	00000000 	nop
    7384:	00000000 	nop
    7388:	00000000 	nop
    738c:	00000000 	nop
    7390:	00000000 	nop
    7394:	00000000 	nop
    7398:	00000000 	nop
    739c:	00000000 	nop
    73a0:	00000000 	nop
    73a4:	00000000 	nop
    73a8:	00000000 	nop
    73ac:	00000000 	nop
    73b0:	00000000 	nop
    73b4:	00000000 	nop
    73b8:	00000000 	nop
    73bc:	00000000 	nop
    73c0:	00000000 	nop
    73c4:	00000000 	nop
    73c8:	00000000 	nop
    73cc:	00000000 	nop
    73d0:	00000000 	nop
    73d4:	00000000 	nop
    73d8:	00000000 	nop
    73dc:	00000000 	nop
    73e0:	00000000 	nop
    73e4:	00000000 	nop
    73e8:	00000000 	nop
    73ec:	00000000 	nop
    73f0:	00000000 	nop
    73f4:	00000000 	nop
    73f8:	00000000 	nop
    73fc:	00000000 	nop
    7400:	00000000 	nop
    7404:	00000000 	nop
    7408:	00000000 	nop
    740c:	00000000 	nop
    7410:	00000000 	nop
    7414:	00000000 	nop
    7418:	00000000 	nop
    741c:	00000000 	nop
    7420:	00000000 	nop
    7424:	00000000 	nop
    7428:	00000000 	nop
    742c:	00000000 	nop
    7430:	00000000 	nop
    7434:	00000000 	nop
    7438:	00000000 	nop
    743c:	00000000 	nop
    7440:	00000000 	nop
    7444:	00000000 	nop
    7448:	00000000 	nop
    744c:	00000000 	nop
    7450:	00000000 	nop
    7454:	00000000 	nop
    7458:	00000000 	nop
    745c:	00000000 	nop
    7460:	00000000 	nop
    7464:	00000000 	nop
    7468:	00000000 	nop
    746c:	00000000 	nop
    7470:	00000000 	nop
    7474:	00000000 	nop
    7478:	00000000 	nop
    747c:	00000000 	nop
    7480:	00000000 	nop
    7484:	00000000 	nop
    7488:	00000000 	nop
    748c:	00000000 	nop
    7490:	00000000 	nop
    7494:	00000000 	nop
    7498:	00000000 	nop
    749c:	00000000 	nop
    74a0:	00000000 	nop
    74a4:	00000000 	nop
    74a8:	00000000 	nop
    74ac:	00000000 	nop
    74b0:	00000000 	nop
    74b4:	00000000 	nop
    74b8:	00000000 	nop
    74bc:	00000000 	nop
    74c0:	00000000 	nop
    74c4:	00000000 	nop
    74c8:	00000000 	nop
    74cc:	00000000 	nop
    74d0:	00000000 	nop
    74d4:	00000000 	nop
    74d8:	00000000 	nop
    74dc:	00000000 	nop
    74e0:	00000000 	nop
    74e4:	00000000 	nop
    74e8:	00000000 	nop
    74ec:	00000000 	nop
    74f0:	00000000 	nop
    74f4:	00000000 	nop
    74f8:	00000000 	nop
    74fc:	00000000 	nop
    7500:	00000000 	nop
    7504:	00000000 	nop
    7508:	00000000 	nop
    750c:	00000000 	nop
    7510:	00000000 	nop
    7514:	00000000 	nop
    7518:	00000000 	nop
    751c:	00000000 	nop
    7520:	00000000 	nop
    7524:	00000000 	nop
    7528:	00000000 	nop
    752c:	00000000 	nop
    7530:	00000000 	nop
    7534:	00000000 	nop
    7538:	00000000 	nop
    753c:	00000000 	nop
    7540:	00000000 	nop
    7544:	00000000 	nop
    7548:	00000000 	nop
    754c:	00000000 	nop
    7550:	00000000 	nop
    7554:	00000000 	nop
    7558:	00000000 	nop
    755c:	00000000 	nop
    7560:	00000000 	nop
    7564:	00000000 	nop
    7568:	00000000 	nop
    756c:	00000000 	nop
    7570:	00000000 	nop
    7574:	00000000 	nop
    7578:	00000000 	nop
    757c:	00000000 	nop
    7580:	00000000 	nop
    7584:	00000000 	nop
    7588:	00000000 	nop
    758c:	00000000 	nop
    7590:	00000000 	nop
    7594:	00000000 	nop
    7598:	00000000 	nop
    759c:	00000000 	nop
    75a0:	00000000 	nop
    75a4:	00000000 	nop
    75a8:	00000000 	nop
    75ac:	00000000 	nop
    75b0:	00000000 	nop
    75b4:	00000000 	nop
    75b8:	00000000 	nop
    75bc:	00000000 	nop
    75c0:	00000000 	nop
    75c4:	00000000 	nop
    75c8:	00000000 	nop
    75cc:	00000000 	nop
    75d0:	00000000 	nop
    75d4:	00000000 	nop
    75d8:	00000000 	nop
    75dc:	00000000 	nop
    75e0:	00000000 	nop
    75e4:	00000000 	nop
    75e8:	00000000 	nop
    75ec:	00000000 	nop
    75f0:	00000000 	nop
    75f4:	00000000 	nop
    75f8:	00000000 	nop
    75fc:	00000000 	nop
    7600:	00000000 	nop
    7604:	00000000 	nop
    7608:	00000000 	nop
    760c:	00000000 	nop
    7610:	00000000 	nop
    7614:	00000000 	nop
    7618:	00000000 	nop
    761c:	00000000 	nop
    7620:	00000000 	nop
    7624:	00000000 	nop
    7628:	00000000 	nop
    762c:	00000000 	nop
    7630:	00000000 	nop
    7634:	00000000 	nop
    7638:	00000000 	nop
    763c:	00000000 	nop
    7640:	00000000 	nop
    7644:	00000000 	nop
    7648:	00000000 	nop
    764c:	00000000 	nop
    7650:	00000000 	nop
    7654:	00000000 	nop
    7658:	00000000 	nop
    765c:	00000000 	nop
    7660:	00000000 	nop
    7664:	00000000 	nop
    7668:	00000000 	nop
    766c:	00000000 	nop
    7670:	00000000 	nop
    7674:	00000000 	nop
    7678:	00000000 	nop
    767c:	00000000 	nop
    7680:	00000000 	nop
    7684:	00000000 	nop
    7688:	00000000 	nop
    768c:	00000000 	nop
    7690:	00000000 	nop
    7694:	00000000 	nop
    7698:	00000000 	nop
    769c:	00000000 	nop
    76a0:	00000000 	nop
    76a4:	00000000 	nop
    76a8:	00000000 	nop
    76ac:	00000000 	nop
    76b0:	00000000 	nop
    76b4:	00000000 	nop
    76b8:	00000000 	nop
    76bc:	00000000 	nop
    76c0:	00000000 	nop
    76c4:	00000000 	nop
    76c8:	00000000 	nop
    76cc:	00000000 	nop
    76d0:	00000000 	nop
    76d4:	00000000 	nop
    76d8:	00000000 	nop
    76dc:	00000000 	nop
    76e0:	00000000 	nop
    76e4:	00000000 	nop
    76e8:	00000000 	nop
    76ec:	00000000 	nop
    76f0:	00000000 	nop
    76f4:	00000000 	nop
    76f8:	00000000 	nop
    76fc:	00000000 	nop
    7700:	00000000 	nop
    7704:	00000000 	nop
    7708:	00000000 	nop
    770c:	00000000 	nop
    7710:	00000000 	nop
    7714:	00000000 	nop
    7718:	00000000 	nop
    771c:	00000000 	nop
    7720:	00000000 	nop
    7724:	00000000 	nop
    7728:	00000000 	nop
    772c:	00000000 	nop
    7730:	00000000 	nop
    7734:	00000000 	nop
    7738:	00000000 	nop
    773c:	00000000 	nop
    7740:	00000000 	nop
    7744:	00000000 	nop
    7748:	00000000 	nop
    774c:	00000000 	nop
    7750:	00000000 	nop
    7754:	00000000 	nop
    7758:	00000000 	nop
    775c:	00000000 	nop
    7760:	00000000 	nop
    7764:	00000000 	nop
    7768:	00000000 	nop
    776c:	00000000 	nop
    7770:	00000000 	nop
    7774:	00000000 	nop
    7778:	00000000 	nop
    777c:	00000000 	nop
    7780:	00000000 	nop
    7784:	00000000 	nop
    7788:	00000000 	nop
    778c:	00000000 	nop
    7790:	00000000 	nop
    7794:	00000000 	nop
    7798:	00000000 	nop
    779c:	00000000 	nop
    77a0:	00000000 	nop
    77a4:	00000000 	nop
    77a8:	00000000 	nop
    77ac:	00000000 	nop
    77b0:	00000000 	nop
    77b4:	00000000 	nop
    77b8:	00000000 	nop
    77bc:	00000000 	nop
    77c0:	00000000 	nop
    77c4:	00000000 	nop
    77c8:	00000000 	nop
    77cc:	00000000 	nop
    77d0:	00000000 	nop
    77d4:	00000000 	nop
    77d8:	00000000 	nop
    77dc:	00000000 	nop
    77e0:	00000000 	nop
    77e4:	00000000 	nop
    77e8:	00000000 	nop
    77ec:	00000000 	nop
    77f0:	00000000 	nop
    77f4:	00000000 	nop
    77f8:	00000000 	nop
    77fc:	00000000 	nop
    7800:	00000000 	nop
    7804:	00000000 	nop
    7808:	00000000 	nop
    780c:	00000000 	nop
    7810:	00000000 	nop
    7814:	00000000 	nop
    7818:	00000000 	nop
    781c:	00000000 	nop
    7820:	00000000 	nop
    7824:	00000000 	nop
    7828:	00000000 	nop
    782c:	00000000 	nop
    7830:	00000000 	nop
    7834:	00000000 	nop
    7838:	00000000 	nop
    783c:	00000000 	nop
    7840:	00000000 	nop
    7844:	00000000 	nop
    7848:	00000000 	nop
    784c:	00000000 	nop
    7850:	00000000 	nop
    7854:	00000000 	nop
    7858:	00000000 	nop
    785c:	00000000 	nop
    7860:	00000000 	nop
    7864:	00000000 	nop
    7868:	00000000 	nop
    786c:	00000000 	nop
    7870:	00000000 	nop
    7874:	00000000 	nop
    7878:	00000000 	nop
    787c:	00000000 	nop
    7880:	00000000 	nop
    7884:	00000000 	nop
    7888:	00000000 	nop
    788c:	00000000 	nop
    7890:	00000000 	nop
    7894:	00000000 	nop
    7898:	00000000 	nop
    789c:	00000000 	nop
    78a0:	00000000 	nop
    78a4:	00000000 	nop
    78a8:	00000000 	nop
    78ac:	00000000 	nop
    78b0:	00000000 	nop
    78b4:	00000000 	nop
    78b8:	00000000 	nop
    78bc:	00000000 	nop
    78c0:	00000000 	nop
    78c4:	00000000 	nop
    78c8:	00000000 	nop
    78cc:	00000000 	nop
    78d0:	00000000 	nop
    78d4:	00000000 	nop
    78d8:	00000000 	nop
    78dc:	00000000 	nop
    78e0:	00000000 	nop
    78e4:	00000000 	nop
    78e8:	00000000 	nop
    78ec:	00000000 	nop
    78f0:	00000000 	nop
    78f4:	00000000 	nop
    78f8:	00000000 	nop
    78fc:	00000000 	nop
    7900:	00000000 	nop
    7904:	00000000 	nop
    7908:	00000000 	nop
    790c:	00000000 	nop
    7910:	00000000 	nop
    7914:	00000000 	nop
    7918:	00000000 	nop
    791c:	00000000 	nop
    7920:	00000000 	nop
    7924:	00000000 	nop
    7928:	00000000 	nop
    792c:	00000000 	nop
    7930:	00000000 	nop
    7934:	00000000 	nop
    7938:	00000000 	nop
    793c:	00000000 	nop
    7940:	00000000 	nop
    7944:	00000000 	nop
    7948:	00000000 	nop
    794c:	00000000 	nop
    7950:	00000000 	nop
    7954:	00000000 	nop
    7958:	00000000 	nop
    795c:	00000000 	nop
    7960:	00000000 	nop
    7964:	00000000 	nop
    7968:	00000000 	nop
    796c:	00000000 	nop
    7970:	00000000 	nop
    7974:	00000000 	nop
    7978:	00000000 	nop
    797c:	00000000 	nop
    7980:	00000000 	nop
    7984:	00000000 	nop
    7988:	00000000 	nop
    798c:	00000000 	nop
    7990:	00000000 	nop
    7994:	00000000 	nop
    7998:	00000000 	nop
    799c:	00000000 	nop
    79a0:	00000000 	nop
    79a4:	00000000 	nop
    79a8:	00000000 	nop
    79ac:	00000000 	nop
    79b0:	00000000 	nop
    79b4:	00000000 	nop
    79b8:	00000000 	nop
    79bc:	00000000 	nop
    79c0:	00000000 	nop
    79c4:	00000000 	nop
    79c8:	00000000 	nop
    79cc:	00000000 	nop
    79d0:	00000000 	nop
    79d4:	00000000 	nop
    79d8:	00000000 	nop
    79dc:	00000000 	nop
    79e0:	00000000 	nop
    79e4:	00000000 	nop
    79e8:	00000000 	nop
    79ec:	00000000 	nop
    79f0:	00000000 	nop
    79f4:	00000000 	nop
    79f8:	00000000 	nop
    79fc:	00000000 	nop
    7a00:	00000000 	nop
    7a04:	00000000 	nop
    7a08:	00000000 	nop
    7a0c:	00000000 	nop
    7a10:	00000000 	nop
    7a14:	00000000 	nop
    7a18:	00000000 	nop
    7a1c:	00000000 	nop
    7a20:	00000000 	nop
    7a24:	00000000 	nop
    7a28:	00000000 	nop
    7a2c:	00000000 	nop
    7a30:	00000000 	nop
    7a34:	00000000 	nop
    7a38:	00000000 	nop
    7a3c:	00000000 	nop
    7a40:	00000000 	nop
    7a44:	00000000 	nop
    7a48:	00000000 	nop
    7a4c:	00000000 	nop
    7a50:	00000000 	nop
    7a54:	00000000 	nop
    7a58:	00000000 	nop
    7a5c:	00000000 	nop
    7a60:	00000000 	nop
    7a64:	00000000 	nop
    7a68:	00000000 	nop
    7a6c:	00000000 	nop
    7a70:	00000000 	nop
    7a74:	00000000 	nop
    7a78:	00000000 	nop
    7a7c:	00000000 	nop
    7a80:	00000000 	nop
    7a84:	00000000 	nop
    7a88:	00000000 	nop
    7a8c:	00000000 	nop
    7a90:	00000000 	nop
    7a94:	00000000 	nop
    7a98:	00000000 	nop
    7a9c:	00000000 	nop
    7aa0:	00000000 	nop
    7aa4:	00000000 	nop
    7aa8:	00000000 	nop
    7aac:	00000000 	nop
    7ab0:	00000000 	nop
    7ab4:	00000000 	nop
    7ab8:	00000000 	nop
    7abc:	00000000 	nop
    7ac0:	00000000 	nop
    7ac4:	00000000 	nop
    7ac8:	00000000 	nop
    7acc:	00000000 	nop
    7ad0:	00000000 	nop
    7ad4:	00000000 	nop
    7ad8:	00000000 	nop
    7adc:	00000000 	nop
    7ae0:	00000000 	nop
    7ae4:	00000000 	nop
    7ae8:	00000000 	nop
    7aec:	00000000 	nop
    7af0:	00000000 	nop
    7af4:	00000000 	nop
    7af8:	00000000 	nop
    7afc:	00000000 	nop
    7b00:	00000000 	nop
    7b04:	00000000 	nop
    7b08:	00000000 	nop
    7b0c:	00000000 	nop
    7b10:	00000000 	nop
    7b14:	00000000 	nop
    7b18:	00000000 	nop
    7b1c:	00000000 	nop
    7b20:	00000000 	nop
    7b24:	00000000 	nop
    7b28:	00000000 	nop
    7b2c:	00000000 	nop
    7b30:	00000000 	nop
    7b34:	00000000 	nop
    7b38:	00000000 	nop
    7b3c:	00000000 	nop
    7b40:	00000000 	nop
    7b44:	00000000 	nop
    7b48:	00000000 	nop
    7b4c:	00000000 	nop
    7b50:	00000000 	nop
    7b54:	00000000 	nop
    7b58:	00000000 	nop
    7b5c:	00000000 	nop
    7b60:	00000000 	nop
    7b64:	00000000 	nop
    7b68:	00000000 	nop
    7b6c:	00000000 	nop
    7b70:	00000000 	nop
    7b74:	00000000 	nop
    7b78:	00000000 	nop
    7b7c:	00000000 	nop
    7b80:	00000000 	nop
    7b84:	00000000 	nop
    7b88:	00000000 	nop
    7b8c:	00000000 	nop
    7b90:	00000000 	nop
    7b94:	00000000 	nop
    7b98:	00000000 	nop
    7b9c:	00000000 	nop
    7ba0:	00000000 	nop
    7ba4:	00000000 	nop
    7ba8:	00000000 	nop
    7bac:	00000000 	nop
    7bb0:	00000000 	nop
    7bb4:	00000000 	nop
    7bb8:	00000000 	nop
    7bbc:	00000000 	nop
    7bc0:	00000000 	nop
    7bc4:	00000000 	nop
    7bc8:	00000000 	nop
    7bcc:	00000000 	nop
    7bd0:	00000000 	nop
    7bd4:	00000000 	nop
    7bd8:	00000000 	nop
    7bdc:	00000000 	nop
    7be0:	00000000 	nop
    7be4:	00000000 	nop
    7be8:	00000000 	nop
    7bec:	00000000 	nop
    7bf0:	00000000 	nop
    7bf4:	00000000 	nop
    7bf8:	00000000 	nop
    7bfc:	00000000 	nop
    7c00:	00000000 	nop
    7c04:	00000000 	nop
    7c08:	00000000 	nop
    7c0c:	00000000 	nop
    7c10:	00000000 	nop
    7c14:	00000000 	nop
    7c18:	00000000 	nop
    7c1c:	00000000 	nop
    7c20:	00000000 	nop
    7c24:	00000000 	nop
    7c28:	00000000 	nop
    7c2c:	00000000 	nop
    7c30:	00000000 	nop
    7c34:	00000000 	nop
    7c38:	00000000 	nop
    7c3c:	00000000 	nop
    7c40:	00000000 	nop
    7c44:	00000000 	nop
    7c48:	00000000 	nop
    7c4c:	00000000 	nop
    7c50:	00000000 	nop
    7c54:	00000000 	nop
    7c58:	00000000 	nop
    7c5c:	00000000 	nop
    7c60:	00000000 	nop
    7c64:	00000000 	nop
    7c68:	00000000 	nop
    7c6c:	00000000 	nop
    7c70:	00000000 	nop
    7c74:	00000000 	nop
    7c78:	00000000 	nop
    7c7c:	00000000 	nop
    7c80:	00000000 	nop
    7c84:	00000000 	nop
    7c88:	00000000 	nop
    7c8c:	00000000 	nop
    7c90:	00000000 	nop
    7c94:	00000000 	nop
    7c98:	00000000 	nop
    7c9c:	00000000 	nop
    7ca0:	00000000 	nop
    7ca4:	00000000 	nop
    7ca8:	00000000 	nop
    7cac:	00000000 	nop
    7cb0:	00000000 	nop
    7cb4:	00000000 	nop
    7cb8:	00000000 	nop
    7cbc:	00000000 	nop
    7cc0:	00000000 	nop
    7cc4:	00000000 	nop
    7cc8:	00000000 	nop
    7ccc:	00000000 	nop
    7cd0:	00000000 	nop
    7cd4:	00000000 	nop
    7cd8:	00000000 	nop
    7cdc:	00000000 	nop
    7ce0:	00000000 	nop
    7ce4:	00000000 	nop
    7ce8:	00000000 	nop
    7cec:	00000000 	nop
    7cf0:	00000000 	nop
    7cf4:	00000000 	nop
    7cf8:	00000000 	nop
    7cfc:	00000000 	nop
    7d00:	00000000 	nop
    7d04:	00000000 	nop
    7d08:	00000000 	nop
    7d0c:	00000000 	nop
    7d10:	00000000 	nop
    7d14:	00000000 	nop
    7d18:	00000000 	nop
    7d1c:	00000000 	nop
    7d20:	00000000 	nop
    7d24:	00000000 	nop
    7d28:	00000000 	nop
    7d2c:	00000000 	nop
    7d30:	00000000 	nop
    7d34:	00000000 	nop
    7d38:	00000000 	nop
    7d3c:	00000000 	nop
    7d40:	00000000 	nop
    7d44:	00000000 	nop
    7d48:	00000000 	nop
    7d4c:	00000000 	nop
    7d50:	00000000 	nop
    7d54:	00000000 	nop
    7d58:	00000000 	nop
    7d5c:	00000000 	nop
    7d60:	00000000 	nop
    7d64:	00000000 	nop
    7d68:	00000000 	nop
    7d6c:	00000000 	nop
    7d70:	00000000 	nop
    7d74:	00000000 	nop
    7d78:	00000000 	nop
    7d7c:	00000000 	nop
    7d80:	00000000 	nop
    7d84:	00000000 	nop
    7d88:	00000000 	nop
    7d8c:	00000000 	nop
    7d90:	00000000 	nop
    7d94:	00000000 	nop
    7d98:	00000000 	nop
    7d9c:	00000000 	nop
    7da0:	00000000 	nop
    7da4:	00000000 	nop
    7da8:	00000000 	nop
    7dac:	00000000 	nop
    7db0:	00000000 	nop
    7db4:	00000000 	nop
    7db8:	00000000 	nop
    7dbc:	00000000 	nop
    7dc0:	00000000 	nop
    7dc4:	00000000 	nop
    7dc8:	00000000 	nop
    7dcc:	00000000 	nop
    7dd0:	00000000 	nop
    7dd4:	00000000 	nop
    7dd8:	00000000 	nop
    7ddc:	00000000 	nop
    7de0:	00000000 	nop
    7de4:	00000000 	nop
    7de8:	00000000 	nop
    7dec:	00000000 	nop
    7df0:	00000000 	nop
    7df4:	00000000 	nop
    7df8:	00000000 	nop
    7dfc:	00000000 	nop
    7e00:	00000000 	nop
    7e04:	00000000 	nop
    7e08:	00000000 	nop
    7e0c:	00000000 	nop
    7e10:	00000000 	nop
    7e14:	00000000 	nop
    7e18:	00000000 	nop
    7e1c:	00000000 	nop
    7e20:	00000000 	nop
    7e24:	00000000 	nop
    7e28:	00000000 	nop
    7e2c:	00000000 	nop
    7e30:	00000000 	nop
    7e34:	00000000 	nop
    7e38:	00000000 	nop
    7e3c:	00000000 	nop
    7e40:	00000000 	nop
    7e44:	00000000 	nop
    7e48:	00000000 	nop
    7e4c:	00000000 	nop
    7e50:	00000000 	nop
    7e54:	00000000 	nop
    7e58:	00000000 	nop
    7e5c:	00000000 	nop
    7e60:	00000000 	nop
    7e64:	00000000 	nop
    7e68:	00000000 	nop
    7e6c:	00000000 	nop
    7e70:	00000000 	nop
    7e74:	00000000 	nop
    7e78:	00000000 	nop
    7e7c:	00000000 	nop
    7e80:	00000000 	nop
    7e84:	00000000 	nop
    7e88:	00000000 	nop
    7e8c:	00000000 	nop
    7e90:	00000000 	nop
    7e94:	00000000 	nop
    7e98:	00000000 	nop
    7e9c:	00000000 	nop
    7ea0:	00000000 	nop
    7ea4:	00000000 	nop
    7ea8:	00000000 	nop
    7eac:	00000000 	nop
    7eb0:	00000000 	nop
    7eb4:	00000000 	nop
    7eb8:	00000000 	nop
    7ebc:	00000000 	nop
    7ec0:	00000000 	nop
    7ec4:	00000000 	nop
    7ec8:	00000000 	nop
    7ecc:	00000000 	nop
    7ed0:	00000000 	nop
    7ed4:	00000000 	nop
    7ed8:	00000000 	nop
    7edc:	00000000 	nop
    7ee0:	00000000 	nop
    7ee4:	00000000 	nop
    7ee8:	00000000 	nop
    7eec:	00000000 	nop
    7ef0:	00000000 	nop
    7ef4:	00000000 	nop
    7ef8:	00000000 	nop
    7efc:	00000000 	nop
    7f00:	00000000 	nop
    7f04:	00000000 	nop
    7f08:	00000000 	nop
    7f0c:	00000000 	nop
    7f10:	00000000 	nop
    7f14:	00000000 	nop
    7f18:	00000000 	nop
    7f1c:	00000000 	nop
    7f20:	00000000 	nop
    7f24:	00000000 	nop
    7f28:	00000000 	nop
    7f2c:	00000000 	nop
    7f30:	00000000 	nop
    7f34:	00000000 	nop
    7f38:	00000000 	nop
    7f3c:	00000000 	nop
    7f40:	00000000 	nop
    7f44:	00000000 	nop
    7f48:	00000000 	nop
    7f4c:	00000000 	nop
    7f50:	00000000 	nop
    7f54:	00000000 	nop
    7f58:	00000000 	nop
    7f5c:	00000000 	nop
    7f60:	00000000 	nop
    7f64:	00000000 	nop
    7f68:	00000000 	nop
    7f6c:	00000000 	nop
    7f70:	00000000 	nop
    7f74:	00000000 	nop
    7f78:	00000000 	nop
    7f7c:	00000000 	nop
    7f80:	00000000 	nop
    7f84:	00000000 	nop
    7f88:	00000000 	nop
    7f8c:	00000000 	nop
    7f90:	00000000 	nop
    7f94:	00000000 	nop
    7f98:	00000000 	nop
    7f9c:	00000000 	nop
    7fa0:	00000000 	nop
    7fa4:	00000000 	nop
    7fa8:	00000000 	nop
    7fac:	00000000 	nop
    7fb0:	00000000 	nop
    7fb4:	00000000 	nop
    7fb8:	00000000 	nop
    7fbc:	00000000 	nop
    7fc0:	00000000 	nop
    7fc4:	00000000 	nop
    7fc8:	00000000 	nop
    7fcc:	00000000 	nop
    7fd0:	00000000 	nop
    7fd4:	00000000 	nop
    7fd8:	00000000 	nop
    7fdc:	00000000 	nop
    7fe0:	00000000 	nop
    7fe4:	00000000 	nop
    7fe8:	00000000 	nop
    7fec:	00000000 	nop
    7ff0:	00000000 	nop
    7ff4:	00000000 	nop
    7ff8:	00000000 	nop
    7ffc:	00000000 	nop
    8000:	00000000 	nop
    8004:	00000000 	nop
    8008:	00000000 	nop
    800c:	00000000 	nop
    8010:	00000000 	nop
    8014:	00000000 	nop
    8018:	00000000 	nop
    801c:	00000000 	nop
    8020:	00000000 	nop
    8024:	00000000 	nop
    8028:	00000000 	nop
    802c:	00000000 	nop
    8030:	00000000 	nop
    8034:	00000000 	nop
    8038:	00000000 	nop
    803c:	00000000 	nop
    8040:	00000000 	nop
    8044:	00000000 	nop
    8048:	00000000 	nop
    804c:	00000000 	nop
    8050:	00000000 	nop
    8054:	00000000 	nop
    8058:	00000000 	nop
    805c:	00000000 	nop
    8060:	00000000 	nop
    8064:	00000000 	nop
    8068:	00000000 	nop
    806c:	00000000 	nop
    8070:	00000000 	nop
    8074:	00000000 	nop
    8078:	00000000 	nop
    807c:	00000000 	nop
    8080:	00000000 	nop
    8084:	00000000 	nop
    8088:	00000000 	nop
    808c:	00000000 	nop
    8090:	00000000 	nop
    8094:	00000000 	nop
    8098:	00000000 	nop
    809c:	00000000 	nop
    80a0:	00000000 	nop
    80a4:	00000000 	nop
    80a8:	00000000 	nop
    80ac:	00000000 	nop
    80b0:	00000000 	nop
    80b4:	00000000 	nop
    80b8:	00000000 	nop
    80bc:	00000000 	nop
    80c0:	00000000 	nop
    80c4:	00000000 	nop
    80c8:	00000000 	nop
    80cc:	00000000 	nop
    80d0:	00000000 	nop
    80d4:	00000000 	nop
    80d8:	00000000 	nop
    80dc:	00000000 	nop
    80e0:	00000000 	nop
    80e4:	00000000 	nop
    80e8:	00000000 	nop
    80ec:	00000000 	nop
    80f0:	00000000 	nop
    80f4:	00000000 	nop
    80f8:	00000000 	nop
    80fc:	00000000 	nop
    8100:	00000000 	nop
    8104:	00000000 	nop
    8108:	00000000 	nop
    810c:	00000000 	nop
    8110:	00000000 	nop
    8114:	00000000 	nop
    8118:	00000000 	nop
    811c:	00000000 	nop
    8120:	00000000 	nop
    8124:	00000000 	nop
    8128:	00000000 	nop
    812c:	00000000 	nop
    8130:	00000000 	nop
    8134:	00000000 	nop
    8138:	00000000 	nop
    813c:	00000000 	nop
    8140:	00000000 	nop
    8144:	00000000 	nop
    8148:	00000000 	nop
    814c:	00000000 	nop
    8150:	00000000 	nop
    8154:	00000000 	nop
    8158:	00000000 	nop
    815c:	00000000 	nop
    8160:	00000000 	nop
    8164:	00000000 	nop
    8168:	00000000 	nop
    816c:	00000000 	nop
    8170:	00000000 	nop
    8174:	00000000 	nop
    8178:	00000000 	nop
    817c:	00000000 	nop
    8180:	00000000 	nop
    8184:	00000000 	nop
    8188:	00000000 	nop
    818c:	00000000 	nop
    8190:	00000000 	nop
    8194:	00000000 	nop
    8198:	00000000 	nop
    819c:	00000000 	nop
    81a0:	00000000 	nop
    81a4:	00000000 	nop
    81a8:	00000000 	nop
    81ac:	00000000 	nop
    81b0:	00000000 	nop
    81b4:	00000000 	nop
    81b8:	00000000 	nop
    81bc:	00000000 	nop
    81c0:	00000000 	nop
    81c4:	00000000 	nop
    81c8:	00000000 	nop
    81cc:	00000000 	nop
    81d0:	00000000 	nop
    81d4:	00000000 	nop
    81d8:	00000000 	nop
    81dc:	00000000 	nop
    81e0:	00000000 	nop
    81e4:	00000000 	nop
    81e8:	00000000 	nop
    81ec:	00000000 	nop
    81f0:	00000000 	nop
    81f4:	00000000 	nop
    81f8:	00000000 	nop
    81fc:	00000000 	nop
    8200:	00000000 	nop
    8204:	00000000 	nop
    8208:	00000000 	nop
    820c:	00000000 	nop
    8210:	00000000 	nop
    8214:	00000000 	nop
    8218:	00000000 	nop
    821c:	00000000 	nop
    8220:	00000000 	nop
    8224:	00000000 	nop
    8228:	00000000 	nop
    822c:	00000000 	nop
    8230:	00000000 	nop
    8234:	00000000 	nop
    8238:	00000000 	nop
    823c:	00000000 	nop
    8240:	00000000 	nop
    8244:	00000000 	nop
    8248:	00000000 	nop
    824c:	00000000 	nop
    8250:	00000000 	nop
    8254:	00000000 	nop
    8258:	00000000 	nop
    825c:	00000000 	nop
    8260:	00000000 	nop
    8264:	00000000 	nop
    8268:	00000000 	nop
    826c:	00000000 	nop
    8270:	00000000 	nop
    8274:	00000000 	nop
    8278:	00000000 	nop
    827c:	00000000 	nop
    8280:	00000000 	nop
    8284:	00000000 	nop
    8288:	00000000 	nop
    828c:	00000000 	nop
    8290:	00000000 	nop
    8294:	00000000 	nop
    8298:	00000000 	nop
    829c:	00000000 	nop
    82a0:	00000000 	nop
    82a4:	00000000 	nop
    82a8:	00000000 	nop
    82ac:	00000000 	nop
    82b0:	00000000 	nop
    82b4:	00000000 	nop
    82b8:	00000000 	nop
    82bc:	00000000 	nop
    82c0:	00000000 	nop
    82c4:	00000000 	nop
    82c8:	00000000 	nop
    82cc:	00000000 	nop
    82d0:	00000000 	nop
    82d4:	00000000 	nop
    82d8:	00000000 	nop
    82dc:	00000000 	nop
    82e0:	00000000 	nop
    82e4:	00000000 	nop
    82e8:	00000000 	nop
    82ec:	00000000 	nop
    82f0:	00000000 	nop
    82f4:	00000000 	nop
    82f8:	00000000 	nop
    82fc:	00000000 	nop
    8300:	00000000 	nop
    8304:	00000000 	nop
    8308:	00000000 	nop
    830c:	00000000 	nop
    8310:	00000000 	nop
    8314:	00000000 	nop
    8318:	00000000 	nop
    831c:	00000000 	nop
    8320:	00000000 	nop
    8324:	00000000 	nop
    8328:	00000000 	nop
    832c:	00000000 	nop
    8330:	00000000 	nop
    8334:	00000000 	nop
    8338:	00000000 	nop
    833c:	00000000 	nop
    8340:	00000000 	nop
    8344:	00000000 	nop
    8348:	00000000 	nop
    834c:	00000000 	nop
    8350:	00000000 	nop
    8354:	00000000 	nop
    8358:	00000000 	nop
    835c:	00000000 	nop
    8360:	00000000 	nop
    8364:	00000000 	nop
    8368:	00000000 	nop
    836c:	00000000 	nop
    8370:	00000000 	nop
    8374:	00000000 	nop
    8378:	00000000 	nop
    837c:	00000000 	nop
    8380:	00000000 	nop
    8384:	00000000 	nop
    8388:	00000000 	nop
    838c:	00000000 	nop
    8390:	00000000 	nop
    8394:	00000000 	nop
    8398:	00000000 	nop
    839c:	00000000 	nop
    83a0:	00000000 	nop
    83a4:	00000000 	nop
    83a8:	00000000 	nop
    83ac:	00000000 	nop
    83b0:	00000000 	nop
    83b4:	00000000 	nop
    83b8:	00000000 	nop
    83bc:	00000000 	nop
    83c0:	00000000 	nop
    83c4:	00000000 	nop
    83c8:	00000000 	nop
    83cc:	00000000 	nop
    83d0:	00000000 	nop
    83d4:	00000000 	nop
    83d8:	00000000 	nop
    83dc:	00000000 	nop
    83e0:	00000000 	nop
    83e4:	00000000 	nop
    83e8:	00000000 	nop
    83ec:	00000000 	nop
    83f0:	00000000 	nop
    83f4:	00000000 	nop
    83f8:	00000000 	nop
    83fc:	00000000 	nop
    8400:	00000000 	nop
    8404:	00000000 	nop
    8408:	00000000 	nop
    840c:	00000000 	nop
    8410:	00000000 	nop
    8414:	00000000 	nop
    8418:	00000000 	nop
    841c:	00000000 	nop
    8420:	00000000 	nop
    8424:	00000000 	nop
    8428:	00000000 	nop
    842c:	00000000 	nop
    8430:	00000000 	nop
    8434:	00000000 	nop
    8438:	00000000 	nop
    843c:	00000000 	nop
    8440:	00000000 	nop
    8444:	00000000 	nop
    8448:	00000000 	nop
    844c:	00000000 	nop
    8450:	00000000 	nop
    8454:	00000000 	nop
    8458:	00000000 	nop
    845c:	00000000 	nop
    8460:	00000000 	nop
    8464:	00000000 	nop
    8468:	00000000 	nop
    846c:	00000000 	nop
    8470:	00000000 	nop
    8474:	00000000 	nop
    8478:	00000000 	nop
    847c:	00000000 	nop
    8480:	00000000 	nop
    8484:	00000000 	nop
    8488:	00000000 	nop
    848c:	00000000 	nop
    8490:	00000000 	nop
    8494:	00000000 	nop
    8498:	00000000 	nop
    849c:	00000000 	nop
    84a0:	00000000 	nop
    84a4:	00000000 	nop
    84a8:	00000000 	nop
    84ac:	00000000 	nop
    84b0:	00000000 	nop
    84b4:	00000000 	nop
    84b8:	00000000 	nop
    84bc:	00000000 	nop
    84c0:	00000000 	nop
    84c4:	00000000 	nop
    84c8:	00000000 	nop
    84cc:	00000000 	nop
    84d0:	00000000 	nop
    84d4:	00000000 	nop
    84d8:	00000000 	nop
    84dc:	00000000 	nop
    84e0:	00000000 	nop
    84e4:	00000000 	nop
    84e8:	00000000 	nop
    84ec:	00000000 	nop
    84f0:	00000000 	nop
    84f4:	00000000 	nop
    84f8:	00000000 	nop
    84fc:	00000000 	nop
    8500:	00000000 	nop
    8504:	00000000 	nop
    8508:	00000000 	nop
    850c:	00000000 	nop
    8510:	00000000 	nop
    8514:	00000000 	nop
    8518:	00000000 	nop
    851c:	00000000 	nop
    8520:	00000000 	nop
    8524:	00000000 	nop
    8528:	00000000 	nop
    852c:	00000000 	nop
    8530:	00000000 	nop
    8534:	00000000 	nop
    8538:	00000000 	nop
    853c:	00000000 	nop
    8540:	00000000 	nop
    8544:	00000000 	nop
    8548:	00000000 	nop
    854c:	00000000 	nop
    8550:	00000000 	nop
    8554:	00000000 	nop
    8558:	00000000 	nop
    855c:	00000000 	nop
    8560:	00000000 	nop
    8564:	00000000 	nop
    8568:	00000000 	nop
    856c:	00000000 	nop
    8570:	00000000 	nop
    8574:	00000000 	nop
    8578:	00000000 	nop
    857c:	00000000 	nop
    8580:	00000000 	nop
    8584:	00000000 	nop
    8588:	00000000 	nop
    858c:	00000000 	nop
    8590:	00000000 	nop
    8594:	00000000 	nop
    8598:	00000000 	nop
    859c:	00000000 	nop
    85a0:	00000000 	nop
    85a4:	00000000 	nop
    85a8:	00000000 	nop
    85ac:	00000000 	nop
    85b0:	00000000 	nop
    85b4:	00000000 	nop
    85b8:	00000000 	nop
    85bc:	00000000 	nop
    85c0:	00000000 	nop
    85c4:	00000000 	nop
    85c8:	00000000 	nop
    85cc:	00000000 	nop
    85d0:	00000000 	nop
    85d4:	00000000 	nop
    85d8:	00000000 	nop
    85dc:	00000000 	nop
    85e0:	00000000 	nop
    85e4:	00000000 	nop
    85e8:	00000000 	nop
    85ec:	00000000 	nop
    85f0:	00000000 	nop
    85f4:	00000000 	nop
    85f8:	00000000 	nop
    85fc:	00000000 	nop
    8600:	00000000 	nop
    8604:	00000000 	nop
    8608:	00000000 	nop
    860c:	00000000 	nop
    8610:	00000000 	nop
    8614:	00000000 	nop
    8618:	00000000 	nop
    861c:	00000000 	nop
    8620:	00000000 	nop
    8624:	00000000 	nop
    8628:	00000000 	nop
    862c:	00000000 	nop
    8630:	00000000 	nop
    8634:	00000000 	nop
    8638:	00000000 	nop
    863c:	00000000 	nop
    8640:	00000000 	nop
    8644:	00000000 	nop
    8648:	00000000 	nop
    864c:	00000000 	nop
    8650:	00000000 	nop
    8654:	00000000 	nop
    8658:	00000000 	nop
    865c:	00000000 	nop
    8660:	00000000 	nop
    8664:	00000000 	nop
    8668:	00000000 	nop
    866c:	00000000 	nop
    8670:	00000000 	nop
    8674:	00000000 	nop
    8678:	00000000 	nop
    867c:	00000000 	nop
    8680:	00000000 	nop
    8684:	00000000 	nop
    8688:	00000000 	nop
    868c:	00000000 	nop
    8690:	00000000 	nop
    8694:	00000000 	nop
    8698:	00000000 	nop
    869c:	00000000 	nop
    86a0:	00000000 	nop
    86a4:	00000000 	nop
    86a8:	00000000 	nop
    86ac:	00000000 	nop
    86b0:	00000000 	nop
    86b4:	00000000 	nop
    86b8:	00000000 	nop
    86bc:	00000000 	nop
    86c0:	00000000 	nop
    86c4:	00000000 	nop
    86c8:	00000000 	nop
    86cc:	00000000 	nop
    86d0:	00000000 	nop
    86d4:	00000000 	nop
    86d8:	00000000 	nop
    86dc:	00000000 	nop
    86e0:	00000000 	nop
    86e4:	00000000 	nop
    86e8:	00000000 	nop
    86ec:	00000000 	nop
    86f0:	00000000 	nop
    86f4:	00000000 	nop
    86f8:	00000000 	nop
    86fc:	00000000 	nop
    8700:	00000000 	nop
    8704:	00000000 	nop
    8708:	00000000 	nop
    870c:	00000000 	nop
    8710:	00000000 	nop
    8714:	00000000 	nop
    8718:	00000000 	nop
    871c:	00000000 	nop
    8720:	00000000 	nop
    8724:	00000000 	nop
    8728:	00000000 	nop
    872c:	00000000 	nop
    8730:	00000000 	nop
    8734:	00000000 	nop
    8738:	00000000 	nop
    873c:	00000000 	nop
    8740:	00000000 	nop
    8744:	00000000 	nop
    8748:	00000000 	nop
    874c:	00000000 	nop
    8750:	00000000 	nop
    8754:	00000000 	nop
    8758:	00000000 	nop
    875c:	00000000 	nop
    8760:	00000000 	nop
    8764:	00000000 	nop
    8768:	00000000 	nop
    876c:	00000000 	nop
    8770:	00000000 	nop
    8774:	00000000 	nop
    8778:	00000000 	nop
    877c:	00000000 	nop
    8780:	00000000 	nop
    8784:	00000000 	nop
    8788:	00000000 	nop
    878c:	00000000 	nop
    8790:	00000000 	nop
    8794:	00000000 	nop
    8798:	00000000 	nop
    879c:	00000000 	nop
    87a0:	00000000 	nop
    87a4:	00000000 	nop
    87a8:	00000000 	nop
    87ac:	00000000 	nop
    87b0:	00000000 	nop
    87b4:	00000000 	nop
    87b8:	00000000 	nop
    87bc:	00000000 	nop
    87c0:	00000000 	nop
    87c4:	00000000 	nop
    87c8:	00000000 	nop
    87cc:	00000000 	nop
    87d0:	00000000 	nop
    87d4:	00000000 	nop
    87d8:	00000000 	nop
    87dc:	00000000 	nop
    87e0:	00000000 	nop
    87e4:	00000000 	nop
    87e8:	00000000 	nop
    87ec:	00000000 	nop
    87f0:	00000000 	nop
    87f4:	00000000 	nop
    87f8:	00000000 	nop
    87fc:	00000000 	nop
    8800:	00000000 	nop
    8804:	00000000 	nop
    8808:	00000000 	nop
    880c:	00000000 	nop
    8810:	00000000 	nop
    8814:	00000000 	nop
    8818:	00000000 	nop
    881c:	00000000 	nop
    8820:	00000000 	nop
    8824:	00000000 	nop
    8828:	00000000 	nop
    882c:	00000000 	nop
    8830:	00000000 	nop
    8834:	00000000 	nop
    8838:	00000000 	nop
    883c:	00000000 	nop
    8840:	00000000 	nop
    8844:	00000000 	nop
    8848:	00000000 	nop
    884c:	00000000 	nop
    8850:	00000000 	nop
    8854:	00000000 	nop
    8858:	00000000 	nop
    885c:	00000000 	nop
    8860:	00000000 	nop
    8864:	00000000 	nop
    8868:	00000000 	nop
    886c:	00000000 	nop
    8870:	00000000 	nop
    8874:	00000000 	nop
    8878:	00000000 	nop
    887c:	00000000 	nop
    8880:	00000000 	nop
    8884:	00000000 	nop
    8888:	00000000 	nop
    888c:	00000000 	nop
    8890:	00000000 	nop
    8894:	00000000 	nop
    8898:	00000000 	nop
    889c:	00000000 	nop
    88a0:	00000000 	nop
    88a4:	00000000 	nop
    88a8:	00000000 	nop
    88ac:	00000000 	nop
    88b0:	00000000 	nop
    88b4:	00000000 	nop
    88b8:	00000000 	nop
    88bc:	00000000 	nop
    88c0:	00000000 	nop
    88c4:	00000000 	nop
    88c8:	00000000 	nop
    88cc:	00000000 	nop
    88d0:	00000000 	nop
    88d4:	00000000 	nop
    88d8:	00000000 	nop
    88dc:	00000000 	nop
    88e0:	00000000 	nop
    88e4:	00000000 	nop
    88e8:	00000000 	nop
    88ec:	00000000 	nop
    88f0:	00000000 	nop
    88f4:	00000000 	nop
    88f8:	00000000 	nop
    88fc:	00000000 	nop
    8900:	00000000 	nop
    8904:	00000000 	nop
    8908:	00000000 	nop
    890c:	00000000 	nop
    8910:	00000000 	nop
    8914:	00000000 	nop
    8918:	00000000 	nop
    891c:	00000000 	nop
    8920:	00000000 	nop
    8924:	00000000 	nop
    8928:	00000000 	nop
    892c:	00000000 	nop
    8930:	00000000 	nop
    8934:	00000000 	nop
    8938:	00000000 	nop
    893c:	00000000 	nop
    8940:	00000000 	nop
    8944:	00000000 	nop
    8948:	00000000 	nop
    894c:	00000000 	nop
    8950:	00000000 	nop
    8954:	00000000 	nop
    8958:	00000000 	nop
    895c:	00000000 	nop
    8960:	00000000 	nop
    8964:	00000000 	nop
    8968:	00000000 	nop
    896c:	00000000 	nop
    8970:	00000000 	nop
    8974:	00000000 	nop
    8978:	00000000 	nop
    897c:	00000000 	nop
    8980:	00000000 	nop
    8984:	00000000 	nop
    8988:	00000000 	nop
    898c:	00000000 	nop
    8990:	00000000 	nop
    8994:	00000000 	nop
    8998:	00000000 	nop
    899c:	00000000 	nop
    89a0:	00000000 	nop
    89a4:	00000000 	nop
    89a8:	00000000 	nop
    89ac:	00000000 	nop
    89b0:	00000000 	nop
    89b4:	00000000 	nop
    89b8:	00000000 	nop
    89bc:	00000000 	nop
    89c0:	00000000 	nop
    89c4:	00000000 	nop
    89c8:	00000000 	nop
    89cc:	00000000 	nop
    89d0:	00000000 	nop
    89d4:	00000000 	nop
    89d8:	00000000 	nop
    89dc:	00000000 	nop
    89e0:	00000000 	nop
    89e4:	00000000 	nop
    89e8:	00000000 	nop
    89ec:	00000000 	nop
    89f0:	00000000 	nop
    89f4:	00000000 	nop
    89f8:	00000000 	nop
    89fc:	00000000 	nop
    8a00:	00000000 	nop
    8a04:	00000000 	nop
    8a08:	00000000 	nop
    8a0c:	00000000 	nop
    8a10:	00000000 	nop
    8a14:	00000000 	nop
    8a18:	00000000 	nop
    8a1c:	00000000 	nop
    8a20:	00000000 	nop
    8a24:	00000000 	nop
    8a28:	00000000 	nop
    8a2c:	00000000 	nop
    8a30:	00000000 	nop
    8a34:	00000000 	nop
    8a38:	00000000 	nop
    8a3c:	00000000 	nop
    8a40:	00000000 	nop
    8a44:	00000000 	nop
    8a48:	00000000 	nop
    8a4c:	00000000 	nop
    8a50:	00000000 	nop
    8a54:	00000000 	nop
    8a58:	00000000 	nop
    8a5c:	00000000 	nop
    8a60:	00000000 	nop
    8a64:	00000000 	nop
    8a68:	00000000 	nop
    8a6c:	00000000 	nop
    8a70:	00000000 	nop
    8a74:	00000000 	nop
    8a78:	00000000 	nop
    8a7c:	00000000 	nop
    8a80:	00000000 	nop
    8a84:	00000000 	nop
    8a88:	00000000 	nop
    8a8c:	00000000 	nop
    8a90:	00000000 	nop
    8a94:	00000000 	nop
    8a98:	00000000 	nop
    8a9c:	00000000 	nop
    8aa0:	00000000 	nop
    8aa4:	00000000 	nop
    8aa8:	00000000 	nop
    8aac:	00000000 	nop
    8ab0:	00000000 	nop
    8ab4:	00000000 	nop
    8ab8:	00000000 	nop
    8abc:	00000000 	nop
    8ac0:	00000000 	nop
    8ac4:	00000000 	nop
    8ac8:	00000000 	nop
    8acc:	00000000 	nop
    8ad0:	00000000 	nop
    8ad4:	00000000 	nop
    8ad8:	00000000 	nop
    8adc:	00000000 	nop
    8ae0:	00000000 	nop
    8ae4:	00000000 	nop
    8ae8:	00000000 	nop
    8aec:	00000000 	nop
    8af0:	00000000 	nop
    8af4:	00000000 	nop
    8af8:	00000000 	nop
    8afc:	00000000 	nop
    8b00:	00000000 	nop
    8b04:	00000000 	nop
    8b08:	00000000 	nop
    8b0c:	00000000 	nop
    8b10:	00000000 	nop
    8b14:	00000000 	nop
    8b18:	00000000 	nop
    8b1c:	00000000 	nop
    8b20:	00000000 	nop
    8b24:	00000000 	nop
    8b28:	00000000 	nop
    8b2c:	00000000 	nop
    8b30:	00000000 	nop
    8b34:	00000000 	nop
    8b38:	00000000 	nop
    8b3c:	00000000 	nop
    8b40:	00000000 	nop
    8b44:	00000000 	nop
    8b48:	00000000 	nop
    8b4c:	00000000 	nop
    8b50:	00000000 	nop
    8b54:	00000000 	nop
    8b58:	00000000 	nop
    8b5c:	00000000 	nop
    8b60:	00000000 	nop
    8b64:	00000000 	nop
    8b68:	00000000 	nop
    8b6c:	00000000 	nop
    8b70:	00000000 	nop
    8b74:	00000000 	nop
    8b78:	00000000 	nop
    8b7c:	00000000 	nop
    8b80:	00000000 	nop
    8b84:	00000000 	nop
    8b88:	00000000 	nop
    8b8c:	00000000 	nop
    8b90:	00000000 	nop
    8b94:	00000000 	nop
    8b98:	00000000 	nop
    8b9c:	00000000 	nop
    8ba0:	00000000 	nop
    8ba4:	00000000 	nop
    8ba8:	00000000 	nop
    8bac:	00000000 	nop
    8bb0:	00000000 	nop
    8bb4:	00000000 	nop
    8bb8:	00000000 	nop
    8bbc:	00000000 	nop
    8bc0:	00000000 	nop
    8bc4:	00000000 	nop
    8bc8:	00000000 	nop
    8bcc:	00000000 	nop
    8bd0:	00000000 	nop
    8bd4:	00000000 	nop
    8bd8:	00000000 	nop
    8bdc:	00000000 	nop
    8be0:	00000000 	nop
    8be4:	00000000 	nop
    8be8:	00000000 	nop
    8bec:	00000000 	nop
    8bf0:	00000000 	nop
    8bf4:	00000000 	nop
    8bf8:	00000000 	nop
    8bfc:	00000000 	nop
    8c00:	00000000 	nop
    8c04:	00000000 	nop
    8c08:	00000000 	nop
    8c0c:	00000000 	nop
    8c10:	00000000 	nop
    8c14:	00000000 	nop
    8c18:	00000000 	nop
    8c1c:	00000000 	nop
    8c20:	00000000 	nop
    8c24:	00000000 	nop
    8c28:	00000000 	nop
    8c2c:	00000000 	nop
    8c30:	00000000 	nop
    8c34:	00000000 	nop
    8c38:	00000000 	nop
    8c3c:	00000000 	nop
    8c40:	00000000 	nop
    8c44:	00000000 	nop
    8c48:	00000000 	nop
    8c4c:	00000000 	nop
    8c50:	00000000 	nop
    8c54:	00000000 	nop
    8c58:	00000000 	nop
    8c5c:	00000000 	nop
    8c60:	00000000 	nop
    8c64:	00000000 	nop
    8c68:	00000000 	nop
    8c6c:	00000000 	nop
    8c70:	00000000 	nop
    8c74:	00000000 	nop
    8c78:	00000000 	nop
    8c7c:	00000000 	nop
    8c80:	00000000 	nop
    8c84:	00000000 	nop
    8c88:	00000000 	nop
    8c8c:	00000000 	nop
    8c90:	00000000 	nop
    8c94:	00000000 	nop
    8c98:	00000000 	nop
    8c9c:	00000000 	nop
    8ca0:	00000000 	nop
    8ca4:	00000000 	nop
    8ca8:	00000000 	nop
    8cac:	00000000 	nop
    8cb0:	00000000 	nop
    8cb4:	00000000 	nop
    8cb8:	00000000 	nop
    8cbc:	00000000 	nop
    8cc0:	00000000 	nop
    8cc4:	00000000 	nop
    8cc8:	00000000 	nop
    8ccc:	00000000 	nop
    8cd0:	00000000 	nop
    8cd4:	00000000 	nop
    8cd8:	00000000 	nop
    8cdc:	00000000 	nop
    8ce0:	00000000 	nop
    8ce4:	00000000 	nop
    8ce8:	00000000 	nop
    8cec:	00000000 	nop
    8cf0:	00000000 	nop
    8cf4:	00000000 	nop
    8cf8:	00000000 	nop
    8cfc:	00000000 	nop
    8d00:	00000000 	nop
    8d04:	00000000 	nop
    8d08:	00000000 	nop
    8d0c:	00000000 	nop
    8d10:	00000000 	nop
    8d14:	00000000 	nop
    8d18:	00000000 	nop
    8d1c:	00000000 	nop
    8d20:	00000000 	nop
    8d24:	00000000 	nop
    8d28:	00000000 	nop
    8d2c:	00000000 	nop
    8d30:	00000000 	nop
    8d34:	00000000 	nop
    8d38:	00000000 	nop
    8d3c:	00000000 	nop
    8d40:	00000000 	nop
    8d44:	00000000 	nop
    8d48:	00000000 	nop
    8d4c:	00000000 	nop
    8d50:	00000000 	nop
    8d54:	00000000 	nop
    8d58:	00000000 	nop
    8d5c:	00000000 	nop
    8d60:	00000000 	nop
    8d64:	00000000 	nop
    8d68:	00000000 	nop
    8d6c:	00000000 	nop
    8d70:	00000000 	nop
    8d74:	00000000 	nop
    8d78:	00000000 	nop
    8d7c:	00000000 	nop
    8d80:	00000000 	nop
    8d84:	00000000 	nop
    8d88:	00000000 	nop
    8d8c:	00000000 	nop
    8d90:	00000000 	nop
    8d94:	00000000 	nop
    8d98:	00000000 	nop
    8d9c:	00000000 	nop
    8da0:	00000000 	nop
    8da4:	00000000 	nop
    8da8:	00000000 	nop
    8dac:	00000000 	nop
    8db0:	00000000 	nop
    8db4:	00000000 	nop
    8db8:	00000000 	nop
    8dbc:	00000000 	nop
    8dc0:	00000000 	nop
    8dc4:	00000000 	nop
    8dc8:	00000000 	nop
    8dcc:	00000000 	nop
    8dd0:	00000000 	nop
    8dd4:	00000000 	nop
    8dd8:	00000000 	nop
    8ddc:	00000000 	nop
    8de0:	00000000 	nop
    8de4:	00000000 	nop
    8de8:	00000000 	nop
    8dec:	00000000 	nop
    8df0:	00000000 	nop
    8df4:	00000000 	nop
    8df8:	00000000 	nop
    8dfc:	00000000 	nop
    8e00:	00000000 	nop
    8e04:	00000000 	nop
    8e08:	00000000 	nop
    8e0c:	00000000 	nop
    8e10:	00000000 	nop
    8e14:	00000000 	nop
    8e18:	00000000 	nop
    8e1c:	00000000 	nop
    8e20:	00000000 	nop
    8e24:	00000000 	nop
    8e28:	00000000 	nop
    8e2c:	00000000 	nop
    8e30:	00000000 	nop
    8e34:	00000000 	nop
    8e38:	00000000 	nop
    8e3c:	00000000 	nop
    8e40:	00000000 	nop
    8e44:	00000000 	nop
    8e48:	00000000 	nop
    8e4c:	00000000 	nop
    8e50:	00000000 	nop
    8e54:	00000000 	nop
    8e58:	00000000 	nop
    8e5c:	00000000 	nop
    8e60:	00000000 	nop
    8e64:	00000000 	nop
    8e68:	00000000 	nop
    8e6c:	00000000 	nop
    8e70:	00000000 	nop
    8e74:	00000000 	nop
    8e78:	00000000 	nop
    8e7c:	00000000 	nop
    8e80:	00000000 	nop
    8e84:	00000000 	nop
    8e88:	00000000 	nop
    8e8c:	00000000 	nop
    8e90:	00000000 	nop
    8e94:	00000000 	nop
    8e98:	00000000 	nop
    8e9c:	00000000 	nop
    8ea0:	00000000 	nop
    8ea4:	00000000 	nop
    8ea8:	00000000 	nop
    8eac:	00000000 	nop
    8eb0:	00000000 	nop
    8eb4:	00000000 	nop
    8eb8:	00000000 	nop
    8ebc:	00000000 	nop
    8ec0:	00000000 	nop
    8ec4:	00000000 	nop
    8ec8:	00000000 	nop
    8ecc:	00000000 	nop
    8ed0:	00000000 	nop
    8ed4:	00000000 	nop
    8ed8:	00000000 	nop
    8edc:	00000000 	nop
    8ee0:	00000000 	nop
    8ee4:	00000000 	nop
    8ee8:	00000000 	nop
    8eec:	00000000 	nop
    8ef0:	00000000 	nop
    8ef4:	00000000 	nop
    8ef8:	00000000 	nop
    8efc:	00000000 	nop
    8f00:	00000000 	nop
    8f04:	00000000 	nop
    8f08:	00000000 	nop
    8f0c:	00000000 	nop
    8f10:	00000000 	nop
    8f14:	00000000 	nop
    8f18:	00000000 	nop
    8f1c:	00000000 	nop
    8f20:	00000000 	nop
    8f24:	00000000 	nop
    8f28:	00000000 	nop
    8f2c:	00000000 	nop
    8f30:	00000000 	nop
    8f34:	00000000 	nop
    8f38:	00000000 	nop
    8f3c:	00000000 	nop
    8f40:	00000000 	nop
    8f44:	00000000 	nop
    8f48:	00000000 	nop
    8f4c:	00000000 	nop
    8f50:	00000000 	nop
    8f54:	00000000 	nop
    8f58:	00000000 	nop
    8f5c:	00000000 	nop
    8f60:	00000000 	nop
    8f64:	00000000 	nop
    8f68:	00000000 	nop
    8f6c:	00000000 	nop
    8f70:	00000000 	nop
    8f74:	00000000 	nop
    8f78:	00000000 	nop
    8f7c:	00000000 	nop
    8f80:	00000000 	nop
    8f84:	00000000 	nop
    8f88:	00000000 	nop
    8f8c:	00000000 	nop
    8f90:	00000000 	nop
    8f94:	00000000 	nop
    8f98:	00000000 	nop
    8f9c:	00000000 	nop
    8fa0:	00000000 	nop
    8fa4:	00000000 	nop
    8fa8:	00000000 	nop
    8fac:	00000000 	nop
    8fb0:	00000000 	nop
    8fb4:	00000000 	nop
    8fb8:	00000000 	nop
    8fbc:	00000000 	nop
    8fc0:	00000000 	nop
    8fc4:	00000000 	nop
    8fc8:	00000000 	nop
    8fcc:	00000000 	nop
    8fd0:	00000000 	nop
    8fd4:	00000000 	nop
    8fd8:	00000000 	nop
    8fdc:	00000000 	nop
    8fe0:	00000000 	nop
    8fe4:	00000000 	nop
    8fe8:	00000000 	nop
    8fec:	00000000 	nop
    8ff0:	00000000 	nop
    8ff4:	00000000 	nop
    8ff8:	00000000 	nop
    8ffc:	00000000 	nop
    9000:	00000000 	nop
    9004:	00000000 	nop
    9008:	00000000 	nop
    900c:	00000000 	nop
    9010:	00000000 	nop
    9014:	00000000 	nop
    9018:	00000000 	nop
    901c:	00000000 	nop
    9020:	00000000 	nop
    9024:	00000000 	nop
    9028:	00000000 	nop
    902c:	00000000 	nop
    9030:	00000000 	nop
    9034:	00000000 	nop
    9038:	00000000 	nop
    903c:	00000000 	nop
    9040:	00000000 	nop
    9044:	00000000 	nop
    9048:	00000000 	nop
    904c:	00000000 	nop
    9050:	00000000 	nop
    9054:	00000000 	nop
    9058:	00000000 	nop
    905c:	00000000 	nop
    9060:	00000000 	nop
    9064:	00000000 	nop
    9068:	00000000 	nop
    906c:	00000000 	nop
    9070:	00000000 	nop
    9074:	00000000 	nop
    9078:	00000000 	nop
    907c:	00000000 	nop
    9080:	00000000 	nop
    9084:	00000000 	nop
    9088:	00000000 	nop
    908c:	00000000 	nop
    9090:	00000000 	nop
    9094:	00000000 	nop
    9098:	00000000 	nop
    909c:	00000000 	nop
    90a0:	00000000 	nop
    90a4:	00000000 	nop
    90a8:	00000000 	nop
    90ac:	00000000 	nop
    90b0:	00000000 	nop
    90b4:	00000000 	nop
    90b8:	00000000 	nop
    90bc:	00000000 	nop
    90c0:	00000000 	nop
    90c4:	00000000 	nop
    90c8:	00000000 	nop
    90cc:	00000000 	nop
    90d0:	00000000 	nop
    90d4:	00000000 	nop
    90d8:	00000000 	nop
    90dc:	00000000 	nop
    90e0:	00000000 	nop
    90e4:	00000000 	nop
    90e8:	00000000 	nop
    90ec:	00000000 	nop
    90f0:	00000000 	nop
    90f4:	00000000 	nop
    90f8:	00000000 	nop
    90fc:	00000000 	nop
    9100:	00000000 	nop
    9104:	00000000 	nop
    9108:	00000000 	nop
    910c:	00000000 	nop
    9110:	00000000 	nop
    9114:	00000000 	nop
    9118:	00000000 	nop
    911c:	00000000 	nop
    9120:	00000000 	nop
    9124:	00000000 	nop
    9128:	00000000 	nop
    912c:	00000000 	nop
    9130:	00000000 	nop
    9134:	00000000 	nop
    9138:	00000000 	nop
    913c:	00000000 	nop
    9140:	00000000 	nop
    9144:	00000000 	nop
    9148:	00000000 	nop
    914c:	00000000 	nop
    9150:	00000000 	nop
    9154:	00000000 	nop
    9158:	00000000 	nop
    915c:	00000000 	nop
    9160:	00000000 	nop
    9164:	00000000 	nop
    9168:	00000000 	nop
    916c:	00000000 	nop
    9170:	00000000 	nop
    9174:	00000000 	nop
    9178:	00000000 	nop
    917c:	00000000 	nop
    9180:	00000000 	nop
    9184:	00000000 	nop
    9188:	00000000 	nop
    918c:	00000000 	nop
    9190:	00000000 	nop
    9194:	00000000 	nop
    9198:	00000000 	nop
    919c:	00000000 	nop
    91a0:	00000000 	nop
    91a4:	00000000 	nop
    91a8:	00000000 	nop
    91ac:	00000000 	nop
    91b0:	00000000 	nop
    91b4:	00000000 	nop
    91b8:	00000000 	nop
    91bc:	00000000 	nop
    91c0:	00000000 	nop
    91c4:	00000000 	nop
    91c8:	00000000 	nop
    91cc:	00000000 	nop
    91d0:	00000000 	nop
    91d4:	00000000 	nop
    91d8:	00000000 	nop
    91dc:	00000000 	nop
    91e0:	00000000 	nop
    91e4:	00000000 	nop
    91e8:	00000000 	nop
    91ec:	00000000 	nop
    91f0:	00000000 	nop
    91f4:	00000000 	nop
    91f8:	00000000 	nop
    91fc:	00000000 	nop
    9200:	00000000 	nop
    9204:	00000000 	nop
    9208:	00000000 	nop
    920c:	00000000 	nop
    9210:	00000000 	nop
    9214:	00000000 	nop
    9218:	00000000 	nop
    921c:	00000000 	nop
    9220:	00000000 	nop
    9224:	00000000 	nop
    9228:	00000000 	nop
    922c:	00000000 	nop
    9230:	00000000 	nop
    9234:	00000000 	nop
    9238:	00000000 	nop
    923c:	00000000 	nop
    9240:	00000000 	nop
    9244:	00000000 	nop
    9248:	00000000 	nop
    924c:	00000000 	nop
    9250:	00000000 	nop
    9254:	00000000 	nop
    9258:	00000000 	nop
    925c:	00000000 	nop
    9260:	00000000 	nop
    9264:	00000000 	nop
    9268:	00000000 	nop
    926c:	00000000 	nop
    9270:	00000000 	nop
    9274:	00000000 	nop
    9278:	00000000 	nop
    927c:	00000000 	nop
    9280:	00000000 	nop
    9284:	00000000 	nop
    9288:	00000000 	nop
    928c:	00000000 	nop
    9290:	00000000 	nop
    9294:	00000000 	nop
    9298:	00000000 	nop
    929c:	00000000 	nop
    92a0:	00000000 	nop
    92a4:	00000000 	nop
    92a8:	00000000 	nop
    92ac:	00000000 	nop
    92b0:	00000000 	nop
    92b4:	00000000 	nop
    92b8:	00000000 	nop
    92bc:	00000000 	nop
    92c0:	00000000 	nop
    92c4:	00000000 	nop
    92c8:	00000000 	nop
    92cc:	00000000 	nop
    92d0:	00000000 	nop
    92d4:	00000000 	nop
    92d8:	00000000 	nop
    92dc:	00000000 	nop
    92e0:	00000000 	nop
    92e4:	00000000 	nop
    92e8:	00000000 	nop
    92ec:	00000000 	nop
    92f0:	00000000 	nop
    92f4:	00000000 	nop
    92f8:	00000000 	nop
    92fc:	00000000 	nop
    9300:	00000000 	nop
    9304:	00000000 	nop
    9308:	00000000 	nop
    930c:	00000000 	nop
    9310:	00000000 	nop
    9314:	00000000 	nop
    9318:	00000000 	nop
    931c:	00000000 	nop
    9320:	00000000 	nop
    9324:	00000000 	nop
    9328:	00000000 	nop
    932c:	00000000 	nop
    9330:	00000000 	nop
    9334:	00000000 	nop
    9338:	00000000 	nop
    933c:	00000000 	nop
    9340:	00000000 	nop
    9344:	00000000 	nop
    9348:	00000000 	nop
    934c:	00000000 	nop
    9350:	00000000 	nop
    9354:	00000000 	nop
    9358:	00000000 	nop
    935c:	00000000 	nop
    9360:	00000000 	nop
    9364:	00000000 	nop
    9368:	00000000 	nop
    936c:	00000000 	nop
    9370:	00000000 	nop
    9374:	00000000 	nop
    9378:	00000000 	nop
    937c:	00000000 	nop
    9380:	00000000 	nop
    9384:	00000000 	nop
    9388:	00000000 	nop
    938c:	00000000 	nop
    9390:	00000000 	nop
    9394:	00000000 	nop
    9398:	00000000 	nop
    939c:	00000000 	nop
    93a0:	00000000 	nop
    93a4:	00000000 	nop
    93a8:	00000000 	nop
    93ac:	00000000 	nop
    93b0:	00000000 	nop
    93b4:	00000000 	nop
    93b8:	00000000 	nop
    93bc:	00000000 	nop
    93c0:	00000000 	nop
    93c4:	00000000 	nop
    93c8:	00000000 	nop
    93cc:	00000000 	nop
    93d0:	00000000 	nop
    93d4:	00000000 	nop
    93d8:	00000000 	nop
    93dc:	00000000 	nop
    93e0:	00000000 	nop
    93e4:	00000000 	nop
    93e8:	00000000 	nop
    93ec:	00000000 	nop
    93f0:	00000000 	nop
    93f4:	00000000 	nop
    93f8:	00000000 	nop
    93fc:	00000000 	nop
    9400:	00000000 	nop
    9404:	00000000 	nop
    9408:	00000000 	nop
    940c:	00000000 	nop
    9410:	00000000 	nop
    9414:	00000000 	nop
    9418:	00000000 	nop
    941c:	00000000 	nop
    9420:	00000000 	nop
    9424:	00000000 	nop
    9428:	00000000 	nop
    942c:	00000000 	nop
    9430:	00000000 	nop
    9434:	00000000 	nop
    9438:	00000000 	nop
    943c:	00000000 	nop
    9440:	00000000 	nop
    9444:	00000000 	nop
    9448:	00000000 	nop
    944c:	00000000 	nop
    9450:	00000000 	nop
    9454:	00000000 	nop
    9458:	00000000 	nop
    945c:	00000000 	nop
    9460:	00000000 	nop
    9464:	00000000 	nop
    9468:	00000000 	nop
    946c:	00000000 	nop
    9470:	00000000 	nop
    9474:	00000000 	nop
    9478:	00000000 	nop
    947c:	00000000 	nop
    9480:	00000000 	nop
    9484:	00000000 	nop
    9488:	00000000 	nop
    948c:	00000000 	nop
    9490:	00000000 	nop
    9494:	00000000 	nop
    9498:	00000000 	nop
    949c:	00000000 	nop
    94a0:	00000000 	nop
    94a4:	00000000 	nop
    94a8:	00000000 	nop
    94ac:	00000000 	nop
    94b0:	00000000 	nop
    94b4:	00000000 	nop
    94b8:	00000000 	nop
    94bc:	00000000 	nop
    94c0:	00000000 	nop
    94c4:	00000000 	nop
    94c8:	00000000 	nop
    94cc:	00000000 	nop
    94d0:	00000000 	nop
    94d4:	00000000 	nop
    94d8:	00000000 	nop
    94dc:	00000000 	nop
    94e0:	00000000 	nop
    94e4:	00000000 	nop
    94e8:	00000000 	nop
    94ec:	00000000 	nop
    94f0:	00000000 	nop
    94f4:	00000000 	nop
    94f8:	00000000 	nop
    94fc:	00000000 	nop
    9500:	00000000 	nop
    9504:	00000000 	nop
    9508:	00000000 	nop
    950c:	00000000 	nop
    9510:	00000000 	nop
    9514:	00000000 	nop
    9518:	00000000 	nop
    951c:	00000000 	nop
    9520:	00000000 	nop
    9524:	00000000 	nop
    9528:	00000000 	nop
    952c:	00000000 	nop
    9530:	00000000 	nop
    9534:	00000000 	nop
    9538:	00000000 	nop
    953c:	00000000 	nop
    9540:	00000000 	nop
    9544:	00000000 	nop
    9548:	00000000 	nop
    954c:	00000000 	nop
    9550:	00000000 	nop
    9554:	00000000 	nop
    9558:	00000000 	nop
    955c:	00000000 	nop
    9560:	00000000 	nop
    9564:	00000000 	nop
    9568:	00000000 	nop
    956c:	00000000 	nop
    9570:	00000000 	nop
    9574:	00000000 	nop
    9578:	00000000 	nop
    957c:	00000000 	nop
    9580:	00000000 	nop
    9584:	00000000 	nop
    9588:	00000000 	nop
    958c:	00000000 	nop
    9590:	00000000 	nop
    9594:	00000000 	nop
    9598:	00000000 	nop
    959c:	00000000 	nop
    95a0:	00000000 	nop
    95a4:	00000000 	nop
    95a8:	00000000 	nop
    95ac:	00000000 	nop
    95b0:	00000000 	nop
    95b4:	00000000 	nop
    95b8:	00000000 	nop
    95bc:	00000000 	nop
    95c0:	00000000 	nop
    95c4:	00000000 	nop
    95c8:	00000000 	nop
    95cc:	00000000 	nop
    95d0:	00000000 	nop
    95d4:	00000000 	nop
    95d8:	00000000 	nop
    95dc:	00000000 	nop
    95e0:	00000000 	nop
    95e4:	00000000 	nop
    95e8:	00000000 	nop
    95ec:	00000000 	nop
    95f0:	00000000 	nop
    95f4:	00000000 	nop
    95f8:	00000000 	nop
    95fc:	00000000 	nop
    9600:	00000000 	nop
    9604:	00000000 	nop
    9608:	00000000 	nop
    960c:	00000000 	nop
    9610:	00000000 	nop
    9614:	00000000 	nop
    9618:	00000000 	nop
    961c:	00000000 	nop
    9620:	00000000 	nop
    9624:	00000000 	nop
    9628:	00000000 	nop
    962c:	00000000 	nop
    9630:	00000000 	nop
    9634:	00000000 	nop
    9638:	00000000 	nop
    963c:	00000000 	nop
    9640:	00000000 	nop
    9644:	00000000 	nop
    9648:	00000000 	nop
    964c:	00000000 	nop
    9650:	00000000 	nop
    9654:	00000000 	nop
    9658:	00000000 	nop
    965c:	00000000 	nop
    9660:	00000000 	nop
    9664:	00000000 	nop
    9668:	00000000 	nop
    966c:	00000000 	nop
    9670:	00000000 	nop
    9674:	00000000 	nop
    9678:	00000000 	nop
    967c:	00000000 	nop
    9680:	00000000 	nop
    9684:	00000000 	nop
    9688:	00000000 	nop
    968c:	00000000 	nop
    9690:	00000000 	nop
    9694:	00000000 	nop
    9698:	00000000 	nop
    969c:	00000000 	nop
    96a0:	00000000 	nop
    96a4:	00000000 	nop
    96a8:	00000000 	nop
    96ac:	00000000 	nop
    96b0:	00000000 	nop
    96b4:	00000000 	nop
    96b8:	00000000 	nop
    96bc:	00000000 	nop
    96c0:	00000000 	nop
    96c4:	00000000 	nop
    96c8:	00000000 	nop
    96cc:	00000000 	nop
    96d0:	00000000 	nop
    96d4:	00000000 	nop
    96d8:	00000000 	nop
    96dc:	00000000 	nop
    96e0:	00000000 	nop
    96e4:	00000000 	nop
    96e8:	00000000 	nop
    96ec:	00000000 	nop
    96f0:	00000000 	nop
    96f4:	00000000 	nop
    96f8:	00000000 	nop
    96fc:	00000000 	nop
    9700:	00000000 	nop
    9704:	00000000 	nop
    9708:	00000000 	nop
    970c:	00000000 	nop
    9710:	00000000 	nop
    9714:	00000000 	nop
    9718:	00000000 	nop
    971c:	00000000 	nop
    9720:	00000000 	nop
    9724:	00000000 	nop
    9728:	00000000 	nop
    972c:	00000000 	nop
    9730:	00000000 	nop
    9734:	00000000 	nop
    9738:	00000000 	nop
    973c:	00000000 	nop
    9740:	00000000 	nop
    9744:	00000000 	nop
    9748:	00000000 	nop
    974c:	00000000 	nop
    9750:	00000000 	nop
    9754:	00000000 	nop
    9758:	00000000 	nop
    975c:	00000000 	nop
    9760:	00000000 	nop
    9764:	00000000 	nop
    9768:	00000000 	nop
    976c:	00000000 	nop
    9770:	00000000 	nop
    9774:	00000000 	nop
    9778:	00000000 	nop
    977c:	00000000 	nop
    9780:	00000000 	nop
    9784:	00000000 	nop
    9788:	00000000 	nop
    978c:	00000000 	nop
    9790:	00000000 	nop
    9794:	00000000 	nop
    9798:	00000000 	nop
    979c:	00000000 	nop
    97a0:	00000000 	nop
    97a4:	00000000 	nop
    97a8:	00000000 	nop
    97ac:	00000000 	nop
    97b0:	00000000 	nop
    97b4:	00000000 	nop
    97b8:	00000000 	nop
    97bc:	00000000 	nop
    97c0:	00000000 	nop
    97c4:	00000000 	nop
    97c8:	00000000 	nop
    97cc:	00000000 	nop
    97d0:	00000000 	nop
    97d4:	00000000 	nop
    97d8:	00000000 	nop
    97dc:	00000000 	nop
    97e0:	00000000 	nop
    97e4:	00000000 	nop
    97e8:	00000000 	nop
    97ec:	00000000 	nop
    97f0:	00000000 	nop
    97f4:	00000000 	nop
    97f8:	00000000 	nop
    97fc:	00000000 	nop
    9800:	00000000 	nop
    9804:	00000000 	nop
    9808:	00000000 	nop
    980c:	00000000 	nop
    9810:	00000000 	nop
    9814:	00000000 	nop
    9818:	00000000 	nop
    981c:	00000000 	nop
    9820:	00000000 	nop
    9824:	00000000 	nop
    9828:	00000000 	nop
    982c:	00000000 	nop
    9830:	00000000 	nop
    9834:	00000000 	nop
    9838:	00000000 	nop
    983c:	00000000 	nop
    9840:	00000000 	nop
    9844:	00000000 	nop
    9848:	00000000 	nop
    984c:	00000000 	nop
    9850:	00000000 	nop
    9854:	00000000 	nop
    9858:	00000000 	nop
    985c:	00000000 	nop
    9860:	00000000 	nop
    9864:	00000000 	nop
    9868:	00000000 	nop
    986c:	00000000 	nop
    9870:	00000000 	nop
    9874:	00000000 	nop
    9878:	00000000 	nop
    987c:	00000000 	nop
    9880:	00000000 	nop
    9884:	00000000 	nop
    9888:	00000000 	nop
    988c:	00000000 	nop
    9890:	00000000 	nop
    9894:	00000000 	nop
    9898:	00000000 	nop
    989c:	00000000 	nop
    98a0:	00000000 	nop
    98a4:	00000000 	nop
    98a8:	00000000 	nop
    98ac:	00000000 	nop
    98b0:	00000000 	nop
    98b4:	00000000 	nop
    98b8:	00000000 	nop
    98bc:	00000000 	nop
    98c0:	00000000 	nop
    98c4:	00000000 	nop
    98c8:	00000000 	nop
    98cc:	00000000 	nop
    98d0:	00000000 	nop
    98d4:	00000000 	nop
    98d8:	00000000 	nop
    98dc:	00000000 	nop
    98e0:	00000000 	nop
    98e4:	00000000 	nop
    98e8:	00000000 	nop
    98ec:	00000000 	nop
    98f0:	00000000 	nop
    98f4:	00000000 	nop
    98f8:	00000000 	nop
    98fc:	00000000 	nop
    9900:	00000000 	nop
    9904:	00000000 	nop
    9908:	00000000 	nop
    990c:	00000000 	nop
    9910:	00000000 	nop
    9914:	00000000 	nop
    9918:	00000000 	nop
    991c:	00000000 	nop
    9920:	00000000 	nop
    9924:	00000000 	nop
    9928:	00000000 	nop
    992c:	00000000 	nop
    9930:	00000000 	nop
    9934:	00000000 	nop
    9938:	00000000 	nop
    993c:	00000000 	nop
    9940:	00000000 	nop
    9944:	00000000 	nop
    9948:	00000000 	nop
    994c:	00000000 	nop
    9950:	00000000 	nop
    9954:	00000000 	nop
    9958:	00000000 	nop
    995c:	00000000 	nop
    9960:	00000000 	nop
    9964:	00000000 	nop
    9968:	00000000 	nop
    996c:	00000000 	nop
    9970:	00000000 	nop
    9974:	00000000 	nop
    9978:	00000000 	nop
    997c:	00000000 	nop
    9980:	00000000 	nop
    9984:	00000000 	nop
    9988:	00000000 	nop
    998c:	00000000 	nop
    9990:	00000000 	nop
    9994:	00000000 	nop
    9998:	00000000 	nop
    999c:	00000000 	nop
    99a0:	00000000 	nop
    99a4:	00000000 	nop
    99a8:	00000000 	nop
    99ac:	00000000 	nop
    99b0:	00000000 	nop
    99b4:	00000000 	nop
    99b8:	00000000 	nop
    99bc:	00000000 	nop
    99c0:	00000000 	nop
    99c4:	00000000 	nop
    99c8:	00000000 	nop
    99cc:	00000000 	nop
    99d0:	00000000 	nop
    99d4:	00000000 	nop
    99d8:	00000000 	nop
    99dc:	00000000 	nop
    99e0:	00000000 	nop
    99e4:	00000000 	nop
    99e8:	00000000 	nop
    99ec:	00000000 	nop
    99f0:	00000000 	nop
    99f4:	00000000 	nop
    99f8:	00000000 	nop
    99fc:	00000000 	nop
    9a00:	00000000 	nop
    9a04:	00000000 	nop
    9a08:	00000000 	nop
    9a0c:	00000000 	nop
    9a10:	00000000 	nop
    9a14:	00000000 	nop
    9a18:	00000000 	nop
    9a1c:	00000000 	nop
    9a20:	00000000 	nop
    9a24:	00000000 	nop
    9a28:	00000000 	nop
    9a2c:	00000000 	nop
    9a30:	00000000 	nop
    9a34:	00000000 	nop
    9a38:	00000000 	nop
    9a3c:	00000000 	nop
    9a40:	00000000 	nop
    9a44:	00000000 	nop
    9a48:	00000000 	nop
    9a4c:	00000000 	nop
    9a50:	00000000 	nop
    9a54:	00000000 	nop
    9a58:	00000000 	nop
    9a5c:	00000000 	nop
    9a60:	00000000 	nop
    9a64:	00000000 	nop
    9a68:	00000000 	nop
    9a6c:	00000000 	nop
    9a70:	00000000 	nop
    9a74:	00000000 	nop
    9a78:	00000000 	nop
    9a7c:	00000000 	nop
    9a80:	00000000 	nop
    9a84:	00000000 	nop
    9a88:	00000000 	nop
    9a8c:	00000000 	nop
    9a90:	00000000 	nop
    9a94:	00000000 	nop
    9a98:	00000000 	nop
    9a9c:	00000000 	nop
    9aa0:	00000000 	nop
    9aa4:	00000000 	nop
    9aa8:	00000000 	nop
    9aac:	00000000 	nop
    9ab0:	00000000 	nop
    9ab4:	00000000 	nop
    9ab8:	00000000 	nop
    9abc:	00000000 	nop
    9ac0:	00000000 	nop
    9ac4:	00000000 	nop
    9ac8:	00000000 	nop
    9acc:	00000000 	nop
    9ad0:	00000000 	nop
    9ad4:	00000000 	nop
    9ad8:	00000000 	nop
    9adc:	00000000 	nop
    9ae0:	00000000 	nop
    9ae4:	00000000 	nop
    9ae8:	00000000 	nop
    9aec:	00000000 	nop
    9af0:	00000000 	nop
    9af4:	00000000 	nop
    9af8:	00000000 	nop
    9afc:	00000000 	nop
    9b00:	00000000 	nop
    9b04:	00000000 	nop
    9b08:	00000000 	nop
    9b0c:	00000000 	nop
    9b10:	00000000 	nop
    9b14:	00000000 	nop
    9b18:	00000000 	nop
    9b1c:	00000000 	nop
    9b20:	00000000 	nop
    9b24:	00000000 	nop
    9b28:	00000000 	nop
    9b2c:	00000000 	nop
    9b30:	00000000 	nop
    9b34:	00000000 	nop
    9b38:	00000000 	nop
    9b3c:	00000000 	nop
    9b40:	00000000 	nop
    9b44:	00000000 	nop
    9b48:	00000000 	nop
    9b4c:	00000000 	nop
    9b50:	00000000 	nop
    9b54:	00000000 	nop
    9b58:	00000000 	nop
    9b5c:	00000000 	nop
    9b60:	00000000 	nop
    9b64:	00000000 	nop
    9b68:	00000000 	nop
    9b6c:	00000000 	nop
    9b70:	00000000 	nop
    9b74:	00000000 	nop
    9b78:	00000000 	nop
    9b7c:	00000000 	nop
    9b80:	00000000 	nop
    9b84:	00000000 	nop
    9b88:	00000000 	nop
    9b8c:	00000000 	nop
    9b90:	00000000 	nop
    9b94:	00000000 	nop
    9b98:	00000000 	nop
    9b9c:	00000000 	nop
    9ba0:	00000000 	nop
    9ba4:	00000000 	nop
    9ba8:	00000000 	nop
    9bac:	00000000 	nop
    9bb0:	00000000 	nop
    9bb4:	00000000 	nop
    9bb8:	00000000 	nop
    9bbc:	00000000 	nop
    9bc0:	00000000 	nop
    9bc4:	00000000 	nop
    9bc8:	00000000 	nop
    9bcc:	00000000 	nop
    9bd0:	00000000 	nop
    9bd4:	00000000 	nop
    9bd8:	00000000 	nop
    9bdc:	00000000 	nop
    9be0:	00000000 	nop
    9be4:	00000000 	nop
    9be8:	00000000 	nop
    9bec:	00000000 	nop
    9bf0:	00000000 	nop
    9bf4:	00000000 	nop
    9bf8:	00000000 	nop
    9bfc:	00000000 	nop
    9c00:	00000000 	nop
    9c04:	00000000 	nop
    9c08:	00000000 	nop
    9c0c:	00000000 	nop
    9c10:	00000000 	nop
    9c14:	00000000 	nop
    9c18:	00000000 	nop
    9c1c:	00000000 	nop
    9c20:	00000000 	nop
    9c24:	00000000 	nop
    9c28:	00000000 	nop
    9c2c:	00000000 	nop
    9c30:	00000000 	nop
    9c34:	00000000 	nop
    9c38:	00000000 	nop
    9c3c:	00000000 	nop
    9c40:	00000000 	nop
    9c44:	00000000 	nop
    9c48:	00000000 	nop
    9c4c:	00000000 	nop
    9c50:	00000000 	nop
    9c54:	00000000 	nop
    9c58:	00000000 	nop
    9c5c:	00000000 	nop
    9c60:	00000000 	nop
    9c64:	00000000 	nop
    9c68:	00000000 	nop
    9c6c:	00000000 	nop
    9c70:	00000000 	nop
    9c74:	00000000 	nop
    9c78:	00000000 	nop
    9c7c:	00000000 	nop
    9c80:	00000000 	nop
    9c84:	00000000 	nop
    9c88:	00000000 	nop
    9c8c:	00000000 	nop
    9c90:	00000000 	nop
    9c94:	00000000 	nop
    9c98:	00000000 	nop
    9c9c:	00000000 	nop
    9ca0:	00000000 	nop
    9ca4:	00000000 	nop
    9ca8:	00000000 	nop
    9cac:	00000000 	nop
    9cb0:	00000000 	nop
    9cb4:	00000000 	nop
    9cb8:	00000000 	nop
    9cbc:	00000000 	nop
    9cc0:	00000000 	nop
    9cc4:	00000000 	nop
    9cc8:	00000000 	nop
    9ccc:	00000000 	nop
    9cd0:	00000000 	nop
    9cd4:	00000000 	nop
    9cd8:	00000000 	nop
    9cdc:	00000000 	nop
    9ce0:	00000000 	nop
    9ce4:	00000000 	nop
    9ce8:	00000000 	nop
    9cec:	00000000 	nop
    9cf0:	00000000 	nop
    9cf4:	00000000 	nop
    9cf8:	00000000 	nop
    9cfc:	00000000 	nop
    9d00:	00000000 	nop
    9d04:	00000000 	nop
    9d08:	00000000 	nop
    9d0c:	00000000 	nop
    9d10:	00000000 	nop
    9d14:	00000000 	nop
    9d18:	00000000 	nop
    9d1c:	00000000 	nop
    9d20:	00000000 	nop
    9d24:	00000000 	nop
    9d28:	00000000 	nop
    9d2c:	00000000 	nop
    9d30:	00000000 	nop
    9d34:	00000000 	nop
    9d38:	00000000 	nop
    9d3c:	00000000 	nop
    9d40:	00000000 	nop
    9d44:	00000000 	nop
    9d48:	00000000 	nop
    9d4c:	00000000 	nop
    9d50:	00000000 	nop
    9d54:	00000000 	nop
    9d58:	00000000 	nop
    9d5c:	00000000 	nop
    9d60:	00000000 	nop
    9d64:	00000000 	nop
    9d68:	00000000 	nop
    9d6c:	00000000 	nop
    9d70:	00000000 	nop
    9d74:	00000000 	nop
    9d78:	00000000 	nop
    9d7c:	00000000 	nop
    9d80:	00000000 	nop
    9d84:	00000000 	nop
    9d88:	00000000 	nop
    9d8c:	00000000 	nop
    9d90:	00000000 	nop
    9d94:	00000000 	nop
    9d98:	00000000 	nop
    9d9c:	00000000 	nop
    9da0:	00000000 	nop
    9da4:	00000000 	nop
    9da8:	00000000 	nop
    9dac:	00000000 	nop
    9db0:	00000000 	nop
    9db4:	00000000 	nop
    9db8:	00000000 	nop
    9dbc:	00000000 	nop
    9dc0:	00000000 	nop
    9dc4:	00000000 	nop
    9dc8:	00000000 	nop
    9dcc:	00000000 	nop
    9dd0:	00000000 	nop
    9dd4:	00000000 	nop
    9dd8:	00000000 	nop
    9ddc:	00000000 	nop
    9de0:	00000000 	nop
    9de4:	00000000 	nop
    9de8:	00000000 	nop
    9dec:	00000000 	nop
    9df0:	00000000 	nop
    9df4:	00000000 	nop
    9df8:	00000000 	nop
    9dfc:	00000000 	nop
    9e00:	00000000 	nop
    9e04:	00000000 	nop
    9e08:	00000000 	nop
    9e0c:	00000000 	nop
    9e10:	00000000 	nop
    9e14:	00000000 	nop
    9e18:	00000000 	nop
    9e1c:	00000000 	nop
    9e20:	00000000 	nop
    9e24:	00000000 	nop
    9e28:	00000000 	nop
    9e2c:	00000000 	nop
    9e30:	00000000 	nop
    9e34:	00000000 	nop
    9e38:	00000000 	nop
    9e3c:	00000000 	nop
    9e40:	00000000 	nop
    9e44:	00000000 	nop
    9e48:	00000000 	nop
    9e4c:	00000000 	nop
    9e50:	00000000 	nop
    9e54:	00000000 	nop
    9e58:	00000000 	nop
    9e5c:	00000000 	nop
    9e60:	00000000 	nop
    9e64:	00000000 	nop
    9e68:	00000000 	nop
    9e6c:	00000000 	nop
    9e70:	00000000 	nop
    9e74:	00000000 	nop
    9e78:	00000000 	nop
    9e7c:	00000000 	nop
    9e80:	00000000 	nop
    9e84:	00000000 	nop
    9e88:	00000000 	nop
    9e8c:	00000000 	nop
    9e90:	00000000 	nop
    9e94:	00000000 	nop
    9e98:	00000000 	nop
    9e9c:	00000000 	nop
    9ea0:	00000000 	nop
    9ea4:	00000000 	nop
    9ea8:	00000000 	nop
    9eac:	00000000 	nop
    9eb0:	00000000 	nop
    9eb4:	00000000 	nop
    9eb8:	00000000 	nop
    9ebc:	00000000 	nop
    9ec0:	00000000 	nop
    9ec4:	00000000 	nop
    9ec8:	00000000 	nop
    9ecc:	00000000 	nop
    9ed0:	00000000 	nop
    9ed4:	00000000 	nop
    9ed8:	00000000 	nop
    9edc:	00000000 	nop
    9ee0:	00000000 	nop
    9ee4:	00000000 	nop
    9ee8:	00000000 	nop
    9eec:	00000000 	nop
    9ef0:	00000000 	nop
    9ef4:	00000000 	nop
    9ef8:	00000000 	nop
    9efc:	00000000 	nop
    9f00:	00000000 	nop
    9f04:	00000000 	nop
    9f08:	00000000 	nop
    9f0c:	00000000 	nop
    9f10:	00000000 	nop
    9f14:	00000000 	nop
    9f18:	00000000 	nop
    9f1c:	00000000 	nop
    9f20:	00000000 	nop
    9f24:	00000000 	nop
    9f28:	00000000 	nop
    9f2c:	00000000 	nop
    9f30:	00000000 	nop
    9f34:	00000000 	nop
    9f38:	00000000 	nop
    9f3c:	00000000 	nop
    9f40:	00000000 	nop
    9f44:	00000000 	nop
    9f48:	00000000 	nop
    9f4c:	00000000 	nop
    9f50:	00000000 	nop
    9f54:	00000000 	nop
    9f58:	00000000 	nop
    9f5c:	00000000 	nop
    9f60:	00000000 	nop
    9f64:	00000000 	nop
    9f68:	00000000 	nop
    9f6c:	00000000 	nop
    9f70:	00000000 	nop
    9f74:	00000000 	nop
    9f78:	00000000 	nop
    9f7c:	00000000 	nop
    9f80:	00000000 	nop
    9f84:	00000000 	nop
    9f88:	00000000 	nop
    9f8c:	00000000 	nop
    9f90:	00000000 	nop
    9f94:	00000000 	nop
    9f98:	00000000 	nop
    9f9c:	00000000 	nop
    9fa0:	00000000 	nop
    9fa4:	00000000 	nop
    9fa8:	00000000 	nop
    9fac:	00000000 	nop
    9fb0:	00000000 	nop
    9fb4:	00000000 	nop
    9fb8:	00000000 	nop
    9fbc:	00000000 	nop
    9fc0:	00000000 	nop
    9fc4:	00000000 	nop
    9fc8:	00000000 	nop
    9fcc:	00000000 	nop
    9fd0:	00000000 	nop
    9fd4:	00000000 	nop
    9fd8:	00000000 	nop
    9fdc:	00000000 	nop
    9fe0:	00000000 	nop
    9fe4:	00000000 	nop
    9fe8:	00000000 	nop
    9fec:	00000000 	nop
    9ff0:	00000000 	nop
    9ff4:	00000000 	nop
    9ff8:	00000000 	nop
    9ffc:	00000000 	nop
    a000:	00000000 	nop
    a004:	00000000 	nop
    a008:	00000000 	nop
    a00c:	00000000 	nop
    a010:	00000000 	nop
    a014:	00000000 	nop
    a018:	00000000 	nop
    a01c:	00000000 	nop
    a020:	00000000 	nop
    a024:	00000000 	nop
    a028:	00000000 	nop
    a02c:	00000000 	nop
    a030:	00000000 	nop
    a034:	00000000 	nop
    a038:	00000000 	nop
    a03c:	00000000 	nop
    a040:	00000000 	nop
    a044:	00000000 	nop
    a048:	00000000 	nop
    a04c:	00000000 	nop
    a050:	00000000 	nop
    a054:	00000000 	nop
    a058:	00000000 	nop
    a05c:	00000000 	nop
    a060:	00000000 	nop
    a064:	00000000 	nop
    a068:	00000000 	nop
    a06c:	00000000 	nop
    a070:	00000000 	nop
    a074:	00000000 	nop
    a078:	00000000 	nop
    a07c:	00000000 	nop
    a080:	00000000 	nop
    a084:	00000000 	nop
    a088:	00000000 	nop
    a08c:	00000000 	nop
    a090:	00000000 	nop
    a094:	00000000 	nop
    a098:	00000000 	nop
    a09c:	00000000 	nop
    a0a0:	00000000 	nop
    a0a4:	00000000 	nop
    a0a8:	00000000 	nop
    a0ac:	00000000 	nop
    a0b0:	00000000 	nop
    a0b4:	00000000 	nop
    a0b8:	00000000 	nop
    a0bc:	00000000 	nop
    a0c0:	00000000 	nop
    a0c4:	00000000 	nop
    a0c8:	00000000 	nop
    a0cc:	00000000 	nop
    a0d0:	00000000 	nop
    a0d4:	00000000 	nop
    a0d8:	00000000 	nop
    a0dc:	00000000 	nop
    a0e0:	00000000 	nop
    a0e4:	00000000 	nop
    a0e8:	00000000 	nop
    a0ec:	00000000 	nop
    a0f0:	00000000 	nop
    a0f4:	00000000 	nop
    a0f8:	00000000 	nop
    a0fc:	00000000 	nop
    a100:	00000000 	nop
    a104:	00000000 	nop
    a108:	00000000 	nop
    a10c:	00000000 	nop
    a110:	00000000 	nop
    a114:	00000000 	nop
    a118:	00000000 	nop
    a11c:	00000000 	nop
    a120:	00000000 	nop
    a124:	00000000 	nop
    a128:	00000000 	nop
    a12c:	00000000 	nop
    a130:	00000000 	nop
    a134:	00000000 	nop
    a138:	00000000 	nop
    a13c:	00000000 	nop
    a140:	00000000 	nop
    a144:	00000000 	nop
    a148:	00000000 	nop
    a14c:	00000000 	nop
    a150:	00000000 	nop
    a154:	00000000 	nop
    a158:	00000000 	nop
    a15c:	00000000 	nop
    a160:	00000000 	nop
    a164:	00000000 	nop
    a168:	00000000 	nop
    a16c:	00000000 	nop
    a170:	00000000 	nop
    a174:	00000000 	nop
    a178:	00000000 	nop
    a17c:	00000000 	nop
    a180:	00000000 	nop
    a184:	00000000 	nop
    a188:	00000000 	nop
    a18c:	00000000 	nop
    a190:	00000000 	nop
    a194:	00000000 	nop
    a198:	00000000 	nop
    a19c:	00000000 	nop
    a1a0:	00000000 	nop
    a1a4:	00000000 	nop
    a1a8:	00000000 	nop
    a1ac:	00000000 	nop
    a1b0:	00000000 	nop
    a1b4:	00000000 	nop
    a1b8:	00000000 	nop
    a1bc:	00000000 	nop
    a1c0:	00000000 	nop
    a1c4:	00000000 	nop
    a1c8:	00000000 	nop
    a1cc:	00000000 	nop
    a1d0:	00000000 	nop
    a1d4:	00000000 	nop
    a1d8:	00000000 	nop
    a1dc:	00000000 	nop
    a1e0:	00000000 	nop
    a1e4:	00000000 	nop
    a1e8:	00000000 	nop
    a1ec:	00000000 	nop
    a1f0:	00000000 	nop
    a1f4:	00000000 	nop
    a1f8:	00000000 	nop
    a1fc:	00000000 	nop
    a200:	00000000 	nop
    a204:	00000000 	nop
    a208:	00000000 	nop
    a20c:	00000000 	nop
    a210:	00000000 	nop
    a214:	00000000 	nop
    a218:	00000000 	nop
    a21c:	00000000 	nop
    a220:	00000000 	nop
    a224:	00000000 	nop
    a228:	00000000 	nop
    a22c:	00000000 	nop
    a230:	00000000 	nop
    a234:	00000000 	nop
    a238:	00000000 	nop
    a23c:	00000000 	nop
    a240:	00000000 	nop
    a244:	00000000 	nop
    a248:	00000000 	nop
    a24c:	00000000 	nop
    a250:	00000000 	nop
    a254:	00000000 	nop
    a258:	00000000 	nop
    a25c:	00000000 	nop
    a260:	00000000 	nop
    a264:	00000000 	nop
    a268:	00000000 	nop
    a26c:	00000000 	nop
    a270:	00000000 	nop
    a274:	00000000 	nop
    a278:	00000000 	nop
    a27c:	00000000 	nop
    a280:	00000000 	nop
    a284:	00000000 	nop
    a288:	00000000 	nop
    a28c:	00000000 	nop
    a290:	00000000 	nop
    a294:	00000000 	nop
    a298:	00000000 	nop
    a29c:	00000000 	nop
    a2a0:	00000000 	nop
    a2a4:	00000000 	nop
    a2a8:	00000000 	nop
    a2ac:	00000000 	nop
    a2b0:	00000000 	nop
    a2b4:	00000000 	nop
    a2b8:	00000000 	nop
    a2bc:	00000000 	nop
    a2c0:	00000000 	nop
    a2c4:	00000000 	nop
    a2c8:	00000000 	nop
    a2cc:	00000000 	nop
    a2d0:	00000000 	nop
    a2d4:	00000000 	nop
    a2d8:	00000000 	nop
    a2dc:	00000000 	nop
    a2e0:	00000000 	nop
    a2e4:	00000000 	nop
    a2e8:	00000000 	nop
    a2ec:	00000000 	nop
    a2f0:	00000000 	nop
    a2f4:	00000000 	nop
    a2f8:	00000000 	nop
    a2fc:	00000000 	nop
    a300:	00000000 	nop
    a304:	00000000 	nop
    a308:	00000000 	nop
    a30c:	00000000 	nop
    a310:	00000000 	nop
    a314:	00000000 	nop
    a318:	00000000 	nop
    a31c:	00000000 	nop
    a320:	00000000 	nop
    a324:	00000000 	nop
    a328:	00000000 	nop
    a32c:	00000000 	nop
    a330:	00000000 	nop
    a334:	00000000 	nop
    a338:	00000000 	nop
    a33c:	00000000 	nop
    a340:	00000000 	nop
    a344:	00000000 	nop
    a348:	00000000 	nop
    a34c:	00000000 	nop
    a350:	00000000 	nop
    a354:	00000000 	nop
    a358:	00000000 	nop
    a35c:	00000000 	nop
    a360:	00000000 	nop
    a364:	00000000 	nop
    a368:	00000000 	nop
    a36c:	00000000 	nop
    a370:	00000000 	nop
    a374:	00000000 	nop
    a378:	00000000 	nop
    a37c:	00000000 	nop
    a380:	00000000 	nop
    a384:	00000000 	nop
    a388:	00000000 	nop
    a38c:	00000000 	nop
    a390:	00000000 	nop
    a394:	00000000 	nop
    a398:	00000000 	nop
    a39c:	00000000 	nop
    a3a0:	00000000 	nop
    a3a4:	00000000 	nop
    a3a8:	00000000 	nop
    a3ac:	00000000 	nop
    a3b0:	00000000 	nop
    a3b4:	00000000 	nop
    a3b8:	00000000 	nop
    a3bc:	00000000 	nop
    a3c0:	00000000 	nop
    a3c4:	00000000 	nop
    a3c8:	00000000 	nop
    a3cc:	00000000 	nop
    a3d0:	00000000 	nop
    a3d4:	00000000 	nop
    a3d8:	00000000 	nop
    a3dc:	00000000 	nop
    a3e0:	00000000 	nop
    a3e4:	00000000 	nop
    a3e8:	00000000 	nop
    a3ec:	00000000 	nop
    a3f0:	00000000 	nop
    a3f4:	00000000 	nop
    a3f8:	00000000 	nop
    a3fc:	00000000 	nop
    a400:	00000000 	nop
    a404:	00000000 	nop
    a408:	00000000 	nop
    a40c:	00000000 	nop
    a410:	00000000 	nop
    a414:	00000000 	nop
    a418:	00000000 	nop
    a41c:	00000000 	nop
    a420:	00000000 	nop
    a424:	00000000 	nop
    a428:	00000000 	nop
    a42c:	00000000 	nop
    a430:	00000000 	nop
    a434:	00000000 	nop
    a438:	00000000 	nop
    a43c:	00000000 	nop
    a440:	00000000 	nop
    a444:	00000000 	nop
    a448:	00000000 	nop
    a44c:	00000000 	nop
    a450:	00000000 	nop
    a454:	00000000 	nop
    a458:	00000000 	nop
    a45c:	00000000 	nop
    a460:	00000000 	nop
    a464:	00000000 	nop
    a468:	00000000 	nop
    a46c:	00000000 	nop
    a470:	00000000 	nop
    a474:	00000000 	nop
    a478:	00000000 	nop
    a47c:	00000000 	nop
    a480:	00000000 	nop
    a484:	00000000 	nop
    a488:	00000000 	nop
    a48c:	00000000 	nop
    a490:	00000000 	nop
    a494:	00000000 	nop
    a498:	00000000 	nop
    a49c:	00000000 	nop
    a4a0:	00000000 	nop
    a4a4:	00000000 	nop
    a4a8:	00000000 	nop
    a4ac:	00000000 	nop
    a4b0:	00000000 	nop
    a4b4:	00000000 	nop
    a4b8:	00000000 	nop
    a4bc:	00000000 	nop
    a4c0:	00000000 	nop
    a4c4:	00000000 	nop
    a4c8:	00000000 	nop
    a4cc:	00000000 	nop
    a4d0:	00000000 	nop
    a4d4:	00000000 	nop
    a4d8:	00000000 	nop
    a4dc:	00000000 	nop
    a4e0:	00000000 	nop
    a4e4:	00000000 	nop
    a4e8:	00000000 	nop
    a4ec:	00000000 	nop
    a4f0:	00000000 	nop
    a4f4:	00000000 	nop
    a4f8:	00000000 	nop
    a4fc:	00000000 	nop
    a500:	00000000 	nop
    a504:	00000000 	nop
    a508:	00000000 	nop
    a50c:	00000000 	nop
    a510:	00000000 	nop
    a514:	00000000 	nop
    a518:	00000000 	nop
    a51c:	00000000 	nop
    a520:	00000000 	nop
    a524:	00000000 	nop
    a528:	00000000 	nop
    a52c:	00000000 	nop
    a530:	00000000 	nop
    a534:	00000000 	nop
    a538:	00000000 	nop
    a53c:	00000000 	nop
    a540:	00000000 	nop
    a544:	00000000 	nop
    a548:	00000000 	nop
    a54c:	00000000 	nop
    a550:	00000000 	nop
    a554:	00000000 	nop
    a558:	00000000 	nop
    a55c:	00000000 	nop
    a560:	00000000 	nop
    a564:	00000000 	nop
    a568:	00000000 	nop
    a56c:	00000000 	nop
    a570:	00000000 	nop
    a574:	00000000 	nop
    a578:	00000000 	nop
    a57c:	00000000 	nop
    a580:	00000000 	nop
    a584:	00000000 	nop
    a588:	00000000 	nop
    a58c:	00000000 	nop
    a590:	00000000 	nop
    a594:	00000000 	nop
    a598:	00000000 	nop
    a59c:	00000000 	nop
    a5a0:	00000000 	nop
    a5a4:	00000000 	nop
    a5a8:	00000000 	nop
    a5ac:	00000000 	nop
    a5b0:	00000000 	nop
    a5b4:	00000000 	nop
    a5b8:	00000000 	nop
    a5bc:	00000000 	nop
    a5c0:	00000000 	nop
    a5c4:	00000000 	nop
    a5c8:	00000000 	nop
    a5cc:	00000000 	nop
    a5d0:	00000000 	nop
    a5d4:	00000000 	nop
    a5d8:	00000000 	nop
    a5dc:	00000000 	nop
    a5e0:	00000000 	nop
    a5e4:	00000000 	nop
    a5e8:	00000000 	nop
    a5ec:	00000000 	nop
    a5f0:	00000000 	nop
    a5f4:	00000000 	nop
    a5f8:	00000000 	nop
    a5fc:	00000000 	nop
    a600:	00000000 	nop
    a604:	00000000 	nop
    a608:	00000000 	nop
    a60c:	00000000 	nop
    a610:	00000000 	nop
    a614:	00000000 	nop
    a618:	00000000 	nop
    a61c:	00000000 	nop
    a620:	00000000 	nop
    a624:	00000000 	nop
    a628:	00000000 	nop
    a62c:	00000000 	nop
    a630:	00000000 	nop
    a634:	00000000 	nop
    a638:	00000000 	nop
    a63c:	00000000 	nop
    a640:	00000000 	nop
    a644:	00000000 	nop
    a648:	00000000 	nop
    a64c:	00000000 	nop
    a650:	00000000 	nop
    a654:	00000000 	nop
    a658:	00000000 	nop
    a65c:	00000000 	nop
    a660:	00000000 	nop
    a664:	00000000 	nop
    a668:	00000000 	nop
    a66c:	00000000 	nop
    a670:	00000000 	nop
    a674:	00000000 	nop
    a678:	00000000 	nop
    a67c:	00000000 	nop
    a680:	00000000 	nop
    a684:	00000000 	nop
    a688:	00000000 	nop
    a68c:	00000000 	nop
    a690:	00000000 	nop
    a694:	00000000 	nop
    a698:	00000000 	nop
    a69c:	00000000 	nop
    a6a0:	00000000 	nop
    a6a4:	00000000 	nop
    a6a8:	00000000 	nop
    a6ac:	00000000 	nop
    a6b0:	00000000 	nop
    a6b4:	00000000 	nop
    a6b8:	00000000 	nop
    a6bc:	00000000 	nop
    a6c0:	00000000 	nop
    a6c4:	00000000 	nop
    a6c8:	00000000 	nop
    a6cc:	00000000 	nop
    a6d0:	00000000 	nop
    a6d4:	00000000 	nop
    a6d8:	00000000 	nop
    a6dc:	00000000 	nop
    a6e0:	00000000 	nop
    a6e4:	00000000 	nop
    a6e8:	00000000 	nop
    a6ec:	00000000 	nop
    a6f0:	00000000 	nop
    a6f4:	00000000 	nop
    a6f8:	00000000 	nop
    a6fc:	00000000 	nop
    a700:	00000000 	nop
    a704:	00000000 	nop
    a708:	00000000 	nop
    a70c:	00000000 	nop
    a710:	00000000 	nop
    a714:	00000000 	nop
    a718:	00000000 	nop
    a71c:	00000000 	nop
    a720:	00000000 	nop
    a724:	00000000 	nop
    a728:	00000000 	nop
    a72c:	00000000 	nop
    a730:	00000000 	nop
    a734:	00000000 	nop
    a738:	00000000 	nop
    a73c:	00000000 	nop
    a740:	00000000 	nop
    a744:	00000000 	nop
    a748:	00000000 	nop
    a74c:	00000000 	nop
    a750:	00000000 	nop
    a754:	00000000 	nop
    a758:	00000000 	nop
    a75c:	00000000 	nop
    a760:	00000000 	nop
    a764:	00000000 	nop
    a768:	00000000 	nop
    a76c:	00000000 	nop
    a770:	00000000 	nop
    a774:	00000000 	nop
    a778:	00000000 	nop
    a77c:	00000000 	nop
    a780:	00000000 	nop
    a784:	00000000 	nop
    a788:	00000000 	nop
    a78c:	00000000 	nop
    a790:	00000000 	nop
    a794:	00000000 	nop
    a798:	00000000 	nop
    a79c:	00000000 	nop
    a7a0:	00000000 	nop
    a7a4:	00000000 	nop
    a7a8:	00000000 	nop
    a7ac:	00000000 	nop
    a7b0:	00000000 	nop
    a7b4:	00000000 	nop
    a7b8:	00000000 	nop
    a7bc:	00000000 	nop
    a7c0:	00000000 	nop
    a7c4:	00000000 	nop
    a7c8:	00000000 	nop
    a7cc:	00000000 	nop
    a7d0:	00000000 	nop
    a7d4:	00000000 	nop
    a7d8:	00000000 	nop
    a7dc:	00000000 	nop
    a7e0:	00000000 	nop
    a7e4:	00000000 	nop
    a7e8:	00000000 	nop
    a7ec:	00000000 	nop
    a7f0:	00000000 	nop
    a7f4:	00000000 	nop
    a7f8:	00000000 	nop
    a7fc:	00000000 	nop
    a800:	00000000 	nop
    a804:	00000000 	nop
    a808:	00000000 	nop
    a80c:	00000000 	nop
    a810:	00000000 	nop
    a814:	00000000 	nop
    a818:	00000000 	nop
    a81c:	00000000 	nop
    a820:	00000000 	nop
    a824:	00000000 	nop
    a828:	00000000 	nop
    a82c:	00000000 	nop
    a830:	00000000 	nop
    a834:	00000000 	nop
    a838:	00000000 	nop
    a83c:	00000000 	nop
    a840:	00000000 	nop
    a844:	00000000 	nop
    a848:	00000000 	nop
    a84c:	00000000 	nop
    a850:	00000000 	nop
    a854:	00000000 	nop
    a858:	00000000 	nop
    a85c:	00000000 	nop
    a860:	00000000 	nop
    a864:	00000000 	nop
    a868:	00000000 	nop
    a86c:	00000000 	nop
    a870:	00000000 	nop
    a874:	00000000 	nop
    a878:	00000000 	nop
    a87c:	00000000 	nop
    a880:	00000000 	nop
    a884:	00000000 	nop
    a888:	00000000 	nop
    a88c:	00000000 	nop
    a890:	00000000 	nop
    a894:	00000000 	nop
    a898:	00000000 	nop
    a89c:	00000000 	nop
    a8a0:	00000000 	nop
    a8a4:	00000000 	nop
    a8a8:	00000000 	nop
    a8ac:	00000000 	nop
    a8b0:	00000000 	nop
    a8b4:	00000000 	nop
    a8b8:	00000000 	nop
    a8bc:	00000000 	nop
    a8c0:	00000000 	nop
    a8c4:	00000000 	nop
    a8c8:	00000000 	nop
    a8cc:	00000000 	nop
    a8d0:	00000000 	nop
    a8d4:	00000000 	nop
    a8d8:	00000000 	nop
    a8dc:	00000000 	nop
    a8e0:	00000000 	nop
    a8e4:	00000000 	nop
    a8e8:	00000000 	nop
    a8ec:	00000000 	nop
    a8f0:	00000000 	nop
    a8f4:	00000000 	nop
    a8f8:	00000000 	nop
    a8fc:	00000000 	nop
    a900:	00000000 	nop
    a904:	00000000 	nop
    a908:	00000000 	nop
    a90c:	00000000 	nop
    a910:	00000000 	nop
    a914:	00000000 	nop
    a918:	00000000 	nop
    a91c:	00000000 	nop
    a920:	00000000 	nop
    a924:	00000000 	nop
    a928:	00000000 	nop
    a92c:	00000000 	nop
    a930:	00000000 	nop
    a934:	00000000 	nop
    a938:	00000000 	nop
    a93c:	00000000 	nop
    a940:	00000000 	nop
    a944:	00000000 	nop
    a948:	00000000 	nop
    a94c:	00000000 	nop
    a950:	00000000 	nop
    a954:	00000000 	nop
    a958:	00000000 	nop
    a95c:	00000000 	nop
    a960:	00000000 	nop
    a964:	00000000 	nop
    a968:	00000000 	nop
    a96c:	00000000 	nop
    a970:	00000000 	nop
    a974:	00000000 	nop
    a978:	00000000 	nop
    a97c:	00000000 	nop
    a980:	00000000 	nop
    a984:	00000000 	nop
    a988:	00000000 	nop
    a98c:	00000000 	nop
    a990:	00000000 	nop
    a994:	00000000 	nop
    a998:	00000000 	nop
    a99c:	00000000 	nop
    a9a0:	00000000 	nop
    a9a4:	00000000 	nop
    a9a8:	00000000 	nop
    a9ac:	00000000 	nop
    a9b0:	00000000 	nop
    a9b4:	00000000 	nop
    a9b8:	00000000 	nop
    a9bc:	00000000 	nop
    a9c0:	00000000 	nop
    a9c4:	00000000 	nop
    a9c8:	00000000 	nop
    a9cc:	00000000 	nop
    a9d0:	00000000 	nop
    a9d4:	00000000 	nop
    a9d8:	00000000 	nop
    a9dc:	00000000 	nop
    a9e0:	00000000 	nop
    a9e4:	00000000 	nop
    a9e8:	00000000 	nop
    a9ec:	00000000 	nop
    a9f0:	00000000 	nop
    a9f4:	00000000 	nop
    a9f8:	00000000 	nop
    a9fc:	00000000 	nop
    aa00:	00000000 	nop
    aa04:	00000000 	nop
    aa08:	00000000 	nop
    aa0c:	00000000 	nop
    aa10:	00000000 	nop
    aa14:	00000000 	nop
    aa18:	00000000 	nop
    aa1c:	00000000 	nop
    aa20:	00000000 	nop
    aa24:	00000000 	nop
    aa28:	00000000 	nop
    aa2c:	00000000 	nop
    aa30:	00000000 	nop
    aa34:	00000000 	nop
    aa38:	00000000 	nop
    aa3c:	00000000 	nop
    aa40:	00000000 	nop
    aa44:	00000000 	nop
    aa48:	00000000 	nop
    aa4c:	00000000 	nop
    aa50:	00000000 	nop
    aa54:	00000000 	nop
    aa58:	00000000 	nop
    aa5c:	00000000 	nop
    aa60:	00000000 	nop
    aa64:	00000000 	nop
    aa68:	00000000 	nop
    aa6c:	00000000 	nop
    aa70:	00000000 	nop
    aa74:	00000000 	nop
    aa78:	00000000 	nop
    aa7c:	00000000 	nop
    aa80:	00000000 	nop
    aa84:	00000000 	nop
    aa88:	00000000 	nop
    aa8c:	00000000 	nop
    aa90:	00000000 	nop
    aa94:	00000000 	nop
    aa98:	00000000 	nop
    aa9c:	00000000 	nop
    aaa0:	00000000 	nop
    aaa4:	00000000 	nop
    aaa8:	00000000 	nop
    aaac:	00000000 	nop
    aab0:	00000000 	nop
    aab4:	00000000 	nop
    aab8:	00000000 	nop
    aabc:	00000000 	nop
    aac0:	00000000 	nop
    aac4:	00000000 	nop
    aac8:	00000000 	nop
    aacc:	00000000 	nop
    aad0:	00000000 	nop
    aad4:	00000000 	nop
    aad8:	00000000 	nop
    aadc:	00000000 	nop
    aae0:	00000000 	nop
    aae4:	00000000 	nop
    aae8:	00000000 	nop
    aaec:	00000000 	nop
    aaf0:	00000000 	nop
    aaf4:	00000000 	nop
    aaf8:	00000000 	nop
    aafc:	00000000 	nop
    ab00:	00000000 	nop
    ab04:	00000000 	nop
    ab08:	00000000 	nop
    ab0c:	00000000 	nop
    ab10:	00000000 	nop
    ab14:	00000000 	nop
    ab18:	00000000 	nop
    ab1c:	00000000 	nop
    ab20:	00000000 	nop
    ab24:	00000000 	nop
    ab28:	00000000 	nop
    ab2c:	00000000 	nop
    ab30:	00000000 	nop
    ab34:	00000000 	nop
    ab38:	00000000 	nop
    ab3c:	00000000 	nop
    ab40:	00000000 	nop
    ab44:	00000000 	nop
    ab48:	00000000 	nop
    ab4c:	00000000 	nop
    ab50:	00000000 	nop
    ab54:	00000000 	nop
    ab58:	00000000 	nop
    ab5c:	00000000 	nop
    ab60:	00000000 	nop
    ab64:	00000000 	nop
    ab68:	00000000 	nop
    ab6c:	00000000 	nop
    ab70:	00000000 	nop
    ab74:	00000000 	nop
    ab78:	00000000 	nop
    ab7c:	00000000 	nop
    ab80:	00000000 	nop
    ab84:	00000000 	nop
    ab88:	00000000 	nop
    ab8c:	00000000 	nop
    ab90:	00000000 	nop
    ab94:	00000000 	nop
    ab98:	00000000 	nop
    ab9c:	00000000 	nop
    aba0:	00000000 	nop
    aba4:	00000000 	nop
    aba8:	00000000 	nop
    abac:	00000000 	nop
    abb0:	00000000 	nop
    abb4:	00000000 	nop
    abb8:	00000000 	nop
    abbc:	00000000 	nop
    abc0:	00000000 	nop
    abc4:	00000000 	nop
    abc8:	00000000 	nop
    abcc:	00000000 	nop
    abd0:	00000000 	nop
    abd4:	00000000 	nop
    abd8:	00000000 	nop
    abdc:	00000000 	nop
    abe0:	00000000 	nop
    abe4:	00000000 	nop
    abe8:	00000000 	nop
    abec:	00000000 	nop
    abf0:	00000000 	nop
    abf4:	00000000 	nop
    abf8:	00000000 	nop
    abfc:	00000000 	nop
    ac00:	00000000 	nop
    ac04:	00000000 	nop
    ac08:	00000000 	nop
    ac0c:	00000000 	nop
    ac10:	00000000 	nop
    ac14:	00000000 	nop
    ac18:	00000000 	nop
    ac1c:	00000000 	nop
    ac20:	00000000 	nop
    ac24:	00000000 	nop
    ac28:	00000000 	nop
    ac2c:	00000000 	nop
    ac30:	00000000 	nop
    ac34:	00000000 	nop
    ac38:	00000000 	nop
    ac3c:	00000000 	nop
    ac40:	00000000 	nop
    ac44:	00000000 	nop
    ac48:	00000000 	nop
    ac4c:	00000000 	nop
    ac50:	00000000 	nop
    ac54:	00000000 	nop
    ac58:	00000000 	nop
    ac5c:	00000000 	nop
    ac60:	00000000 	nop
    ac64:	00000000 	nop
    ac68:	00000000 	nop
    ac6c:	00000000 	nop
    ac70:	00000000 	nop
    ac74:	00000000 	nop
    ac78:	00000000 	nop
    ac7c:	00000000 	nop
    ac80:	00000000 	nop
    ac84:	00000000 	nop
    ac88:	00000000 	nop
    ac8c:	00000000 	nop
    ac90:	00000000 	nop
    ac94:	00000000 	nop
    ac98:	00000000 	nop
    ac9c:	00000000 	nop
    aca0:	00000000 	nop
    aca4:	00000000 	nop
    aca8:	00000000 	nop
    acac:	00000000 	nop
    acb0:	00000000 	nop
    acb4:	00000000 	nop
    acb8:	00000000 	nop
    acbc:	00000000 	nop
    acc0:	00000000 	nop
    acc4:	00000000 	nop
    acc8:	00000000 	nop
    accc:	00000000 	nop
    acd0:	00000000 	nop
    acd4:	00000000 	nop
    acd8:	00000000 	nop
    acdc:	00000000 	nop
    ace0:	00000000 	nop
    ace4:	00000000 	nop
    ace8:	00000000 	nop
    acec:	00000000 	nop
    acf0:	00000000 	nop
    acf4:	00000000 	nop
    acf8:	00000000 	nop
    acfc:	00000000 	nop
    ad00:	00000000 	nop
    ad04:	00000000 	nop
    ad08:	00000000 	nop
    ad0c:	00000000 	nop
    ad10:	00000000 	nop
    ad14:	00000000 	nop
    ad18:	00000000 	nop
    ad1c:	00000000 	nop
    ad20:	00000000 	nop
    ad24:	00000000 	nop
    ad28:	00000000 	nop
    ad2c:	00000000 	nop
    ad30:	00000000 	nop
    ad34:	00000000 	nop
    ad38:	00000000 	nop
    ad3c:	00000000 	nop
    ad40:	00000000 	nop
    ad44:	00000000 	nop
    ad48:	00000000 	nop
    ad4c:	00000000 	nop
    ad50:	00000000 	nop
    ad54:	00000000 	nop
    ad58:	00000000 	nop
    ad5c:	00000000 	nop
    ad60:	00000000 	nop
    ad64:	00000000 	nop
    ad68:	00000000 	nop
    ad6c:	00000000 	nop
    ad70:	00000000 	nop
    ad74:	00000000 	nop
    ad78:	00000000 	nop
    ad7c:	00000000 	nop
    ad80:	00000000 	nop
    ad84:	00000000 	nop
    ad88:	00000000 	nop
    ad8c:	00000000 	nop
    ad90:	00000000 	nop
    ad94:	00000000 	nop
    ad98:	00000000 	nop
    ad9c:	00000000 	nop
    ada0:	00000000 	nop
    ada4:	00000000 	nop
    ada8:	00000000 	nop
    adac:	00000000 	nop
    adb0:	00000000 	nop
    adb4:	00000000 	nop
    adb8:	00000000 	nop
    adbc:	00000000 	nop
    adc0:	00000000 	nop
    adc4:	00000000 	nop
    adc8:	00000000 	nop
    adcc:	00000000 	nop
    add0:	00000000 	nop
    add4:	00000000 	nop
    add8:	00000000 	nop
    addc:	00000000 	nop
    ade0:	00000000 	nop
    ade4:	00000000 	nop
    ade8:	00000000 	nop
    adec:	00000000 	nop
    adf0:	00000000 	nop
    adf4:	00000000 	nop
    adf8:	00000000 	nop
    adfc:	00000000 	nop
    ae00:	00000000 	nop
    ae04:	00000000 	nop
    ae08:	00000000 	nop
    ae0c:	00000000 	nop
    ae10:	00000000 	nop
    ae14:	00000000 	nop
    ae18:	00000000 	nop
    ae1c:	00000000 	nop
    ae20:	00000000 	nop
    ae24:	00000000 	nop
    ae28:	00000000 	nop
    ae2c:	00000000 	nop
    ae30:	00000000 	nop
    ae34:	00000000 	nop
    ae38:	00000000 	nop
    ae3c:	00000000 	nop
    ae40:	00000000 	nop
    ae44:	00000000 	nop
    ae48:	00000000 	nop
    ae4c:	00000000 	nop
    ae50:	00000000 	nop
    ae54:	00000000 	nop
    ae58:	00000000 	nop
    ae5c:	00000000 	nop
    ae60:	00000000 	nop
    ae64:	00000000 	nop
    ae68:	00000000 	nop
    ae6c:	00000000 	nop
    ae70:	00000000 	nop
    ae74:	00000000 	nop
    ae78:	00000000 	nop
    ae7c:	00000000 	nop
    ae80:	00000000 	nop
    ae84:	00000000 	nop
    ae88:	00000000 	nop
    ae8c:	00000000 	nop
    ae90:	00000000 	nop
    ae94:	00000000 	nop
    ae98:	00000000 	nop
    ae9c:	00000000 	nop
    aea0:	00000000 	nop
    aea4:	00000000 	nop
    aea8:	00000000 	nop
    aeac:	00000000 	nop
    aeb0:	00000000 	nop
    aeb4:	00000000 	nop
    aeb8:	00000000 	nop
    aebc:	00000000 	nop
    aec0:	00000000 	nop
    aec4:	00000000 	nop
    aec8:	00000000 	nop
    aecc:	00000000 	nop
    aed0:	00000000 	nop
    aed4:	00000000 	nop
    aed8:	00000000 	nop
    aedc:	00000000 	nop
    aee0:	00000000 	nop
    aee4:	00000000 	nop
    aee8:	00000000 	nop
    aeec:	00000000 	nop
    aef0:	00000000 	nop
    aef4:	00000000 	nop
    aef8:	00000000 	nop
    aefc:	00000000 	nop
    af00:	00000000 	nop
    af04:	00000000 	nop
    af08:	00000000 	nop
    af0c:	00000000 	nop
    af10:	00000000 	nop
    af14:	00000000 	nop
    af18:	00000000 	nop
    af1c:	00000000 	nop
    af20:	00000000 	nop
    af24:	00000000 	nop
    af28:	00000000 	nop
    af2c:	00000000 	nop
    af30:	00000000 	nop
    af34:	00000000 	nop
    af38:	00000000 	nop
    af3c:	00000000 	nop
    af40:	00000000 	nop
    af44:	00000000 	nop
    af48:	00000000 	nop
    af4c:	00000000 	nop
    af50:	00000000 	nop
    af54:	00000000 	nop
    af58:	00000000 	nop
    af5c:	00000000 	nop
    af60:	00000000 	nop
    af64:	00000000 	nop
    af68:	00000000 	nop
    af6c:	00000000 	nop
    af70:	00000000 	nop
    af74:	00000000 	nop
    af78:	00000000 	nop
    af7c:	00000000 	nop
    af80:	00000000 	nop
    af84:	00000000 	nop
    af88:	00000000 	nop
    af8c:	00000000 	nop
    af90:	00000000 	nop
    af94:	00000000 	nop
    af98:	00000000 	nop
    af9c:	00000000 	nop
    afa0:	00000000 	nop
    afa4:	00000000 	nop
    afa8:	00000000 	nop
    afac:	00000000 	nop
    afb0:	00000000 	nop
    afb4:	00000000 	nop
    afb8:	00000000 	nop
    afbc:	00000000 	nop
    afc0:	00000000 	nop
    afc4:	00000000 	nop
    afc8:	00000000 	nop
    afcc:	00000000 	nop
    afd0:	00000000 	nop
    afd4:	00000000 	nop
    afd8:	00000000 	nop
    afdc:	00000000 	nop
    afe0:	00000000 	nop
    afe4:	00000000 	nop
    afe8:	00000000 	nop
    afec:	00000000 	nop
    aff0:	00000000 	nop
    aff4:	00000000 	nop
    aff8:	00000000 	nop
    affc:	00000000 	nop
    b000:	00000000 	nop
    b004:	00000000 	nop
    b008:	00000000 	nop
    b00c:	00000000 	nop
    b010:	00000000 	nop
    b014:	00000000 	nop
    b018:	00000000 	nop
    b01c:	00000000 	nop
    b020:	00000000 	nop
    b024:	00000000 	nop
    b028:	00000000 	nop
    b02c:	00000000 	nop
    b030:	00000000 	nop
    b034:	00000000 	nop
    b038:	00000000 	nop
    b03c:	00000000 	nop
    b040:	00000000 	nop
    b044:	00000000 	nop
    b048:	00000000 	nop
    b04c:	00000000 	nop
    b050:	00000000 	nop
    b054:	00000000 	nop
    b058:	00000000 	nop
    b05c:	00000000 	nop
    b060:	00000000 	nop
    b064:	00000000 	nop
    b068:	00000000 	nop
    b06c:	00000000 	nop
    b070:	00000000 	nop
    b074:	00000000 	nop
    b078:	00000000 	nop
    b07c:	00000000 	nop
    b080:	00000000 	nop
    b084:	00000000 	nop
    b088:	00000000 	nop
    b08c:	00000000 	nop
    b090:	00000000 	nop
    b094:	00000000 	nop
    b098:	00000000 	nop
    b09c:	00000000 	nop
    b0a0:	00000000 	nop
    b0a4:	00000000 	nop
    b0a8:	00000000 	nop
    b0ac:	00000000 	nop
    b0b0:	00000000 	nop
    b0b4:	00000000 	nop
    b0b8:	00000000 	nop
    b0bc:	00000000 	nop
    b0c0:	00000000 	nop
    b0c4:	00000000 	nop
    b0c8:	00000000 	nop
    b0cc:	00000000 	nop
    b0d0:	00000000 	nop
    b0d4:	00000000 	nop
    b0d8:	00000000 	nop
    b0dc:	00000000 	nop
    b0e0:	00000000 	nop
    b0e4:	00000000 	nop
    b0e8:	00000000 	nop
    b0ec:	00000000 	nop
    b0f0:	00000000 	nop
    b0f4:	00000000 	nop
    b0f8:	00000000 	nop
    b0fc:	00000000 	nop
    b100:	00000000 	nop
    b104:	00000000 	nop
    b108:	00000000 	nop
    b10c:	00000000 	nop
    b110:	00000000 	nop
    b114:	00000000 	nop
    b118:	00000000 	nop
    b11c:	00000000 	nop
    b120:	00000000 	nop
    b124:	00000000 	nop
    b128:	00000000 	nop
    b12c:	00000000 	nop
    b130:	00000000 	nop
    b134:	00000000 	nop
    b138:	00000000 	nop
    b13c:	00000000 	nop
    b140:	00000000 	nop
    b144:	00000000 	nop
    b148:	00000000 	nop
    b14c:	00000000 	nop
    b150:	00000000 	nop
    b154:	00000000 	nop
    b158:	00000000 	nop
    b15c:	00000000 	nop
    b160:	00000000 	nop
    b164:	00000000 	nop
    b168:	00000000 	nop
    b16c:	00000000 	nop
    b170:	00000000 	nop
    b174:	00000000 	nop
    b178:	00000000 	nop
    b17c:	00000000 	nop
    b180:	00000000 	nop
    b184:	00000000 	nop
    b188:	00000000 	nop
    b18c:	00000000 	nop
    b190:	00000000 	nop
    b194:	00000000 	nop
    b198:	00000000 	nop
    b19c:	00000000 	nop
    b1a0:	00000000 	nop
    b1a4:	00000000 	nop
    b1a8:	00000000 	nop
    b1ac:	00000000 	nop
    b1b0:	00000000 	nop
    b1b4:	00000000 	nop
    b1b8:	00000000 	nop
    b1bc:	00000000 	nop
    b1c0:	00000000 	nop
    b1c4:	00000000 	nop
    b1c8:	00000000 	nop
    b1cc:	00000000 	nop
    b1d0:	00000000 	nop
    b1d4:	00000000 	nop
    b1d8:	00000000 	nop
    b1dc:	00000000 	nop
    b1e0:	00000000 	nop
    b1e4:	00000000 	nop
    b1e8:	00000000 	nop
    b1ec:	00000000 	nop
    b1f0:	00000000 	nop
    b1f4:	00000000 	nop
    b1f8:	00000000 	nop
    b1fc:	00000000 	nop
    b200:	00000000 	nop
    b204:	00000000 	nop
    b208:	00000000 	nop
    b20c:	00000000 	nop
    b210:	00000000 	nop
    b214:	00000000 	nop
    b218:	00000000 	nop
    b21c:	00000000 	nop
    b220:	00000000 	nop
    b224:	00000000 	nop
    b228:	00000000 	nop
    b22c:	00000000 	nop
    b230:	00000000 	nop
    b234:	00000000 	nop
    b238:	00000000 	nop
    b23c:	00000000 	nop
    b240:	00000000 	nop
    b244:	00000000 	nop
    b248:	00000000 	nop
    b24c:	00000000 	nop
    b250:	00000000 	nop
    b254:	00000000 	nop
    b258:	00000000 	nop
    b25c:	00000000 	nop
    b260:	00000000 	nop
    b264:	00000000 	nop
    b268:	00000000 	nop
    b26c:	00000000 	nop
    b270:	00000000 	nop
    b274:	00000000 	nop
    b278:	00000000 	nop
    b27c:	00000000 	nop
    b280:	00000000 	nop
    b284:	00000000 	nop
    b288:	00000000 	nop
    b28c:	00000000 	nop
    b290:	00000000 	nop
    b294:	00000000 	nop
    b298:	00000000 	nop
    b29c:	00000000 	nop
    b2a0:	00000000 	nop
    b2a4:	00000000 	nop
    b2a8:	00000000 	nop
    b2ac:	00000000 	nop
    b2b0:	00000000 	nop
    b2b4:	00000000 	nop
    b2b8:	00000000 	nop
    b2bc:	00000000 	nop
    b2c0:	00000000 	nop
    b2c4:	00000000 	nop
    b2c8:	00000000 	nop
    b2cc:	00000000 	nop
    b2d0:	00000000 	nop
    b2d4:	00000000 	nop
    b2d8:	00000000 	nop
    b2dc:	00000000 	nop
    b2e0:	00000000 	nop
    b2e4:	00000000 	nop
    b2e8:	00000000 	nop
    b2ec:	00000000 	nop
    b2f0:	00000000 	nop
    b2f4:	00000000 	nop
    b2f8:	00000000 	nop
    b2fc:	00000000 	nop
    b300:	00000000 	nop
    b304:	00000000 	nop
    b308:	00000000 	nop
    b30c:	00000000 	nop
    b310:	00000000 	nop
    b314:	00000000 	nop
    b318:	00000000 	nop
    b31c:	00000000 	nop
    b320:	00000000 	nop
    b324:	00000000 	nop
    b328:	00000000 	nop
    b32c:	00000000 	nop
    b330:	00000000 	nop
    b334:	00000000 	nop
    b338:	00000000 	nop
    b33c:	00000000 	nop
    b340:	00000000 	nop
    b344:	00000000 	nop
    b348:	00000000 	nop
    b34c:	00000000 	nop
    b350:	00000000 	nop
    b354:	00000000 	nop
    b358:	00000000 	nop
    b35c:	00000000 	nop
    b360:	00000000 	nop
    b364:	00000000 	nop
    b368:	00000000 	nop
    b36c:	00000000 	nop
    b370:	00000000 	nop
    b374:	00000000 	nop
    b378:	00000000 	nop
    b37c:	00000000 	nop
    b380:	00000000 	nop
    b384:	00000000 	nop
    b388:	00000000 	nop
    b38c:	00000000 	nop
    b390:	00000000 	nop
    b394:	00000000 	nop
    b398:	00000000 	nop
    b39c:	00000000 	nop
    b3a0:	00000000 	nop
    b3a4:	00000000 	nop
    b3a8:	00000000 	nop
    b3ac:	00000000 	nop
    b3b0:	00000000 	nop
    b3b4:	00000000 	nop
    b3b8:	00000000 	nop
    b3bc:	00000000 	nop
    b3c0:	00000000 	nop
    b3c4:	00000000 	nop
    b3c8:	00000000 	nop
    b3cc:	00000000 	nop
    b3d0:	00000000 	nop
    b3d4:	00000000 	nop
    b3d8:	00000000 	nop
    b3dc:	00000000 	nop
    b3e0:	00000000 	nop
    b3e4:	00000000 	nop
    b3e8:	00000000 	nop
    b3ec:	00000000 	nop
    b3f0:	00000000 	nop
    b3f4:	00000000 	nop
    b3f8:	00000000 	nop
    b3fc:	00000000 	nop
    b400:	00000000 	nop
    b404:	00000000 	nop
    b408:	00000000 	nop
    b40c:	00000000 	nop
    b410:	00000000 	nop
    b414:	00000000 	nop
    b418:	00000000 	nop
    b41c:	00000000 	nop
    b420:	00000000 	nop
    b424:	00000000 	nop
    b428:	00000000 	nop
    b42c:	00000000 	nop
    b430:	00000000 	nop
    b434:	00000000 	nop
    b438:	00000000 	nop
    b43c:	00000000 	nop
    b440:	00000000 	nop
    b444:	00000000 	nop
    b448:	00000000 	nop
    b44c:	00000000 	nop
    b450:	00000000 	nop
    b454:	00000000 	nop
    b458:	00000000 	nop
    b45c:	00000000 	nop
    b460:	00000000 	nop
    b464:	00000000 	nop
    b468:	00000000 	nop
    b46c:	00000000 	nop
    b470:	00000000 	nop
    b474:	00000000 	nop
    b478:	00000000 	nop
    b47c:	00000000 	nop
    b480:	00000000 	nop
    b484:	00000000 	nop
    b488:	00000000 	nop
    b48c:	00000000 	nop
    b490:	00000000 	nop
    b494:	00000000 	nop
    b498:	00000000 	nop
    b49c:	00000000 	nop
    b4a0:	00000000 	nop
    b4a4:	00000000 	nop
    b4a8:	00000000 	nop
    b4ac:	00000000 	nop
    b4b0:	00000000 	nop
    b4b4:	00000000 	nop
    b4b8:	00000000 	nop
    b4bc:	00000000 	nop
    b4c0:	00000000 	nop
    b4c4:	00000000 	nop
    b4c8:	00000000 	nop
    b4cc:	00000000 	nop
    b4d0:	00000000 	nop
    b4d4:	00000000 	nop
    b4d8:	00000000 	nop
    b4dc:	00000000 	nop
    b4e0:	00000000 	nop
    b4e4:	00000000 	nop
    b4e8:	00000000 	nop
    b4ec:	00000000 	nop
    b4f0:	00000000 	nop
    b4f4:	00000000 	nop
    b4f8:	00000000 	nop
    b4fc:	00000000 	nop
    b500:	00000000 	nop
    b504:	00000000 	nop
    b508:	00000000 	nop
    b50c:	00000000 	nop
    b510:	00000000 	nop
    b514:	00000000 	nop
    b518:	00000000 	nop
    b51c:	00000000 	nop
    b520:	00000000 	nop
    b524:	00000000 	nop
    b528:	00000000 	nop
    b52c:	00000000 	nop
    b530:	00000000 	nop
    b534:	00000000 	nop
    b538:	00000000 	nop
    b53c:	00000000 	nop
    b540:	00000000 	nop
    b544:	00000000 	nop
    b548:	00000000 	nop
    b54c:	00000000 	nop
    b550:	00000000 	nop
    b554:	00000000 	nop
    b558:	00000000 	nop
    b55c:	00000000 	nop
    b560:	00000000 	nop
    b564:	00000000 	nop
    b568:	00000000 	nop
    b56c:	00000000 	nop
    b570:	00000000 	nop
    b574:	00000000 	nop
    b578:	00000000 	nop
    b57c:	00000000 	nop
    b580:	00000000 	nop
    b584:	00000000 	nop
    b588:	00000000 	nop
    b58c:	00000000 	nop
    b590:	00000000 	nop
    b594:	00000000 	nop
    b598:	00000000 	nop
    b59c:	00000000 	nop
    b5a0:	00000000 	nop
    b5a4:	00000000 	nop
    b5a8:	00000000 	nop
    b5ac:	00000000 	nop
    b5b0:	00000000 	nop
    b5b4:	00000000 	nop
    b5b8:	00000000 	nop
    b5bc:	00000000 	nop
    b5c0:	00000000 	nop
    b5c4:	00000000 	nop
    b5c8:	00000000 	nop
    b5cc:	00000000 	nop
    b5d0:	00000000 	nop
    b5d4:	00000000 	nop
    b5d8:	00000000 	nop
    b5dc:	00000000 	nop
    b5e0:	00000000 	nop
    b5e4:	00000000 	nop
    b5e8:	00000000 	nop
    b5ec:	00000000 	nop
    b5f0:	00000000 	nop
    b5f4:	00000000 	nop
    b5f8:	00000000 	nop
    b5fc:	00000000 	nop
    b600:	00000000 	nop
    b604:	00000000 	nop
    b608:	00000000 	nop
    b60c:	00000000 	nop
    b610:	00000000 	nop
    b614:	00000000 	nop
    b618:	00000000 	nop
    b61c:	00000000 	nop
    b620:	00000000 	nop
    b624:	00000000 	nop
    b628:	00000000 	nop
    b62c:	00000000 	nop
    b630:	00000000 	nop
    b634:	00000000 	nop
    b638:	00000000 	nop
    b63c:	00000000 	nop
    b640:	00000000 	nop
    b644:	00000000 	nop
    b648:	00000000 	nop
    b64c:	00000000 	nop
    b650:	00000000 	nop
    b654:	00000000 	nop
    b658:	00000000 	nop
    b65c:	00000000 	nop
    b660:	00000000 	nop
    b664:	00000000 	nop
    b668:	00000000 	nop
    b66c:	00000000 	nop
    b670:	00000000 	nop
    b674:	00000000 	nop
    b678:	00000000 	nop
    b67c:	00000000 	nop
    b680:	00000000 	nop
    b684:	00000000 	nop
    b688:	00000000 	nop
    b68c:	00000000 	nop
    b690:	00000000 	nop
    b694:	00000000 	nop
    b698:	00000000 	nop
    b69c:	00000000 	nop
    b6a0:	00000000 	nop
    b6a4:	00000000 	nop
    b6a8:	00000000 	nop
    b6ac:	00000000 	nop
    b6b0:	00000000 	nop
    b6b4:	00000000 	nop
    b6b8:	00000000 	nop
    b6bc:	00000000 	nop
    b6c0:	00000000 	nop
    b6c4:	00000000 	nop
    b6c8:	00000000 	nop
    b6cc:	00000000 	nop
    b6d0:	00000000 	nop
    b6d4:	00000000 	nop
    b6d8:	00000000 	nop
    b6dc:	00000000 	nop
    b6e0:	00000000 	nop
    b6e4:	00000000 	nop
    b6e8:	00000000 	nop
    b6ec:	00000000 	nop
    b6f0:	00000000 	nop
    b6f4:	00000000 	nop
    b6f8:	00000000 	nop
    b6fc:	00000000 	nop
    b700:	00000000 	nop
    b704:	00000000 	nop
    b708:	00000000 	nop
    b70c:	00000000 	nop
    b710:	00000000 	nop
    b714:	00000000 	nop
    b718:	00000000 	nop
    b71c:	00000000 	nop
    b720:	00000000 	nop
    b724:	00000000 	nop
    b728:	00000000 	nop
    b72c:	00000000 	nop
    b730:	00000000 	nop
    b734:	00000000 	nop
    b738:	00000000 	nop
    b73c:	00000000 	nop
    b740:	00000000 	nop
    b744:	00000000 	nop
    b748:	00000000 	nop
    b74c:	00000000 	nop
    b750:	00000000 	nop
    b754:	00000000 	nop
    b758:	00000000 	nop
    b75c:	00000000 	nop
    b760:	00000000 	nop
    b764:	00000000 	nop
    b768:	00000000 	nop
    b76c:	00000000 	nop
    b770:	00000000 	nop
    b774:	00000000 	nop
    b778:	00000000 	nop
    b77c:	00000000 	nop
    b780:	00000000 	nop
    b784:	00000000 	nop
    b788:	00000000 	nop
    b78c:	00000000 	nop
    b790:	00000000 	nop
    b794:	00000000 	nop
    b798:	00000000 	nop
    b79c:	00000000 	nop
    b7a0:	00000000 	nop
    b7a4:	00000000 	nop
    b7a8:	00000000 	nop
    b7ac:	00000000 	nop
    b7b0:	00000000 	nop
    b7b4:	00000000 	nop
    b7b8:	00000000 	nop
    b7bc:	00000000 	nop
    b7c0:	00000000 	nop
    b7c4:	00000000 	nop
    b7c8:	00000000 	nop
    b7cc:	00000000 	nop
    b7d0:	00000000 	nop
    b7d4:	00000000 	nop
    b7d8:	00000000 	nop
    b7dc:	00000000 	nop
    b7e0:	00000000 	nop
    b7e4:	00000000 	nop
    b7e8:	00000000 	nop
    b7ec:	00000000 	nop
    b7f0:	00000000 	nop
    b7f4:	00000000 	nop
    b7f8:	00000000 	nop
    b7fc:	00000000 	nop
    b800:	00000000 	nop
    b804:	00000000 	nop
    b808:	00000000 	nop
    b80c:	00000000 	nop
    b810:	00000000 	nop
    b814:	00000000 	nop
    b818:	00000000 	nop
    b81c:	00000000 	nop
    b820:	00000000 	nop
    b824:	00000000 	nop
    b828:	00000000 	nop
    b82c:	00000000 	nop
    b830:	00000000 	nop
    b834:	00000000 	nop
    b838:	00000000 	nop
    b83c:	00000000 	nop
    b840:	00000000 	nop
    b844:	00000000 	nop
    b848:	00000000 	nop
    b84c:	00000000 	nop
    b850:	00000000 	nop
    b854:	00000000 	nop
    b858:	00000000 	nop
    b85c:	00000000 	nop
    b860:	00000000 	nop
    b864:	00000000 	nop
    b868:	00000000 	nop
    b86c:	00000000 	nop
    b870:	00000000 	nop
    b874:	00000000 	nop
    b878:	00000000 	nop
    b87c:	00000000 	nop
    b880:	00000000 	nop
    b884:	00000000 	nop
    b888:	00000000 	nop
    b88c:	00000000 	nop
    b890:	00000000 	nop
    b894:	00000000 	nop
    b898:	00000000 	nop
    b89c:	00000000 	nop
    b8a0:	00000000 	nop
    b8a4:	00000000 	nop
    b8a8:	00000000 	nop
    b8ac:	00000000 	nop
    b8b0:	00000000 	nop
    b8b4:	00000000 	nop
    b8b8:	00000000 	nop
    b8bc:	00000000 	nop
    b8c0:	00000000 	nop
    b8c4:	00000000 	nop
    b8c8:	00000000 	nop
    b8cc:	00000000 	nop
    b8d0:	00000000 	nop
    b8d4:	00000000 	nop
    b8d8:	00000000 	nop
    b8dc:	00000000 	nop
    b8e0:	00000000 	nop
    b8e4:	00000000 	nop
    b8e8:	00000000 	nop
    b8ec:	00000000 	nop
    b8f0:	00000000 	nop
    b8f4:	00000000 	nop
    b8f8:	00000000 	nop
    b8fc:	00000000 	nop
    b900:	00000000 	nop
    b904:	00000000 	nop
    b908:	00000000 	nop
    b90c:	00000000 	nop
    b910:	00000000 	nop
    b914:	00000000 	nop
    b918:	00000000 	nop
    b91c:	00000000 	nop
    b920:	00000000 	nop
    b924:	00000000 	nop
    b928:	00000000 	nop
    b92c:	00000000 	nop
    b930:	00000000 	nop
    b934:	00000000 	nop
    b938:	00000000 	nop
    b93c:	00000000 	nop
    b940:	00000000 	nop
    b944:	00000000 	nop
    b948:	00000000 	nop
    b94c:	00000000 	nop
    b950:	00000000 	nop
    b954:	00000000 	nop
    b958:	00000000 	nop
    b95c:	00000000 	nop
    b960:	00000000 	nop
    b964:	00000000 	nop
    b968:	00000000 	nop
    b96c:	00000000 	nop
    b970:	00000000 	nop
    b974:	00000000 	nop
    b978:	00000000 	nop
    b97c:	00000000 	nop
    b980:	00000000 	nop
    b984:	00000000 	nop
    b988:	00000000 	nop
    b98c:	00000000 	nop
    b990:	00000000 	nop
    b994:	00000000 	nop
    b998:	00000000 	nop
    b99c:	00000000 	nop
    b9a0:	00000000 	nop
    b9a4:	00000000 	nop
    b9a8:	00000000 	nop
    b9ac:	00000000 	nop
    b9b0:	00000000 	nop
    b9b4:	00000000 	nop
    b9b8:	00000000 	nop
    b9bc:	00000000 	nop
    b9c0:	00000000 	nop
    b9c4:	00000000 	nop
    b9c8:	00000000 	nop
    b9cc:	00000000 	nop
    b9d0:	00000000 	nop
    b9d4:	00000000 	nop
    b9d8:	00000000 	nop
    b9dc:	00000000 	nop
    b9e0:	00000000 	nop
    b9e4:	00000000 	nop
    b9e8:	00000000 	nop
    b9ec:	00000000 	nop
    b9f0:	00000000 	nop
    b9f4:	00000000 	nop
    b9f8:	00000000 	nop
    b9fc:	00000000 	nop
    ba00:	00000000 	nop
    ba04:	00000000 	nop
    ba08:	00000000 	nop
    ba0c:	00000000 	nop
    ba10:	00000000 	nop
    ba14:	00000000 	nop
    ba18:	00000000 	nop
    ba1c:	00000000 	nop
    ba20:	00000000 	nop
    ba24:	00000000 	nop
    ba28:	00000000 	nop
    ba2c:	00000000 	nop
    ba30:	00000000 	nop
    ba34:	00000000 	nop
    ba38:	00000000 	nop
    ba3c:	00000000 	nop
    ba40:	00000000 	nop
    ba44:	00000000 	nop
    ba48:	00000000 	nop
    ba4c:	00000000 	nop
    ba50:	00000000 	nop
    ba54:	00000000 	nop
    ba58:	00000000 	nop
    ba5c:	00000000 	nop
    ba60:	00000000 	nop
    ba64:	00000000 	nop
    ba68:	00000000 	nop
    ba6c:	00000000 	nop
    ba70:	00000000 	nop
    ba74:	00000000 	nop
    ba78:	00000000 	nop
    ba7c:	00000000 	nop
    ba80:	00000000 	nop
    ba84:	00000000 	nop
    ba88:	00000000 	nop
    ba8c:	00000000 	nop
    ba90:	00000000 	nop
    ba94:	00000000 	nop
    ba98:	00000000 	nop
    ba9c:	00000000 	nop
    baa0:	00000000 	nop
    baa4:	00000000 	nop
    baa8:	00000000 	nop
    baac:	00000000 	nop
    bab0:	00000000 	nop
    bab4:	00000000 	nop
    bab8:	00000000 	nop
    babc:	00000000 	nop
    bac0:	00000000 	nop
    bac4:	00000000 	nop
    bac8:	00000000 	nop
    bacc:	00000000 	nop
    bad0:	00000000 	nop
    bad4:	00000000 	nop
    bad8:	00000000 	nop
    badc:	00000000 	nop
    bae0:	00000000 	nop
    bae4:	00000000 	nop
    bae8:	00000000 	nop
    baec:	00000000 	nop
    baf0:	00000000 	nop
    baf4:	00000000 	nop
    baf8:	00000000 	nop
    bafc:	00000000 	nop
    bb00:	00000000 	nop
    bb04:	00000000 	nop
    bb08:	00000000 	nop
    bb0c:	00000000 	nop
    bb10:	00000000 	nop
    bb14:	00000000 	nop
    bb18:	00000000 	nop
    bb1c:	00000000 	nop
    bb20:	00000000 	nop
    bb24:	00000000 	nop
    bb28:	00000000 	nop
    bb2c:	00000000 	nop
    bb30:	00000000 	nop
    bb34:	00000000 	nop
    bb38:	00000000 	nop
    bb3c:	00000000 	nop
    bb40:	00000000 	nop
    bb44:	00000000 	nop
    bb48:	00000000 	nop
    bb4c:	00000000 	nop
    bb50:	00000000 	nop
    bb54:	00000000 	nop
    bb58:	00000000 	nop
    bb5c:	00000000 	nop
    bb60:	00000000 	nop
    bb64:	00000000 	nop
    bb68:	00000000 	nop
    bb6c:	00000000 	nop
    bb70:	00000000 	nop
    bb74:	00000000 	nop
    bb78:	00000000 	nop
    bb7c:	00000000 	nop
    bb80:	00000000 	nop
    bb84:	00000000 	nop
    bb88:	00000000 	nop
    bb8c:	00000000 	nop
    bb90:	00000000 	nop
    bb94:	00000000 	nop
    bb98:	00000000 	nop
    bb9c:	00000000 	nop
    bba0:	00000000 	nop
    bba4:	00000000 	nop
    bba8:	00000000 	nop
    bbac:	00000000 	nop
    bbb0:	00000000 	nop
    bbb4:	00000000 	nop
    bbb8:	00000000 	nop
    bbbc:	00000000 	nop
    bbc0:	00000000 	nop
    bbc4:	00000000 	nop
    bbc8:	00000000 	nop
    bbcc:	00000000 	nop
    bbd0:	00000000 	nop
    bbd4:	00000000 	nop
    bbd8:	00000000 	nop
    bbdc:	00000000 	nop
    bbe0:	00000000 	nop
    bbe4:	00000000 	nop
    bbe8:	00000000 	nop
    bbec:	00000000 	nop
    bbf0:	00000000 	nop
    bbf4:	00000000 	nop
    bbf8:	00000000 	nop
    bbfc:	00000000 	nop
    bc00:	00000000 	nop
    bc04:	00000000 	nop
    bc08:	00000000 	nop
    bc0c:	00000000 	nop
    bc10:	00000000 	nop
    bc14:	00000000 	nop
    bc18:	00000000 	nop
    bc1c:	00000000 	nop
    bc20:	00000000 	nop
    bc24:	00000000 	nop
    bc28:	00000000 	nop
    bc2c:	00000000 	nop
    bc30:	00000000 	nop
    bc34:	00000000 	nop
    bc38:	00000000 	nop
    bc3c:	00000000 	nop
    bc40:	00000000 	nop
    bc44:	00000000 	nop
    bc48:	00000000 	nop
    bc4c:	00000000 	nop
    bc50:	00000000 	nop
    bc54:	00000000 	nop
    bc58:	00000000 	nop
    bc5c:	00000000 	nop
    bc60:	00000000 	nop
    bc64:	00000000 	nop
    bc68:	00000000 	nop
    bc6c:	00000000 	nop
    bc70:	00000000 	nop
    bc74:	00000000 	nop
    bc78:	00000000 	nop
    bc7c:	00000000 	nop
    bc80:	00000000 	nop
    bc84:	00000000 	nop
    bc88:	00000000 	nop
    bc8c:	00000000 	nop
    bc90:	00000000 	nop
    bc94:	00000000 	nop
    bc98:	00000000 	nop
    bc9c:	00000000 	nop
    bca0:	00000000 	nop
    bca4:	00000000 	nop
    bca8:	00000000 	nop
    bcac:	00000000 	nop
    bcb0:	00000000 	nop
    bcb4:	00000000 	nop
    bcb8:	00000000 	nop
    bcbc:	00000000 	nop
    bcc0:	00000000 	nop
    bcc4:	00000000 	nop
    bcc8:	00000000 	nop
    bccc:	00000000 	nop
    bcd0:	00000000 	nop
    bcd4:	00000000 	nop
    bcd8:	00000000 	nop
    bcdc:	00000000 	nop
    bce0:	00000000 	nop
    bce4:	00000000 	nop
    bce8:	00000000 	nop
    bcec:	00000000 	nop
    bcf0:	00000000 	nop
    bcf4:	00000000 	nop
    bcf8:	00000000 	nop
    bcfc:	00000000 	nop
    bd00:	00000000 	nop
    bd04:	00000000 	nop
    bd08:	00000000 	nop
    bd0c:	00000000 	nop
    bd10:	00000000 	nop
    bd14:	00000000 	nop
    bd18:	00000000 	nop
    bd1c:	00000000 	nop
    bd20:	00000000 	nop
    bd24:	00000000 	nop
    bd28:	00000000 	nop
    bd2c:	00000000 	nop
    bd30:	00000000 	nop
    bd34:	00000000 	nop
    bd38:	00000000 	nop
    bd3c:	00000000 	nop
    bd40:	00000000 	nop
    bd44:	00000000 	nop
    bd48:	00000000 	nop
    bd4c:	00000000 	nop
    bd50:	00000000 	nop
    bd54:	00000000 	nop
    bd58:	00000000 	nop
    bd5c:	00000000 	nop
    bd60:	00000000 	nop
    bd64:	00000000 	nop
    bd68:	00000000 	nop
    bd6c:	00000000 	nop
    bd70:	00000000 	nop
    bd74:	00000000 	nop
    bd78:	00000000 	nop
    bd7c:	00000000 	nop
    bd80:	00000000 	nop
    bd84:	00000000 	nop
    bd88:	00000000 	nop
    bd8c:	00000000 	nop
    bd90:	00000000 	nop
    bd94:	00000000 	nop
    bd98:	00000000 	nop
    bd9c:	00000000 	nop
    bda0:	00000000 	nop
    bda4:	00000000 	nop
    bda8:	00000000 	nop
    bdac:	00000000 	nop
    bdb0:	00000000 	nop
    bdb4:	00000000 	nop
    bdb8:	00000000 	nop
    bdbc:	00000000 	nop
    bdc0:	00000000 	nop
    bdc4:	00000000 	nop
    bdc8:	00000000 	nop
    bdcc:	00000000 	nop
    bdd0:	00000000 	nop
    bdd4:	00000000 	nop
    bdd8:	00000000 	nop
    bddc:	00000000 	nop
    bde0:	00000000 	nop
    bde4:	00000000 	nop
    bde8:	00000000 	nop
    bdec:	00000000 	nop
    bdf0:	00000000 	nop
    bdf4:	00000000 	nop
    bdf8:	00000000 	nop
    bdfc:	00000000 	nop
    be00:	00000000 	nop
    be04:	00000000 	nop
    be08:	00000000 	nop
    be0c:	00000000 	nop
    be10:	00000000 	nop
    be14:	00000000 	nop
    be18:	00000000 	nop
    be1c:	00000000 	nop
    be20:	00000000 	nop
    be24:	00000000 	nop
    be28:	00000000 	nop
    be2c:	00000000 	nop
    be30:	00000000 	nop
    be34:	00000000 	nop
    be38:	00000000 	nop
    be3c:	00000000 	nop
    be40:	00000000 	nop
    be44:	00000000 	nop
    be48:	00000000 	nop
    be4c:	00000000 	nop
    be50:	00000000 	nop
    be54:	00000000 	nop
    be58:	00000000 	nop
    be5c:	00000000 	nop
    be60:	00000000 	nop
    be64:	00000000 	nop
    be68:	00000000 	nop
    be6c:	00000000 	nop
    be70:	00000000 	nop
    be74:	00000000 	nop
    be78:	00000000 	nop
    be7c:	00000000 	nop
    be80:	00000000 	nop
    be84:	00000000 	nop
    be88:	00000000 	nop
    be8c:	00000000 	nop
    be90:	00000000 	nop
    be94:	00000000 	nop
    be98:	00000000 	nop
    be9c:	00000000 	nop
    bea0:	00000000 	nop
    bea4:	00000000 	nop
    bea8:	00000000 	nop
    beac:	00000000 	nop
    beb0:	00000000 	nop
    beb4:	00000000 	nop
    beb8:	00000000 	nop
    bebc:	00000000 	nop
    bec0:	00000000 	nop
    bec4:	00000000 	nop
    bec8:	00000000 	nop
    becc:	00000000 	nop
    bed0:	00000000 	nop
    bed4:	00000000 	nop
    bed8:	00000000 	nop
    bedc:	00000000 	nop
    bee0:	00000000 	nop
    bee4:	00000000 	nop
    bee8:	00000000 	nop
    beec:	00000000 	nop
    bef0:	00000000 	nop
    bef4:	00000000 	nop
    bef8:	00000000 	nop
    befc:	00000000 	nop
    bf00:	00000000 	nop
    bf04:	00000000 	nop
    bf08:	00000000 	nop
    bf0c:	00000000 	nop
    bf10:	00000000 	nop
    bf14:	00000000 	nop
    bf18:	00000000 	nop
    bf1c:	00000000 	nop
    bf20:	00000000 	nop
    bf24:	00000000 	nop
    bf28:	00000000 	nop
    bf2c:	00000000 	nop
    bf30:	00000000 	nop
    bf34:	00000000 	nop
    bf38:	00000000 	nop
    bf3c:	00000000 	nop
    bf40:	00000000 	nop
    bf44:	00000000 	nop
    bf48:	00000000 	nop
    bf4c:	00000000 	nop
    bf50:	00000000 	nop
    bf54:	00000000 	nop
    bf58:	00000000 	nop
    bf5c:	00000000 	nop
    bf60:	00000000 	nop
    bf64:	00000000 	nop
    bf68:	00000000 	nop
    bf6c:	00000000 	nop
    bf70:	00000000 	nop
    bf74:	00000000 	nop
    bf78:	00000000 	nop
    bf7c:	00000000 	nop
    bf80:	00000000 	nop
    bf84:	00000000 	nop
    bf88:	00000000 	nop
    bf8c:	00000000 	nop
    bf90:	00000000 	nop
    bf94:	00000000 	nop
    bf98:	00000000 	nop
    bf9c:	00000000 	nop
    bfa0:	00000000 	nop
    bfa4:	00000000 	nop
    bfa8:	00000000 	nop
    bfac:	00000000 	nop
    bfb0:	00000000 	nop
    bfb4:	00000000 	nop
    bfb8:	00000000 	nop
    bfbc:	00000000 	nop
    bfc0:	00000000 	nop
    bfc4:	00000000 	nop
    bfc8:	00000000 	nop
    bfcc:	00000000 	nop
    bfd0:	00000000 	nop
    bfd4:	00000000 	nop
    bfd8:	00000000 	nop
    bfdc:	00000000 	nop
    bfe0:	00000000 	nop
    bfe4:	00000000 	nop
    bfe8:	00000000 	nop
    bfec:	00000000 	nop
    bff0:	00000000 	nop
    bff4:	00000000 	nop
    bff8:	00000000 	nop
    bffc:	00000000 	nop
    c000:	00000000 	nop
    c004:	00000000 	nop
    c008:	00000000 	nop
    c00c:	00000000 	nop
    c010:	00000000 	nop
    c014:	00000000 	nop
    c018:	00000000 	nop
    c01c:	00000000 	nop
    c020:	00000000 	nop
    c024:	00000000 	nop
    c028:	00000000 	nop
    c02c:	00000000 	nop
    c030:	00000000 	nop
    c034:	00000000 	nop
    c038:	00000000 	nop
    c03c:	00000000 	nop
    c040:	00000000 	nop
    c044:	00000000 	nop
    c048:	00000000 	nop
    c04c:	00000000 	nop
    c050:	00000000 	nop
    c054:	00000000 	nop
    c058:	00000000 	nop
    c05c:	00000000 	nop
    c060:	00000000 	nop
    c064:	00000000 	nop
    c068:	00000000 	nop
    c06c:	00000000 	nop
    c070:	00000000 	nop
    c074:	00000000 	nop
    c078:	00000000 	nop
    c07c:	00000000 	nop
    c080:	00000000 	nop
    c084:	00000000 	nop
    c088:	00000000 	nop
    c08c:	00000000 	nop
    c090:	00000000 	nop
    c094:	00000000 	nop
    c098:	00000000 	nop
    c09c:	00000000 	nop
    c0a0:	00000000 	nop
    c0a4:	00000000 	nop
    c0a8:	00000000 	nop
    c0ac:	00000000 	nop
    c0b0:	00000000 	nop
    c0b4:	00000000 	nop
    c0b8:	00000000 	nop
    c0bc:	00000000 	nop
    c0c0:	00000000 	nop
    c0c4:	00000000 	nop
    c0c8:	00000000 	nop
    c0cc:	00000000 	nop
    c0d0:	00000000 	nop
    c0d4:	00000000 	nop
    c0d8:	00000000 	nop
    c0dc:	00000000 	nop
    c0e0:	00000000 	nop
    c0e4:	00000000 	nop
    c0e8:	00000000 	nop
    c0ec:	00000000 	nop
    c0f0:	00000000 	nop
    c0f4:	00000000 	nop
    c0f8:	00000000 	nop
    c0fc:	00000000 	nop
    c100:	00000000 	nop
    c104:	00000000 	nop
    c108:	00000000 	nop
    c10c:	00000000 	nop
    c110:	00000000 	nop
    c114:	00000000 	nop
    c118:	00000000 	nop
    c11c:	00000000 	nop
    c120:	00000000 	nop
    c124:	00000000 	nop
    c128:	00000000 	nop
    c12c:	00000000 	nop
    c130:	00000000 	nop
    c134:	00000000 	nop
    c138:	00000000 	nop
    c13c:	00000000 	nop
    c140:	00000000 	nop
    c144:	00000000 	nop
    c148:	00000000 	nop
    c14c:	00000000 	nop
    c150:	00000000 	nop
    c154:	00000000 	nop
    c158:	00000000 	nop
    c15c:	00000000 	nop
    c160:	00000000 	nop
    c164:	00000000 	nop
    c168:	00000000 	nop
    c16c:	00000000 	nop
    c170:	00000000 	nop
    c174:	00000000 	nop
    c178:	00000000 	nop
    c17c:	00000000 	nop
    c180:	00000000 	nop
    c184:	00000000 	nop
    c188:	00000000 	nop
    c18c:	00000000 	nop
    c190:	00000000 	nop
    c194:	00000000 	nop
    c198:	00000000 	nop
    c19c:	00000000 	nop
    c1a0:	00000000 	nop
    c1a4:	00000000 	nop
    c1a8:	00000000 	nop
    c1ac:	00000000 	nop
    c1b0:	00000000 	nop
    c1b4:	00000000 	nop
    c1b8:	00000000 	nop
    c1bc:	00000000 	nop
    c1c0:	00000000 	nop
    c1c4:	00000000 	nop
    c1c8:	00000000 	nop
    c1cc:	00000000 	nop
    c1d0:	00000000 	nop
    c1d4:	00000000 	nop
    c1d8:	00000000 	nop
    c1dc:	00000000 	nop
    c1e0:	00000000 	nop
    c1e4:	00000000 	nop
    c1e8:	00000000 	nop
    c1ec:	00000000 	nop
    c1f0:	00000000 	nop
    c1f4:	00000000 	nop
    c1f8:	00000000 	nop
    c1fc:	00000000 	nop
    c200:	00000000 	nop
    c204:	00000000 	nop
    c208:	00000000 	nop
    c20c:	00000000 	nop
    c210:	00000000 	nop
    c214:	00000000 	nop
    c218:	00000000 	nop
    c21c:	00000000 	nop
    c220:	00000000 	nop
    c224:	00000000 	nop
    c228:	00000000 	nop
    c22c:	00000000 	nop
    c230:	00000000 	nop
    c234:	00000000 	nop
    c238:	00000000 	nop
    c23c:	00000000 	nop
    c240:	00000000 	nop
    c244:	00000000 	nop
    c248:	00000000 	nop
    c24c:	00000000 	nop
    c250:	00000000 	nop
    c254:	00000000 	nop
    c258:	00000000 	nop
    c25c:	00000000 	nop
    c260:	00000000 	nop
    c264:	00000000 	nop
    c268:	00000000 	nop
    c26c:	00000000 	nop
    c270:	00000000 	nop
    c274:	00000000 	nop
    c278:	00000000 	nop
    c27c:	00000000 	nop
    c280:	00000000 	nop
    c284:	00000000 	nop
    c288:	00000000 	nop
    c28c:	00000000 	nop
    c290:	00000000 	nop
    c294:	00000000 	nop
    c298:	00000000 	nop
    c29c:	00000000 	nop
    c2a0:	00000000 	nop
    c2a4:	00000000 	nop
    c2a8:	00000000 	nop
    c2ac:	00000000 	nop
    c2b0:	00000000 	nop
    c2b4:	00000000 	nop
    c2b8:	00000000 	nop
    c2bc:	00000000 	nop
    c2c0:	00000000 	nop
    c2c4:	00000000 	nop
    c2c8:	00000000 	nop
    c2cc:	00000000 	nop
    c2d0:	00000000 	nop
    c2d4:	00000000 	nop
    c2d8:	00000000 	nop
    c2dc:	00000000 	nop
    c2e0:	00000000 	nop
    c2e4:	00000000 	nop
    c2e8:	00000000 	nop
    c2ec:	00000000 	nop
    c2f0:	00000000 	nop
    c2f4:	00000000 	nop
    c2f8:	00000000 	nop
    c2fc:	00000000 	nop
    c300:	00000000 	nop
    c304:	00000000 	nop
    c308:	00000000 	nop
    c30c:	00000000 	nop
    c310:	00000000 	nop
    c314:	00000000 	nop
    c318:	00000000 	nop
    c31c:	00000000 	nop
    c320:	00000000 	nop
    c324:	00000000 	nop
    c328:	00000000 	nop
    c32c:	00000000 	nop
    c330:	00000000 	nop
    c334:	00000000 	nop
    c338:	00000000 	nop
    c33c:	00000000 	nop
    c340:	00000000 	nop
    c344:	00000000 	nop
    c348:	00000000 	nop
    c34c:	00000000 	nop
    c350:	00000000 	nop
    c354:	00000000 	nop
    c358:	00000000 	nop
    c35c:	00000000 	nop
    c360:	00000000 	nop
    c364:	00000000 	nop
    c368:	00000000 	nop
    c36c:	00000000 	nop
    c370:	00000000 	nop
    c374:	00000000 	nop
    c378:	00000000 	nop
    c37c:	00000000 	nop
    c380:	00000000 	nop
    c384:	00000000 	nop
    c388:	00000000 	nop
    c38c:	00000000 	nop
    c390:	00000000 	nop
    c394:	00000000 	nop
    c398:	00000000 	nop
    c39c:	00000000 	nop
    c3a0:	00000000 	nop
    c3a4:	00000000 	nop
    c3a8:	00000000 	nop
    c3ac:	00000000 	nop
    c3b0:	00000000 	nop
    c3b4:	00000000 	nop
    c3b8:	00000000 	nop
    c3bc:	00000000 	nop
    c3c0:	00000000 	nop
    c3c4:	00000000 	nop
    c3c8:	00000000 	nop
    c3cc:	00000000 	nop
    c3d0:	00000000 	nop
    c3d4:	00000000 	nop
    c3d8:	00000000 	nop
    c3dc:	00000000 	nop
    c3e0:	00000000 	nop
    c3e4:	00000000 	nop
    c3e8:	00000000 	nop
    c3ec:	00000000 	nop
    c3f0:	00000000 	nop
    c3f4:	00000000 	nop
    c3f8:	00000000 	nop
    c3fc:	00000000 	nop
    c400:	00000000 	nop
    c404:	00000000 	nop
    c408:	00000000 	nop
    c40c:	00000000 	nop
    c410:	00000000 	nop
    c414:	00000000 	nop
    c418:	00000000 	nop
    c41c:	00000000 	nop
    c420:	00000000 	nop
    c424:	00000000 	nop
    c428:	00000000 	nop
    c42c:	00000000 	nop
    c430:	00000000 	nop
    c434:	00000000 	nop
    c438:	00000000 	nop
    c43c:	00000000 	nop
    c440:	00000000 	nop
    c444:	00000000 	nop
    c448:	00000000 	nop
    c44c:	00000000 	nop
    c450:	00000000 	nop
    c454:	00000000 	nop
    c458:	00000000 	nop
    c45c:	00000000 	nop
    c460:	00000000 	nop
    c464:	00000000 	nop
    c468:	00000000 	nop
    c46c:	00000000 	nop
    c470:	00000000 	nop
    c474:	00000000 	nop
    c478:	00000000 	nop
    c47c:	00000000 	nop
    c480:	00000000 	nop
    c484:	00000000 	nop
    c488:	00000000 	nop
    c48c:	00000000 	nop
    c490:	00000000 	nop
    c494:	00000000 	nop
    c498:	00000000 	nop
    c49c:	00000000 	nop
    c4a0:	00000000 	nop
    c4a4:	00000000 	nop
    c4a8:	00000000 	nop
    c4ac:	00000000 	nop
    c4b0:	00000000 	nop
    c4b4:	00000000 	nop
    c4b8:	00000000 	nop
    c4bc:	00000000 	nop
    c4c0:	00000000 	nop
    c4c4:	00000000 	nop
    c4c8:	00000000 	nop
    c4cc:	00000000 	nop
    c4d0:	00000000 	nop
    c4d4:	00000000 	nop
    c4d8:	00000000 	nop
    c4dc:	00000000 	nop
    c4e0:	00000000 	nop
    c4e4:	00000000 	nop
    c4e8:	00000000 	nop
    c4ec:	00000000 	nop
    c4f0:	00000000 	nop
    c4f4:	00000000 	nop
    c4f8:	00000000 	nop
    c4fc:	00000000 	nop
    c500:	00000000 	nop
    c504:	00000000 	nop
    c508:	00000000 	nop
    c50c:	00000000 	nop
    c510:	00000000 	nop
    c514:	00000000 	nop
    c518:	00000000 	nop
    c51c:	00000000 	nop
    c520:	00000000 	nop
    c524:	00000000 	nop
    c528:	00000000 	nop
    c52c:	00000000 	nop
    c530:	00000000 	nop
    c534:	00000000 	nop
    c538:	00000000 	nop
    c53c:	00000000 	nop
    c540:	00000000 	nop
    c544:	00000000 	nop
    c548:	00000000 	nop
    c54c:	00000000 	nop
    c550:	00000000 	nop
    c554:	00000000 	nop
    c558:	00000000 	nop
    c55c:	00000000 	nop
    c560:	00000000 	nop
    c564:	00000000 	nop
    c568:	00000000 	nop
    c56c:	00000000 	nop
    c570:	00000000 	nop
    c574:	00000000 	nop
    c578:	00000000 	nop
    c57c:	00000000 	nop
    c580:	00000000 	nop
    c584:	00000000 	nop
    c588:	00000000 	nop
    c58c:	00000000 	nop
    c590:	00000000 	nop
    c594:	00000000 	nop
    c598:	00000000 	nop
    c59c:	00000000 	nop
    c5a0:	00000000 	nop
    c5a4:	00000000 	nop
    c5a8:	00000000 	nop
    c5ac:	00000000 	nop
    c5b0:	00000000 	nop
    c5b4:	00000000 	nop
    c5b8:	00000000 	nop
    c5bc:	00000000 	nop
    c5c0:	00000000 	nop
    c5c4:	00000000 	nop
    c5c8:	00000000 	nop
    c5cc:	00000000 	nop
    c5d0:	00000000 	nop
    c5d4:	00000000 	nop
    c5d8:	00000000 	nop
    c5dc:	00000000 	nop
    c5e0:	00000000 	nop
    c5e4:	00000000 	nop
    c5e8:	00000000 	nop
    c5ec:	00000000 	nop
    c5f0:	00000000 	nop
    c5f4:	00000000 	nop
    c5f8:	00000000 	nop
    c5fc:	00000000 	nop
    c600:	00000000 	nop
    c604:	00000000 	nop
    c608:	00000000 	nop
    c60c:	00000000 	nop
    c610:	00000000 	nop
    c614:	00000000 	nop
    c618:	00000000 	nop
    c61c:	00000000 	nop
    c620:	00000000 	nop
    c624:	00000000 	nop
    c628:	00000000 	nop
    c62c:	00000000 	nop
    c630:	00000000 	nop
    c634:	00000000 	nop
    c638:	00000000 	nop
    c63c:	00000000 	nop
    c640:	00000000 	nop
    c644:	00000000 	nop
    c648:	00000000 	nop
    c64c:	00000000 	nop
    c650:	00000000 	nop
    c654:	00000000 	nop
    c658:	00000000 	nop
    c65c:	00000000 	nop
    c660:	00000000 	nop
    c664:	00000000 	nop
    c668:	00000000 	nop
    c66c:	00000000 	nop
    c670:	00000000 	nop
    c674:	00000000 	nop
    c678:	00000000 	nop
    c67c:	00000000 	nop
    c680:	00000000 	nop
    c684:	00000000 	nop
    c688:	00000000 	nop
    c68c:	00000000 	nop
    c690:	00000000 	nop
    c694:	00000000 	nop
    c698:	00000000 	nop
    c69c:	00000000 	nop
    c6a0:	00000000 	nop
    c6a4:	00000000 	nop
    c6a8:	00000000 	nop
    c6ac:	00000000 	nop
    c6b0:	00000000 	nop
    c6b4:	00000000 	nop
    c6b8:	00000000 	nop
    c6bc:	00000000 	nop
    c6c0:	00000000 	nop
    c6c4:	00000000 	nop
    c6c8:	00000000 	nop
    c6cc:	00000000 	nop
    c6d0:	00000000 	nop
    c6d4:	00000000 	nop
    c6d8:	00000000 	nop
    c6dc:	00000000 	nop
    c6e0:	00000000 	nop
    c6e4:	00000000 	nop
    c6e8:	00000000 	nop
    c6ec:	00000000 	nop
    c6f0:	00000000 	nop
    c6f4:	00000000 	nop
    c6f8:	00000000 	nop
    c6fc:	00000000 	nop
    c700:	00000000 	nop
    c704:	00000000 	nop
    c708:	00000000 	nop
    c70c:	00000000 	nop
    c710:	00000000 	nop
    c714:	00000000 	nop
    c718:	00000000 	nop
    c71c:	00000000 	nop
    c720:	00000000 	nop
    c724:	00000000 	nop
    c728:	00000000 	nop
    c72c:	00000000 	nop
    c730:	00000000 	nop
    c734:	00000000 	nop
    c738:	00000000 	nop
    c73c:	00000000 	nop
    c740:	00000000 	nop
    c744:	00000000 	nop
    c748:	00000000 	nop
    c74c:	00000000 	nop
    c750:	00000000 	nop
    c754:	00000000 	nop
    c758:	00000000 	nop
    c75c:	00000000 	nop
    c760:	00000000 	nop
    c764:	00000000 	nop
    c768:	00000000 	nop
    c76c:	00000000 	nop
    c770:	00000000 	nop
    c774:	00000000 	nop
    c778:	00000000 	nop
    c77c:	00000000 	nop
    c780:	00000000 	nop
    c784:	00000000 	nop
    c788:	00000000 	nop
    c78c:	00000000 	nop
    c790:	00000000 	nop
    c794:	00000000 	nop
    c798:	00000000 	nop
    c79c:	00000000 	nop
    c7a0:	00000000 	nop
    c7a4:	00000000 	nop
    c7a8:	00000000 	nop
    c7ac:	00000000 	nop
    c7b0:	00000000 	nop
    c7b4:	00000000 	nop
    c7b8:	00000000 	nop
    c7bc:	00000000 	nop
    c7c0:	00000000 	nop
    c7c4:	00000000 	nop
    c7c8:	00000000 	nop
    c7cc:	00000000 	nop
    c7d0:	00000000 	nop
    c7d4:	00000000 	nop
    c7d8:	00000000 	nop
    c7dc:	00000000 	nop
    c7e0:	00000000 	nop
    c7e4:	00000000 	nop
    c7e8:	00000000 	nop
    c7ec:	00000000 	nop
    c7f0:	00000000 	nop
    c7f4:	00000000 	nop
    c7f8:	00000000 	nop
    c7fc:	00000000 	nop
    c800:	00000000 	nop
    c804:	00000000 	nop
    c808:	00000000 	nop
    c80c:	00000000 	nop
    c810:	00000000 	nop
    c814:	00000000 	nop
    c818:	00000000 	nop
    c81c:	00000000 	nop
    c820:	00000000 	nop
    c824:	00000000 	nop
    c828:	00000000 	nop
    c82c:	00000000 	nop
    c830:	00000000 	nop
    c834:	00000000 	nop
    c838:	00000000 	nop
    c83c:	00000000 	nop
    c840:	00000000 	nop
    c844:	00000000 	nop
    c848:	00000000 	nop
    c84c:	00000000 	nop
    c850:	00000000 	nop
    c854:	00000000 	nop
    c858:	00000000 	nop
    c85c:	00000000 	nop
    c860:	00000000 	nop
    c864:	00000000 	nop
    c868:	00000000 	nop
    c86c:	00000000 	nop
    c870:	00000000 	nop
    c874:	00000000 	nop
    c878:	00000000 	nop
    c87c:	00000000 	nop
    c880:	00000000 	nop
    c884:	00000000 	nop
    c888:	00000000 	nop
    c88c:	00000000 	nop
    c890:	00000000 	nop
    c894:	00000000 	nop
    c898:	00000000 	nop
    c89c:	00000000 	nop
    c8a0:	00000000 	nop
    c8a4:	00000000 	nop
    c8a8:	00000000 	nop
    c8ac:	00000000 	nop
    c8b0:	00000000 	nop
    c8b4:	00000000 	nop
    c8b8:	00000000 	nop
    c8bc:	00000000 	nop
    c8c0:	00000000 	nop
    c8c4:	00000000 	nop
    c8c8:	00000000 	nop
    c8cc:	00000000 	nop
    c8d0:	00000000 	nop
    c8d4:	00000000 	nop
    c8d8:	00000000 	nop
    c8dc:	00000000 	nop
    c8e0:	00000000 	nop
    c8e4:	00000000 	nop
    c8e8:	00000000 	nop
    c8ec:	00000000 	nop
    c8f0:	00000000 	nop
    c8f4:	00000000 	nop
    c8f8:	00000000 	nop
    c8fc:	00000000 	nop
    c900:	00000000 	nop
    c904:	00000000 	nop
    c908:	00000000 	nop
    c90c:	00000000 	nop
    c910:	00000000 	nop
    c914:	00000000 	nop
    c918:	00000000 	nop
    c91c:	00000000 	nop
    c920:	00000000 	nop
    c924:	00000000 	nop
    c928:	00000000 	nop
    c92c:	00000000 	nop
    c930:	00000000 	nop
    c934:	00000000 	nop
    c938:	00000000 	nop
    c93c:	00000000 	nop
    c940:	00000000 	nop
    c944:	00000000 	nop
    c948:	00000000 	nop
    c94c:	00000000 	nop
    c950:	00000000 	nop
    c954:	00000000 	nop
    c958:	00000000 	nop
    c95c:	00000000 	nop
    c960:	00000000 	nop
    c964:	00000000 	nop
    c968:	00000000 	nop
    c96c:	00000000 	nop
    c970:	00000000 	nop
    c974:	00000000 	nop
    c978:	00000000 	nop
    c97c:	00000000 	nop
    c980:	00000000 	nop
    c984:	00000000 	nop
    c988:	00000000 	nop
    c98c:	00000000 	nop
    c990:	00000000 	nop
    c994:	00000000 	nop
    c998:	00000000 	nop
    c99c:	00000000 	nop
    c9a0:	00000000 	nop
    c9a4:	00000000 	nop
    c9a8:	00000000 	nop
    c9ac:	00000000 	nop
    c9b0:	00000000 	nop
    c9b4:	00000000 	nop
    c9b8:	00000000 	nop
    c9bc:	00000000 	nop
    c9c0:	00000000 	nop
    c9c4:	00000000 	nop
    c9c8:	00000000 	nop
    c9cc:	00000000 	nop
    c9d0:	00000000 	nop
    c9d4:	00000000 	nop
    c9d8:	00000000 	nop
    c9dc:	00000000 	nop
    c9e0:	00000000 	nop
    c9e4:	00000000 	nop
    c9e8:	00000000 	nop
    c9ec:	00000000 	nop
    c9f0:	00000000 	nop
    c9f4:	00000000 	nop
    c9f8:	00000000 	nop
    c9fc:	00000000 	nop
    ca00:	00000000 	nop
    ca04:	00000000 	nop
    ca08:	00000000 	nop
    ca0c:	00000000 	nop
    ca10:	00000000 	nop
    ca14:	00000000 	nop
    ca18:	00000000 	nop
    ca1c:	00000000 	nop
    ca20:	00000000 	nop
    ca24:	00000000 	nop
    ca28:	00000000 	nop
    ca2c:	00000000 	nop
    ca30:	00000000 	nop
    ca34:	00000000 	nop
    ca38:	00000000 	nop
    ca3c:	00000000 	nop
    ca40:	00000000 	nop
    ca44:	00000000 	nop
    ca48:	00000000 	nop
    ca4c:	00000000 	nop
    ca50:	00000000 	nop
    ca54:	00000000 	nop
    ca58:	00000000 	nop
    ca5c:	00000000 	nop
    ca60:	00000000 	nop
    ca64:	00000000 	nop
    ca68:	00000000 	nop
    ca6c:	00000000 	nop
    ca70:	00000000 	nop
    ca74:	00000000 	nop
    ca78:	00000000 	nop
    ca7c:	00000000 	nop
    ca80:	00000000 	nop
    ca84:	00000000 	nop
    ca88:	00000000 	nop
    ca8c:	00000000 	nop
    ca90:	00000000 	nop
    ca94:	00000000 	nop
    ca98:	00000000 	nop
    ca9c:	00000000 	nop
    caa0:	00000000 	nop
    caa4:	00000000 	nop
    caa8:	00000000 	nop
    caac:	00000000 	nop
    cab0:	00000000 	nop
    cab4:	00000000 	nop
    cab8:	00000000 	nop
    cabc:	00000000 	nop
    cac0:	00000000 	nop
    cac4:	00000000 	nop
    cac8:	00000000 	nop
    cacc:	00000000 	nop
    cad0:	00000000 	nop
    cad4:	00000000 	nop
    cad8:	00000000 	nop
    cadc:	00000000 	nop
    cae0:	00000000 	nop
    cae4:	00000000 	nop
    cae8:	00000000 	nop
    caec:	00000000 	nop
    caf0:	00000000 	nop
    caf4:	00000000 	nop
    caf8:	00000000 	nop
    cafc:	00000000 	nop
    cb00:	00000000 	nop
    cb04:	00000000 	nop
    cb08:	00000000 	nop
    cb0c:	00000000 	nop
    cb10:	00000000 	nop
    cb14:	00000000 	nop
    cb18:	00000000 	nop
    cb1c:	00000000 	nop
    cb20:	00000000 	nop
    cb24:	00000000 	nop
    cb28:	00000000 	nop
    cb2c:	00000000 	nop
    cb30:	00000000 	nop
    cb34:	00000000 	nop
    cb38:	00000000 	nop
    cb3c:	00000000 	nop
    cb40:	00000000 	nop
    cb44:	00000000 	nop
    cb48:	00000000 	nop
    cb4c:	00000000 	nop
    cb50:	00000000 	nop
    cb54:	00000000 	nop
    cb58:	00000000 	nop
    cb5c:	00000000 	nop
    cb60:	00000000 	nop
    cb64:	00000000 	nop
    cb68:	00000000 	nop
    cb6c:	00000000 	nop
    cb70:	00000000 	nop
    cb74:	00000000 	nop
    cb78:	00000000 	nop
    cb7c:	00000000 	nop
    cb80:	00000000 	nop
    cb84:	00000000 	nop
    cb88:	00000000 	nop
    cb8c:	00000000 	nop
    cb90:	00000000 	nop
    cb94:	00000000 	nop
    cb98:	00000000 	nop
    cb9c:	00000000 	nop
    cba0:	00000000 	nop
    cba4:	00000000 	nop
    cba8:	00000000 	nop
    cbac:	00000000 	nop
    cbb0:	00000000 	nop
    cbb4:	00000000 	nop
    cbb8:	00000000 	nop
    cbbc:	00000000 	nop
    cbc0:	00000000 	nop
    cbc4:	00000000 	nop
    cbc8:	00000000 	nop
    cbcc:	00000000 	nop
    cbd0:	00000000 	nop
    cbd4:	00000000 	nop
    cbd8:	00000000 	nop
    cbdc:	00000000 	nop
    cbe0:	00000000 	nop
    cbe4:	00000000 	nop
    cbe8:	00000000 	nop
    cbec:	00000000 	nop
    cbf0:	00000000 	nop
    cbf4:	00000000 	nop
    cbf8:	00000000 	nop
    cbfc:	00000000 	nop
    cc00:	00000000 	nop
    cc04:	00000000 	nop
    cc08:	00000000 	nop
    cc0c:	00000000 	nop
    cc10:	00000000 	nop
    cc14:	00000000 	nop
    cc18:	00000000 	nop
    cc1c:	00000000 	nop
    cc20:	00000000 	nop
    cc24:	00000000 	nop
    cc28:	00000000 	nop
    cc2c:	00000000 	nop
    cc30:	00000000 	nop
    cc34:	00000000 	nop
    cc38:	00000000 	nop
    cc3c:	00000000 	nop
    cc40:	00000000 	nop
    cc44:	00000000 	nop
    cc48:	00000000 	nop
    cc4c:	00000000 	nop
    cc50:	00000000 	nop
    cc54:	00000000 	nop
    cc58:	00000000 	nop
    cc5c:	00000000 	nop
    cc60:	00000000 	nop
    cc64:	00000000 	nop
    cc68:	00000000 	nop
    cc6c:	00000000 	nop
    cc70:	00000000 	nop
    cc74:	00000000 	nop
    cc78:	00000000 	nop
    cc7c:	00000000 	nop
    cc80:	00000000 	nop
    cc84:	00000000 	nop
    cc88:	00000000 	nop
    cc8c:	00000000 	nop
    cc90:	00000000 	nop
    cc94:	00000000 	nop
    cc98:	00000000 	nop
    cc9c:	00000000 	nop
    cca0:	00000000 	nop
    cca4:	00000000 	nop
    cca8:	00000000 	nop
    ccac:	00000000 	nop
    ccb0:	00000000 	nop
    ccb4:	00000000 	nop
    ccb8:	00000000 	nop
    ccbc:	00000000 	nop
    ccc0:	00000000 	nop
    ccc4:	00000000 	nop
    ccc8:	00000000 	nop
    cccc:	00000000 	nop
    ccd0:	00000000 	nop
    ccd4:	00000000 	nop
    ccd8:	00000000 	nop
    ccdc:	00000000 	nop
    cce0:	00000000 	nop
    cce4:	00000000 	nop
    cce8:	00000000 	nop
    ccec:	00000000 	nop
    ccf0:	00000000 	nop
    ccf4:	00000000 	nop
    ccf8:	00000000 	nop
    ccfc:	00000000 	nop
    cd00:	00000000 	nop
    cd04:	00000000 	nop
    cd08:	00000000 	nop
    cd0c:	00000000 	nop
    cd10:	00000000 	nop
    cd14:	00000000 	nop
    cd18:	00000000 	nop
    cd1c:	00000000 	nop
    cd20:	00000000 	nop
    cd24:	00000000 	nop
    cd28:	00000000 	nop
    cd2c:	00000000 	nop
    cd30:	00000000 	nop
    cd34:	00000000 	nop
    cd38:	00000000 	nop
    cd3c:	00000000 	nop
    cd40:	00000000 	nop
    cd44:	00000000 	nop
    cd48:	00000000 	nop
    cd4c:	00000000 	nop
    cd50:	00000000 	nop
    cd54:	00000000 	nop
    cd58:	00000000 	nop
    cd5c:	00000000 	nop
    cd60:	00000000 	nop
    cd64:	00000000 	nop
    cd68:	00000000 	nop
    cd6c:	00000000 	nop
    cd70:	00000000 	nop
    cd74:	00000000 	nop
    cd78:	00000000 	nop
    cd7c:	00000000 	nop
    cd80:	00000000 	nop
    cd84:	00000000 	nop
    cd88:	00000000 	nop
    cd8c:	00000000 	nop
    cd90:	00000000 	nop
    cd94:	00000000 	nop
    cd98:	00000000 	nop
    cd9c:	00000000 	nop
    cda0:	00000000 	nop
    cda4:	00000000 	nop
    cda8:	00000000 	nop
    cdac:	00000000 	nop
    cdb0:	00000000 	nop
    cdb4:	00000000 	nop
    cdb8:	00000000 	nop
    cdbc:	00000000 	nop
    cdc0:	00000000 	nop
    cdc4:	00000000 	nop
    cdc8:	00000000 	nop
    cdcc:	00000000 	nop
    cdd0:	00000000 	nop
    cdd4:	00000000 	nop
    cdd8:	00000000 	nop
    cddc:	00000000 	nop
    cde0:	00000000 	nop
    cde4:	00000000 	nop
    cde8:	00000000 	nop
    cdec:	00000000 	nop
    cdf0:	00000000 	nop
    cdf4:	00000000 	nop
    cdf8:	00000000 	nop
    cdfc:	00000000 	nop
    ce00:	00000000 	nop
    ce04:	00000000 	nop
    ce08:	00000000 	nop
    ce0c:	00000000 	nop
    ce10:	00000000 	nop
    ce14:	00000000 	nop
    ce18:	00000000 	nop
    ce1c:	00000000 	nop
    ce20:	00000000 	nop
    ce24:	00000000 	nop
    ce28:	00000000 	nop
    ce2c:	00000000 	nop
    ce30:	00000000 	nop
    ce34:	00000000 	nop
    ce38:	00000000 	nop
    ce3c:	00000000 	nop
    ce40:	00000000 	nop
    ce44:	00000000 	nop
    ce48:	00000000 	nop
    ce4c:	00000000 	nop
    ce50:	00000000 	nop
    ce54:	00000000 	nop
    ce58:	00000000 	nop
    ce5c:	00000000 	nop
    ce60:	00000000 	nop
    ce64:	00000000 	nop
    ce68:	00000000 	nop
    ce6c:	00000000 	nop
    ce70:	00000000 	nop
    ce74:	00000000 	nop
    ce78:	00000000 	nop
    ce7c:	00000000 	nop
    ce80:	00000000 	nop
    ce84:	00000000 	nop
    ce88:	00000000 	nop
    ce8c:	00000000 	nop
    ce90:	00000000 	nop
    ce94:	00000000 	nop
    ce98:	00000000 	nop
    ce9c:	00000000 	nop
    cea0:	00000000 	nop
    cea4:	00000000 	nop
    cea8:	00000000 	nop
    ceac:	00000000 	nop
    ceb0:	00000000 	nop
    ceb4:	00000000 	nop
    ceb8:	00000000 	nop
    cebc:	00000000 	nop
    cec0:	00000000 	nop
    cec4:	00000000 	nop
    cec8:	00000000 	nop
    cecc:	00000000 	nop
    ced0:	00000000 	nop
    ced4:	00000000 	nop
    ced8:	00000000 	nop
    cedc:	00000000 	nop
    cee0:	00000000 	nop
    cee4:	00000000 	nop
    cee8:	00000000 	nop
    ceec:	00000000 	nop
    cef0:	00000000 	nop
    cef4:	00000000 	nop
    cef8:	00000000 	nop
    cefc:	00000000 	nop
    cf00:	00000000 	nop
    cf04:	00000000 	nop
    cf08:	00000000 	nop
    cf0c:	00000000 	nop
    cf10:	00000000 	nop
    cf14:	00000000 	nop
    cf18:	00000000 	nop
    cf1c:	00000000 	nop
    cf20:	00000000 	nop
    cf24:	00000000 	nop
    cf28:	00000000 	nop
    cf2c:	00000000 	nop
    cf30:	00000000 	nop
    cf34:	00000000 	nop
    cf38:	00000000 	nop
    cf3c:	00000000 	nop
    cf40:	00000000 	nop
    cf44:	00000000 	nop
    cf48:	00000000 	nop
    cf4c:	00000000 	nop
    cf50:	00000000 	nop
    cf54:	00000000 	nop
    cf58:	00000000 	nop
    cf5c:	00000000 	nop
    cf60:	00000000 	nop
    cf64:	00000000 	nop
    cf68:	00000000 	nop
    cf6c:	00000000 	nop
    cf70:	00000000 	nop
    cf74:	00000000 	nop
    cf78:	00000000 	nop
    cf7c:	00000000 	nop
    cf80:	00000000 	nop
    cf84:	00000000 	nop
    cf88:	00000000 	nop
    cf8c:	00000000 	nop
    cf90:	00000000 	nop
    cf94:	00000000 	nop
    cf98:	00000000 	nop
    cf9c:	00000000 	nop
    cfa0:	00000000 	nop
    cfa4:	00000000 	nop
    cfa8:	00000000 	nop
    cfac:	00000000 	nop
    cfb0:	00000000 	nop
    cfb4:	00000000 	nop
    cfb8:	00000000 	nop
    cfbc:	00000000 	nop
    cfc0:	00000000 	nop
    cfc4:	00000000 	nop
    cfc8:	00000000 	nop
    cfcc:	00000000 	nop
    cfd0:	00000000 	nop
    cfd4:	00000000 	nop
    cfd8:	00000000 	nop
    cfdc:	00000000 	nop
    cfe0:	00000000 	nop
    cfe4:	00000000 	nop
    cfe8:	00000000 	nop
    cfec:	00000000 	nop
    cff0:	00000000 	nop
    cff4:	00000000 	nop
    cff8:	00000000 	nop
    cffc:	00000000 	nop
    d000:	00000000 	nop
    d004:	00000000 	nop
    d008:	00000000 	nop
    d00c:	00000000 	nop
    d010:	00000000 	nop
    d014:	00000000 	nop
    d018:	00000000 	nop
    d01c:	00000000 	nop
    d020:	00000000 	nop
    d024:	00000000 	nop
    d028:	00000000 	nop
    d02c:	00000000 	nop
    d030:	00000000 	nop
    d034:	00000000 	nop
    d038:	00000000 	nop
    d03c:	00000000 	nop
    d040:	00000000 	nop
    d044:	00000000 	nop
    d048:	00000000 	nop
    d04c:	00000000 	nop
    d050:	00000000 	nop
    d054:	00000000 	nop
    d058:	00000000 	nop
    d05c:	00000000 	nop
    d060:	00000000 	nop
    d064:	00000000 	nop
    d068:	00000000 	nop
    d06c:	00000000 	nop
    d070:	00000000 	nop
    d074:	00000000 	nop
    d078:	00000000 	nop
    d07c:	00000000 	nop
    d080:	00000000 	nop
    d084:	00000000 	nop
    d088:	00000000 	nop
    d08c:	00000000 	nop
    d090:	00000000 	nop
    d094:	00000000 	nop
    d098:	00000000 	nop
    d09c:	00000000 	nop
    d0a0:	00000000 	nop
    d0a4:	00000000 	nop
    d0a8:	00000000 	nop
    d0ac:	00000000 	nop
    d0b0:	00000000 	nop
    d0b4:	00000000 	nop
    d0b8:	00000000 	nop
    d0bc:	00000000 	nop
    d0c0:	00000000 	nop
    d0c4:	00000000 	nop
    d0c8:	00000000 	nop
    d0cc:	00000000 	nop
    d0d0:	00000000 	nop
    d0d4:	00000000 	nop
    d0d8:	00000000 	nop
    d0dc:	00000000 	nop
    d0e0:	00000000 	nop
    d0e4:	00000000 	nop
    d0e8:	00000000 	nop
    d0ec:	00000000 	nop
    d0f0:	00000000 	nop
    d0f4:	00000000 	nop
    d0f8:	00000000 	nop
    d0fc:	00000000 	nop
    d100:	00000000 	nop
    d104:	00000000 	nop
    d108:	00000000 	nop
    d10c:	00000000 	nop
    d110:	00000000 	nop
    d114:	00000000 	nop
    d118:	00000000 	nop
    d11c:	00000000 	nop
    d120:	00000000 	nop
    d124:	00000000 	nop
    d128:	00000000 	nop
    d12c:	00000000 	nop
    d130:	00000000 	nop
    d134:	00000000 	nop
    d138:	00000000 	nop
    d13c:	00000000 	nop
    d140:	00000000 	nop
    d144:	00000000 	nop
    d148:	00000000 	nop
    d14c:	00000000 	nop
    d150:	00000000 	nop
    d154:	00000000 	nop
    d158:	00000000 	nop
    d15c:	00000000 	nop
    d160:	00000000 	nop
    d164:	00000000 	nop
    d168:	00000000 	nop
    d16c:	00000000 	nop
    d170:	00000000 	nop
    d174:	00000000 	nop
    d178:	00000000 	nop
    d17c:	00000000 	nop
    d180:	00000000 	nop
    d184:	00000000 	nop
    d188:	00000000 	nop
    d18c:	00000000 	nop
    d190:	00000000 	nop
    d194:	00000000 	nop
    d198:	00000000 	nop
    d19c:	00000000 	nop
    d1a0:	00000000 	nop
    d1a4:	00000000 	nop
    d1a8:	00000000 	nop
    d1ac:	00000000 	nop
    d1b0:	00000000 	nop
    d1b4:	00000000 	nop
    d1b8:	00000000 	nop
    d1bc:	00000000 	nop
    d1c0:	00000000 	nop
    d1c4:	00000000 	nop
    d1c8:	00000000 	nop
    d1cc:	00000000 	nop
    d1d0:	00000000 	nop
    d1d4:	00000000 	nop
    d1d8:	00000000 	nop
    d1dc:	00000000 	nop
    d1e0:	00000000 	nop
    d1e4:	00000000 	nop
    d1e8:	00000000 	nop
    d1ec:	00000000 	nop
    d1f0:	00000000 	nop
    d1f4:	00000000 	nop
    d1f8:	00000000 	nop
    d1fc:	00000000 	nop
    d200:	00000000 	nop
    d204:	00000000 	nop
    d208:	00000000 	nop
    d20c:	00000000 	nop
    d210:	00000000 	nop
    d214:	00000000 	nop
    d218:	00000000 	nop
    d21c:	00000000 	nop
    d220:	00000000 	nop
    d224:	00000000 	nop
    d228:	00000000 	nop
    d22c:	00000000 	nop
    d230:	00000000 	nop
    d234:	00000000 	nop
    d238:	00000000 	nop
    d23c:	00000000 	nop
    d240:	00000000 	nop
    d244:	00000000 	nop
    d248:	00000000 	nop
    d24c:	00000000 	nop
    d250:	00000000 	nop
    d254:	00000000 	nop
    d258:	00000000 	nop
    d25c:	00000000 	nop
    d260:	00000000 	nop
    d264:	00000000 	nop
    d268:	00000000 	nop
    d26c:	00000000 	nop
    d270:	00000000 	nop
    d274:	00000000 	nop
    d278:	00000000 	nop
    d27c:	00000000 	nop
    d280:	00000000 	nop
    d284:	00000000 	nop
    d288:	00000000 	nop
    d28c:	00000000 	nop
    d290:	00000000 	nop
    d294:	00000000 	nop
    d298:	00000000 	nop
    d29c:	00000000 	nop
    d2a0:	00000000 	nop
    d2a4:	00000000 	nop
    d2a8:	00000000 	nop
    d2ac:	00000000 	nop
    d2b0:	00000000 	nop
    d2b4:	00000000 	nop
    d2b8:	00000000 	nop
    d2bc:	00000000 	nop
    d2c0:	00000000 	nop
    d2c4:	00000000 	nop
    d2c8:	00000000 	nop
    d2cc:	00000000 	nop
    d2d0:	00000000 	nop
    d2d4:	00000000 	nop
    d2d8:	00000000 	nop
    d2dc:	00000000 	nop
    d2e0:	00000000 	nop
    d2e4:	00000000 	nop
    d2e8:	00000000 	nop
    d2ec:	00000000 	nop
    d2f0:	00000000 	nop
    d2f4:	00000000 	nop
    d2f8:	00000000 	nop
    d2fc:	00000000 	nop
    d300:	00000000 	nop
    d304:	00000000 	nop
    d308:	00000000 	nop
    d30c:	00000000 	nop
    d310:	00000000 	nop
    d314:	00000000 	nop
    d318:	00000000 	nop
    d31c:	00000000 	nop
    d320:	00000000 	nop
    d324:	00000000 	nop
    d328:	00000000 	nop
    d32c:	00000000 	nop
    d330:	00000000 	nop
    d334:	00000000 	nop
    d338:	00000000 	nop
    d33c:	00000000 	nop
    d340:	00000000 	nop
    d344:	00000000 	nop
    d348:	00000000 	nop
    d34c:	00000000 	nop
    d350:	00000000 	nop
    d354:	00000000 	nop
    d358:	00000000 	nop
    d35c:	00000000 	nop
    d360:	00000000 	nop
    d364:	00000000 	nop
    d368:	00000000 	nop
    d36c:	00000000 	nop
    d370:	00000000 	nop
    d374:	00000000 	nop
    d378:	00000000 	nop
    d37c:	00000000 	nop
    d380:	00000000 	nop
    d384:	00000000 	nop
    d388:	00000000 	nop
    d38c:	00000000 	nop
    d390:	00000000 	nop
    d394:	00000000 	nop
    d398:	00000000 	nop
    d39c:	00000000 	nop
    d3a0:	00000000 	nop
    d3a4:	00000000 	nop
    d3a8:	00000000 	nop
    d3ac:	00000000 	nop
    d3b0:	00000000 	nop
    d3b4:	00000000 	nop
    d3b8:	00000000 	nop
    d3bc:	00000000 	nop
    d3c0:	00000000 	nop
    d3c4:	00000000 	nop
    d3c8:	00000000 	nop
    d3cc:	00000000 	nop
    d3d0:	00000000 	nop
    d3d4:	00000000 	nop
    d3d8:	00000000 	nop
    d3dc:	00000000 	nop
    d3e0:	00000000 	nop
    d3e4:	00000000 	nop
    d3e8:	00000000 	nop
    d3ec:	00000000 	nop
    d3f0:	00000000 	nop
    d3f4:	00000000 	nop
    d3f8:	00000000 	nop
    d3fc:	00000000 	nop
    d400:	00000000 	nop
    d404:	00000000 	nop
    d408:	00000000 	nop
    d40c:	00000000 	nop
    d410:	00000000 	nop
    d414:	00000000 	nop
    d418:	00000000 	nop
    d41c:	00000000 	nop
    d420:	00000000 	nop
    d424:	00000000 	nop
    d428:	00000000 	nop
    d42c:	00000000 	nop
    d430:	00000000 	nop
    d434:	00000000 	nop
    d438:	00000000 	nop
    d43c:	00000000 	nop
    d440:	00000000 	nop
    d444:	00000000 	nop
    d448:	00000000 	nop
    d44c:	00000000 	nop
    d450:	00000000 	nop
    d454:	00000000 	nop
    d458:	00000000 	nop
    d45c:	00000000 	nop
    d460:	00000000 	nop
    d464:	00000000 	nop
    d468:	00000000 	nop
    d46c:	00000000 	nop
    d470:	00000000 	nop
    d474:	00000000 	nop
    d478:	00000000 	nop
    d47c:	00000000 	nop
    d480:	00000000 	nop
    d484:	00000000 	nop
    d488:	00000000 	nop
    d48c:	00000000 	nop
    d490:	00000000 	nop
    d494:	00000000 	nop
    d498:	00000000 	nop
    d49c:	00000000 	nop
    d4a0:	00000000 	nop
    d4a4:	00000000 	nop
    d4a8:	00000000 	nop
    d4ac:	00000000 	nop
    d4b0:	00000000 	nop
    d4b4:	00000000 	nop
    d4b8:	00000000 	nop
    d4bc:	00000000 	nop
    d4c0:	00000000 	nop
    d4c4:	00000000 	nop
    d4c8:	00000000 	nop
    d4cc:	00000000 	nop
    d4d0:	00000000 	nop
    d4d4:	00000000 	nop
    d4d8:	00000000 	nop
    d4dc:	00000000 	nop
    d4e0:	00000000 	nop
    d4e4:	00000000 	nop
    d4e8:	00000000 	nop
    d4ec:	00000000 	nop
    d4f0:	00000000 	nop
    d4f4:	00000000 	nop
    d4f8:	00000000 	nop
    d4fc:	00000000 	nop
    d500:	00000000 	nop
    d504:	00000000 	nop
    d508:	00000000 	nop
    d50c:	00000000 	nop
    d510:	00000000 	nop
    d514:	00000000 	nop
    d518:	00000000 	nop
    d51c:	00000000 	nop
    d520:	00000000 	nop
    d524:	00000000 	nop
    d528:	00000000 	nop
    d52c:	00000000 	nop
    d530:	00000000 	nop
    d534:	00000000 	nop
    d538:	00000000 	nop
    d53c:	00000000 	nop
    d540:	00000000 	nop
    d544:	00000000 	nop
    d548:	00000000 	nop
    d54c:	00000000 	nop
    d550:	00000000 	nop
    d554:	00000000 	nop
    d558:	00000000 	nop
    d55c:	00000000 	nop
    d560:	00000000 	nop
    d564:	00000000 	nop
    d568:	00000000 	nop
    d56c:	00000000 	nop
    d570:	00000000 	nop
    d574:	00000000 	nop
    d578:	00000000 	nop
    d57c:	00000000 	nop
    d580:	00000000 	nop
    d584:	00000000 	nop
    d588:	00000000 	nop
    d58c:	00000000 	nop
    d590:	00000000 	nop
    d594:	00000000 	nop
    d598:	00000000 	nop
    d59c:	00000000 	nop
    d5a0:	00000000 	nop
    d5a4:	00000000 	nop
    d5a8:	00000000 	nop
    d5ac:	00000000 	nop
    d5b0:	00000000 	nop
    d5b4:	00000000 	nop
    d5b8:	00000000 	nop
    d5bc:	00000000 	nop
    d5c0:	00000000 	nop
    d5c4:	00000000 	nop
    d5c8:	00000000 	nop
    d5cc:	00000000 	nop
    d5d0:	00000000 	nop
    d5d4:	00000000 	nop
    d5d8:	00000000 	nop
    d5dc:	00000000 	nop
    d5e0:	00000000 	nop
    d5e4:	00000000 	nop
    d5e8:	00000000 	nop
    d5ec:	00000000 	nop
    d5f0:	00000000 	nop
    d5f4:	00000000 	nop
    d5f8:	00000000 	nop
    d5fc:	00000000 	nop
    d600:	00000000 	nop
    d604:	00000000 	nop
    d608:	00000000 	nop
    d60c:	00000000 	nop
    d610:	00000000 	nop
    d614:	00000000 	nop
    d618:	00000000 	nop
    d61c:	00000000 	nop
    d620:	00000000 	nop
    d624:	00000000 	nop
    d628:	00000000 	nop
    d62c:	00000000 	nop
    d630:	00000000 	nop
    d634:	00000000 	nop
    d638:	00000000 	nop
    d63c:	00000000 	nop
    d640:	00000000 	nop
    d644:	00000000 	nop
    d648:	00000000 	nop
    d64c:	00000000 	nop
    d650:	00000000 	nop
    d654:	00000000 	nop
    d658:	00000000 	nop
    d65c:	00000000 	nop
    d660:	00000000 	nop
    d664:	00000000 	nop
    d668:	00000000 	nop
    d66c:	00000000 	nop
    d670:	00000000 	nop
    d674:	00000000 	nop
    d678:	00000000 	nop
    d67c:	00000000 	nop
    d680:	00000000 	nop
    d684:	00000000 	nop
    d688:	00000000 	nop
    d68c:	00000000 	nop
    d690:	00000000 	nop
    d694:	00000000 	nop
    d698:	00000000 	nop
    d69c:	00000000 	nop
    d6a0:	00000000 	nop
    d6a4:	00000000 	nop
    d6a8:	00000000 	nop
    d6ac:	00000000 	nop
    d6b0:	00000000 	nop
    d6b4:	00000000 	nop
    d6b8:	00000000 	nop
    d6bc:	00000000 	nop
    d6c0:	00000000 	nop
    d6c4:	00000000 	nop
    d6c8:	00000000 	nop
    d6cc:	00000000 	nop
    d6d0:	00000000 	nop
    d6d4:	00000000 	nop
    d6d8:	00000000 	nop
    d6dc:	00000000 	nop
    d6e0:	00000000 	nop
    d6e4:	00000000 	nop
    d6e8:	00000000 	nop
    d6ec:	00000000 	nop
    d6f0:	00000000 	nop
    d6f4:	00000000 	nop
    d6f8:	00000000 	nop
    d6fc:	00000000 	nop
    d700:	00000000 	nop
    d704:	00000000 	nop
    d708:	00000000 	nop
    d70c:	00000000 	nop
    d710:	00000000 	nop
    d714:	00000000 	nop
    d718:	00000000 	nop
    d71c:	00000000 	nop
    d720:	00000000 	nop
    d724:	00000000 	nop
    d728:	00000000 	nop
    d72c:	00000000 	nop
    d730:	00000000 	nop
    d734:	00000000 	nop
    d738:	00000000 	nop
    d73c:	00000000 	nop
    d740:	00000000 	nop
    d744:	00000000 	nop
    d748:	00000000 	nop
    d74c:	00000000 	nop
    d750:	00000000 	nop
    d754:	00000000 	nop
    d758:	00000000 	nop
    d75c:	00000000 	nop
    d760:	00000000 	nop
    d764:	00000000 	nop
    d768:	00000000 	nop
    d76c:	00000000 	nop
    d770:	00000000 	nop
    d774:	00000000 	nop
    d778:	00000000 	nop
    d77c:	00000000 	nop
    d780:	00000000 	nop
    d784:	00000000 	nop
    d788:	00000000 	nop
    d78c:	00000000 	nop
    d790:	00000000 	nop
    d794:	00000000 	nop
    d798:	00000000 	nop
    d79c:	00000000 	nop
    d7a0:	00000000 	nop
    d7a4:	00000000 	nop
    d7a8:	00000000 	nop
    d7ac:	00000000 	nop
    d7b0:	00000000 	nop
    d7b4:	00000000 	nop
    d7b8:	00000000 	nop
    d7bc:	00000000 	nop
    d7c0:	00000000 	nop
    d7c4:	00000000 	nop
    d7c8:	00000000 	nop
    d7cc:	00000000 	nop
    d7d0:	00000000 	nop
    d7d4:	00000000 	nop
    d7d8:	00000000 	nop
    d7dc:	00000000 	nop
    d7e0:	00000000 	nop
    d7e4:	00000000 	nop
    d7e8:	00000000 	nop
    d7ec:	00000000 	nop
    d7f0:	00000000 	nop
    d7f4:	00000000 	nop
    d7f8:	00000000 	nop
    d7fc:	00000000 	nop
    d800:	00000000 	nop
    d804:	00000000 	nop
    d808:	00000000 	nop
    d80c:	00000000 	nop
    d810:	00000000 	nop
    d814:	00000000 	nop
    d818:	00000000 	nop
    d81c:	00000000 	nop
    d820:	00000000 	nop
    d824:	00000000 	nop
    d828:	00000000 	nop
    d82c:	00000000 	nop
    d830:	00000000 	nop
    d834:	00000000 	nop
    d838:	00000000 	nop
    d83c:	00000000 	nop
    d840:	00000000 	nop
    d844:	00000000 	nop
    d848:	00000000 	nop
    d84c:	00000000 	nop
    d850:	00000000 	nop
    d854:	00000000 	nop
    d858:	00000000 	nop
    d85c:	00000000 	nop
    d860:	00000000 	nop
    d864:	00000000 	nop
    d868:	00000000 	nop
    d86c:	00000000 	nop
    d870:	00000000 	nop
    d874:	00000000 	nop
    d878:	00000000 	nop
    d87c:	00000000 	nop
    d880:	00000000 	nop
    d884:	00000000 	nop
    d888:	00000000 	nop
    d88c:	00000000 	nop
    d890:	00000000 	nop
    d894:	00000000 	nop
    d898:	00000000 	nop
    d89c:	00000000 	nop
    d8a0:	00000000 	nop
    d8a4:	00000000 	nop
    d8a8:	00000000 	nop
    d8ac:	00000000 	nop
    d8b0:	00000000 	nop
    d8b4:	00000000 	nop
    d8b8:	00000000 	nop
    d8bc:	00000000 	nop
    d8c0:	00000000 	nop
    d8c4:	00000000 	nop
    d8c8:	00000000 	nop
    d8cc:	00000000 	nop
    d8d0:	00000000 	nop
    d8d4:	00000000 	nop
    d8d8:	00000000 	nop
    d8dc:	00000000 	nop
    d8e0:	00000000 	nop
    d8e4:	00000000 	nop
    d8e8:	00000000 	nop
    d8ec:	00000000 	nop
    d8f0:	00000000 	nop
    d8f4:	00000000 	nop
    d8f8:	00000000 	nop
    d8fc:	00000000 	nop
    d900:	00000000 	nop
    d904:	00000000 	nop
    d908:	00000000 	nop
    d90c:	00000000 	nop
    d910:	00000000 	nop
    d914:	00000000 	nop
    d918:	00000000 	nop
    d91c:	00000000 	nop
    d920:	00000000 	nop
    d924:	00000000 	nop
    d928:	00000000 	nop
    d92c:	00000000 	nop
    d930:	00000000 	nop
    d934:	00000000 	nop
    d938:	00000000 	nop
    d93c:	00000000 	nop
    d940:	00000000 	nop
    d944:	00000000 	nop
    d948:	00000000 	nop
    d94c:	00000000 	nop
    d950:	00000000 	nop
    d954:	00000000 	nop
    d958:	00000000 	nop
    d95c:	00000000 	nop
    d960:	00000000 	nop
    d964:	00000000 	nop
    d968:	00000000 	nop
    d96c:	00000000 	nop
    d970:	00000000 	nop
    d974:	00000000 	nop
    d978:	00000000 	nop
    d97c:	00000000 	nop
    d980:	00000000 	nop
    d984:	00000000 	nop
    d988:	00000000 	nop
    d98c:	00000000 	nop
    d990:	00000000 	nop
    d994:	00000000 	nop
    d998:	00000000 	nop
    d99c:	00000000 	nop
    d9a0:	00000000 	nop
    d9a4:	00000000 	nop
    d9a8:	00000000 	nop
    d9ac:	00000000 	nop
    d9b0:	00000000 	nop
    d9b4:	00000000 	nop
    d9b8:	00000000 	nop
    d9bc:	00000000 	nop
    d9c0:	00000000 	nop
    d9c4:	00000000 	nop
    d9c8:	00000000 	nop
    d9cc:	00000000 	nop
    d9d0:	00000000 	nop
    d9d4:	00000000 	nop
    d9d8:	00000000 	nop
    d9dc:	00000000 	nop
    d9e0:	00000000 	nop
    d9e4:	00000000 	nop
    d9e8:	00000000 	nop
    d9ec:	00000000 	nop
    d9f0:	00000000 	nop
    d9f4:	00000000 	nop
    d9f8:	00000000 	nop
    d9fc:	00000000 	nop
    da00:	00000000 	nop
    da04:	00000000 	nop
    da08:	00000000 	nop
    da0c:	00000000 	nop
    da10:	00000000 	nop
    da14:	00000000 	nop
    da18:	00000000 	nop
    da1c:	00000000 	nop
    da20:	00000000 	nop
    da24:	00000000 	nop
    da28:	00000000 	nop
    da2c:	00000000 	nop
    da30:	00000000 	nop
    da34:	00000000 	nop
    da38:	00000000 	nop
    da3c:	00000000 	nop
    da40:	00000000 	nop
    da44:	00000000 	nop
    da48:	00000000 	nop
    da4c:	00000000 	nop
    da50:	00000000 	nop
    da54:	00000000 	nop
    da58:	00000000 	nop
    da5c:	00000000 	nop
    da60:	00000000 	nop
    da64:	00000000 	nop
    da68:	00000000 	nop
    da6c:	00000000 	nop
    da70:	00000000 	nop
    da74:	00000000 	nop
    da78:	00000000 	nop
    da7c:	00000000 	nop
    da80:	00000000 	nop
    da84:	00000000 	nop
    da88:	00000000 	nop
    da8c:	00000000 	nop
    da90:	00000000 	nop
    da94:	00000000 	nop
    da98:	00000000 	nop
    da9c:	00000000 	nop
    daa0:	00000000 	nop
    daa4:	00000000 	nop
    daa8:	00000000 	nop
    daac:	00000000 	nop
    dab0:	00000000 	nop
    dab4:	00000000 	nop
    dab8:	00000000 	nop
    dabc:	00000000 	nop
    dac0:	00000000 	nop
    dac4:	00000000 	nop
    dac8:	00000000 	nop
    dacc:	00000000 	nop
    dad0:	00000000 	nop
    dad4:	00000000 	nop
    dad8:	00000000 	nop
    dadc:	00000000 	nop
    dae0:	00000000 	nop
    dae4:	00000000 	nop
    dae8:	00000000 	nop
    daec:	00000000 	nop
    daf0:	00000000 	nop
    daf4:	00000000 	nop
    daf8:	00000000 	nop
    dafc:	00000000 	nop
    db00:	00000000 	nop
    db04:	00000000 	nop
    db08:	00000000 	nop
    db0c:	00000000 	nop
    db10:	00000000 	nop
    db14:	00000000 	nop
    db18:	00000000 	nop
    db1c:	00000000 	nop
    db20:	00000000 	nop
    db24:	00000000 	nop
    db28:	00000000 	nop
    db2c:	00000000 	nop
    db30:	00000000 	nop
    db34:	00000000 	nop
    db38:	00000000 	nop
    db3c:	00000000 	nop
    db40:	00000000 	nop
    db44:	00000000 	nop
    db48:	00000000 	nop
    db4c:	00000000 	nop
    db50:	00000000 	nop
    db54:	00000000 	nop
    db58:	00000000 	nop
    db5c:	00000000 	nop
    db60:	00000000 	nop
    db64:	00000000 	nop
    db68:	00000000 	nop
    db6c:	00000000 	nop
    db70:	00000000 	nop
    db74:	00000000 	nop
    db78:	00000000 	nop
    db7c:	00000000 	nop
    db80:	00000000 	nop
    db84:	00000000 	nop
    db88:	00000000 	nop
    db8c:	00000000 	nop
    db90:	00000000 	nop
    db94:	00000000 	nop
    db98:	00000000 	nop
    db9c:	00000000 	nop
    dba0:	00000000 	nop
    dba4:	00000000 	nop
    dba8:	00000000 	nop
    dbac:	00000000 	nop
    dbb0:	00000000 	nop
    dbb4:	00000000 	nop
    dbb8:	00000000 	nop
    dbbc:	00000000 	nop
    dbc0:	00000000 	nop
    dbc4:	00000000 	nop
    dbc8:	00000000 	nop
    dbcc:	00000000 	nop
    dbd0:	00000000 	nop
    dbd4:	00000000 	nop
    dbd8:	00000000 	nop
    dbdc:	00000000 	nop
    dbe0:	00000000 	nop
    dbe4:	00000000 	nop
    dbe8:	00000000 	nop
    dbec:	00000000 	nop
    dbf0:	00000000 	nop
    dbf4:	00000000 	nop
    dbf8:	00000000 	nop
    dbfc:	00000000 	nop
    dc00:	00000000 	nop
    dc04:	00000000 	nop
    dc08:	00000000 	nop
    dc0c:	00000000 	nop
    dc10:	00000000 	nop
    dc14:	00000000 	nop
    dc18:	00000000 	nop
    dc1c:	00000000 	nop
    dc20:	00000000 	nop
    dc24:	00000000 	nop
    dc28:	00000000 	nop
    dc2c:	00000000 	nop
    dc30:	00000000 	nop
    dc34:	00000000 	nop
    dc38:	00000000 	nop
    dc3c:	00000000 	nop
    dc40:	00000000 	nop
    dc44:	00000000 	nop
    dc48:	00000000 	nop
    dc4c:	00000000 	nop
    dc50:	00000000 	nop
    dc54:	00000000 	nop
    dc58:	00000000 	nop
    dc5c:	00000000 	nop
    dc60:	00000000 	nop
    dc64:	00000000 	nop
    dc68:	00000000 	nop
    dc6c:	00000000 	nop
    dc70:	00000000 	nop
    dc74:	00000000 	nop
    dc78:	00000000 	nop
    dc7c:	00000000 	nop
    dc80:	00000000 	nop
    dc84:	00000000 	nop
    dc88:	00000000 	nop
    dc8c:	00000000 	nop
    dc90:	00000000 	nop
    dc94:	00000000 	nop
    dc98:	00000000 	nop
    dc9c:	00000000 	nop
    dca0:	00000000 	nop
    dca4:	00000000 	nop
    dca8:	00000000 	nop
    dcac:	00000000 	nop
    dcb0:	00000000 	nop
    dcb4:	00000000 	nop
    dcb8:	00000000 	nop
    dcbc:	00000000 	nop
    dcc0:	00000000 	nop
    dcc4:	00000000 	nop
    dcc8:	00000000 	nop
    dccc:	00000000 	nop
    dcd0:	00000000 	nop
    dcd4:	00000000 	nop
    dcd8:	00000000 	nop
    dcdc:	00000000 	nop
    dce0:	00000000 	nop
    dce4:	00000000 	nop
    dce8:	00000000 	nop
    dcec:	00000000 	nop
    dcf0:	00000000 	nop
    dcf4:	00000000 	nop
    dcf8:	00000000 	nop
    dcfc:	00000000 	nop
    dd00:	00000000 	nop
    dd04:	00000000 	nop
    dd08:	00000000 	nop
    dd0c:	00000000 	nop
    dd10:	00000000 	nop
    dd14:	00000000 	nop
    dd18:	00000000 	nop
    dd1c:	00000000 	nop
    dd20:	00000000 	nop
    dd24:	00000000 	nop
    dd28:	00000000 	nop
    dd2c:	00000000 	nop
    dd30:	00000000 	nop
    dd34:	00000000 	nop
    dd38:	00000000 	nop
    dd3c:	00000000 	nop
    dd40:	00000000 	nop
    dd44:	00000000 	nop
    dd48:	00000000 	nop
    dd4c:	00000000 	nop
    dd50:	00000000 	nop
    dd54:	00000000 	nop
    dd58:	00000000 	nop
    dd5c:	00000000 	nop
    dd60:	00000000 	nop
    dd64:	00000000 	nop
    dd68:	00000000 	nop
    dd6c:	00000000 	nop
    dd70:	00000000 	nop
    dd74:	00000000 	nop
    dd78:	00000000 	nop
    dd7c:	00000000 	nop
    dd80:	00000000 	nop
    dd84:	00000000 	nop
    dd88:	00000000 	nop
    dd8c:	00000000 	nop
    dd90:	00000000 	nop
    dd94:	00000000 	nop
    dd98:	00000000 	nop
    dd9c:	00000000 	nop
    dda0:	00000000 	nop
    dda4:	00000000 	nop
    dda8:	00000000 	nop
    ddac:	00000000 	nop
    ddb0:	00000000 	nop
    ddb4:	00000000 	nop
    ddb8:	00000000 	nop
    ddbc:	00000000 	nop
    ddc0:	00000000 	nop
    ddc4:	00000000 	nop
    ddc8:	00000000 	nop
    ddcc:	00000000 	nop
    ddd0:	00000000 	nop
    ddd4:	00000000 	nop
    ddd8:	00000000 	nop
    dddc:	00000000 	nop
    dde0:	00000000 	nop
    dde4:	00000000 	nop
    dde8:	00000000 	nop
    ddec:	00000000 	nop
    ddf0:	00000000 	nop
    ddf4:	00000000 	nop
    ddf8:	00000000 	nop
    ddfc:	00000000 	nop
    de00:	00000000 	nop
    de04:	00000000 	nop
    de08:	00000000 	nop
    de0c:	00000000 	nop
    de10:	00000000 	nop
    de14:	00000000 	nop
    de18:	00000000 	nop
    de1c:	00000000 	nop
    de20:	00000000 	nop
    de24:	00000000 	nop
    de28:	00000000 	nop
    de2c:	00000000 	nop
    de30:	00000000 	nop
    de34:	00000000 	nop
    de38:	00000000 	nop
    de3c:	00000000 	nop
    de40:	00000000 	nop
    de44:	00000000 	nop
    de48:	00000000 	nop
    de4c:	00000000 	nop
    de50:	00000000 	nop
    de54:	00000000 	nop
    de58:	00000000 	nop
    de5c:	00000000 	nop
    de60:	00000000 	nop
    de64:	00000000 	nop
    de68:	00000000 	nop
    de6c:	00000000 	nop
    de70:	00000000 	nop
    de74:	00000000 	nop
    de78:	00000000 	nop
    de7c:	00000000 	nop
    de80:	00000000 	nop
    de84:	00000000 	nop
    de88:	00000000 	nop
    de8c:	00000000 	nop
    de90:	00000000 	nop
    de94:	00000000 	nop
    de98:	00000000 	nop
    de9c:	00000000 	nop
    dea0:	00000000 	nop
    dea4:	00000000 	nop
    dea8:	00000000 	nop
    deac:	00000000 	nop
    deb0:	00000000 	nop
    deb4:	00000000 	nop
    deb8:	00000000 	nop
    debc:	00000000 	nop
    dec0:	00000000 	nop
    dec4:	00000000 	nop
    dec8:	00000000 	nop
    decc:	00000000 	nop
    ded0:	00000000 	nop
    ded4:	00000000 	nop
    ded8:	00000000 	nop
    dedc:	00000000 	nop
    dee0:	00000000 	nop
    dee4:	00000000 	nop
    dee8:	00000000 	nop
    deec:	00000000 	nop
    def0:	00000000 	nop
    def4:	00000000 	nop
    def8:	00000000 	nop
    defc:	00000000 	nop
    df00:	00000000 	nop
    df04:	00000000 	nop
    df08:	00000000 	nop
    df0c:	00000000 	nop
    df10:	00000000 	nop
    df14:	00000000 	nop
    df18:	00000000 	nop
    df1c:	00000000 	nop
    df20:	00000000 	nop
    df24:	00000000 	nop
    df28:	00000000 	nop
    df2c:	00000000 	nop
    df30:	00000000 	nop
    df34:	00000000 	nop
    df38:	00000000 	nop
    df3c:	00000000 	nop
    df40:	00000000 	nop
    df44:	00000000 	nop
    df48:	00000000 	nop
    df4c:	00000000 	nop
    df50:	00000000 	nop
    df54:	00000000 	nop
    df58:	00000000 	nop
    df5c:	00000000 	nop
    df60:	00000000 	nop
    df64:	00000000 	nop
    df68:	00000000 	nop
    df6c:	00000000 	nop
    df70:	00000000 	nop
    df74:	00000000 	nop
    df78:	00000000 	nop
    df7c:	00000000 	nop
    df80:	00000000 	nop
    df84:	00000000 	nop
    df88:	00000000 	nop
    df8c:	00000000 	nop
    df90:	00000000 	nop
    df94:	00000000 	nop
    df98:	00000000 	nop
    df9c:	00000000 	nop
    dfa0:	00000000 	nop
    dfa4:	00000000 	nop
    dfa8:	00000000 	nop
    dfac:	00000000 	nop
    dfb0:	00000000 	nop
    dfb4:	00000000 	nop
    dfb8:	00000000 	nop
    dfbc:	00000000 	nop
    dfc0:	00000000 	nop
    dfc4:	00000000 	nop
    dfc8:	00000000 	nop
    dfcc:	00000000 	nop
    dfd0:	00000000 	nop
    dfd4:	00000000 	nop
    dfd8:	00000000 	nop
    dfdc:	00000000 	nop
    dfe0:	00000000 	nop
    dfe4:	00000000 	nop
    dfe8:	00000000 	nop
    dfec:	00000000 	nop
    dff0:	00000000 	nop
    dff4:	00000000 	nop
    dff8:	00000000 	nop
    dffc:	00000000 	nop
    e000:	00000000 	nop
    e004:	00000000 	nop
    e008:	00000000 	nop
    e00c:	00000000 	nop
    e010:	00000000 	nop
    e014:	00000000 	nop
    e018:	00000000 	nop
    e01c:	00000000 	nop
    e020:	00000000 	nop
    e024:	00000000 	nop
    e028:	00000000 	nop
    e02c:	00000000 	nop
    e030:	00000000 	nop
    e034:	00000000 	nop
    e038:	00000000 	nop
    e03c:	00000000 	nop
    e040:	00000000 	nop
    e044:	00000000 	nop
    e048:	00000000 	nop
    e04c:	00000000 	nop
    e050:	00000000 	nop
    e054:	00000000 	nop
    e058:	00000000 	nop
    e05c:	00000000 	nop
    e060:	00000000 	nop
    e064:	00000000 	nop
    e068:	00000000 	nop
    e06c:	00000000 	nop
    e070:	00000000 	nop
    e074:	00000000 	nop
    e078:	00000000 	nop
    e07c:	00000000 	nop
    e080:	00000000 	nop
    e084:	00000000 	nop
    e088:	00000000 	nop
    e08c:	00000000 	nop
    e090:	00000000 	nop
    e094:	00000000 	nop
    e098:	00000000 	nop
    e09c:	00000000 	nop
    e0a0:	00000000 	nop
    e0a4:	00000000 	nop
    e0a8:	00000000 	nop
    e0ac:	00000000 	nop
    e0b0:	00000000 	nop
    e0b4:	00000000 	nop
    e0b8:	00000000 	nop
    e0bc:	00000000 	nop
    e0c0:	00000000 	nop
    e0c4:	00000000 	nop
    e0c8:	00000000 	nop
    e0cc:	00000000 	nop
    e0d0:	00000000 	nop
    e0d4:	00000000 	nop
    e0d8:	00000000 	nop
    e0dc:	00000000 	nop
    e0e0:	00000000 	nop
    e0e4:	00000000 	nop
    e0e8:	00000000 	nop
    e0ec:	00000000 	nop
    e0f0:	00000000 	nop
    e0f4:	00000000 	nop
    e0f8:	00000000 	nop
    e0fc:	00000000 	nop
    e100:	00000000 	nop
    e104:	00000000 	nop
    e108:	00000000 	nop
    e10c:	00000000 	nop
    e110:	00000000 	nop
    e114:	00000000 	nop
    e118:	00000000 	nop
    e11c:	00000000 	nop
    e120:	00000000 	nop
    e124:	00000000 	nop
    e128:	00000000 	nop
    e12c:	00000000 	nop
    e130:	00000000 	nop
    e134:	00000000 	nop
    e138:	00000000 	nop
    e13c:	00000000 	nop
    e140:	00000000 	nop
    e144:	00000000 	nop
    e148:	00000000 	nop
    e14c:	00000000 	nop
    e150:	00000000 	nop
    e154:	00000000 	nop
    e158:	00000000 	nop
    e15c:	00000000 	nop
    e160:	00000000 	nop
    e164:	00000000 	nop
    e168:	00000000 	nop
    e16c:	00000000 	nop
    e170:	00000000 	nop
    e174:	00000000 	nop
    e178:	00000000 	nop
    e17c:	00000000 	nop
    e180:	00000000 	nop
    e184:	00000000 	nop
    e188:	00000000 	nop
    e18c:	00000000 	nop
    e190:	00000000 	nop
    e194:	00000000 	nop
    e198:	00000000 	nop
    e19c:	00000000 	nop
    e1a0:	00000000 	nop
    e1a4:	00000000 	nop
    e1a8:	00000000 	nop
    e1ac:	00000000 	nop
    e1b0:	00000000 	nop
    e1b4:	00000000 	nop
    e1b8:	00000000 	nop
    e1bc:	00000000 	nop
    e1c0:	00000000 	nop
    e1c4:	00000000 	nop
    e1c8:	00000000 	nop
    e1cc:	00000000 	nop
    e1d0:	00000000 	nop
    e1d4:	00000000 	nop
    e1d8:	00000000 	nop
    e1dc:	00000000 	nop
    e1e0:	00000000 	nop
    e1e4:	00000000 	nop
    e1e8:	00000000 	nop
    e1ec:	00000000 	nop
    e1f0:	00000000 	nop
    e1f4:	00000000 	nop
    e1f8:	00000000 	nop
    e1fc:	00000000 	nop
    e200:	00000000 	nop
    e204:	00000000 	nop
    e208:	00000000 	nop
    e20c:	00000000 	nop
    e210:	00000000 	nop
    e214:	00000000 	nop
    e218:	00000000 	nop
    e21c:	00000000 	nop
    e220:	00000000 	nop
    e224:	00000000 	nop
    e228:	00000000 	nop
    e22c:	00000000 	nop
    e230:	00000000 	nop
    e234:	00000000 	nop
    e238:	00000000 	nop
    e23c:	00000000 	nop
    e240:	00000000 	nop
    e244:	00000000 	nop
    e248:	00000000 	nop
    e24c:	00000000 	nop
    e250:	00000000 	nop
    e254:	00000000 	nop
    e258:	00000000 	nop
    e25c:	00000000 	nop
    e260:	00000000 	nop
    e264:	00000000 	nop
    e268:	00000000 	nop
    e26c:	00000000 	nop
    e270:	00000000 	nop
    e274:	00000000 	nop
    e278:	00000000 	nop
    e27c:	00000000 	nop
    e280:	00000000 	nop
    e284:	00000000 	nop
    e288:	00000000 	nop
    e28c:	00000000 	nop
    e290:	00000000 	nop
    e294:	00000000 	nop
    e298:	00000000 	nop
    e29c:	00000000 	nop
    e2a0:	00000000 	nop
    e2a4:	00000000 	nop
    e2a8:	00000000 	nop
    e2ac:	00000000 	nop
    e2b0:	00000000 	nop
    e2b4:	00000000 	nop
    e2b8:	00000000 	nop
    e2bc:	00000000 	nop
    e2c0:	00000000 	nop
    e2c4:	00000000 	nop
    e2c8:	00000000 	nop
    e2cc:	00000000 	nop
    e2d0:	00000000 	nop
    e2d4:	00000000 	nop
    e2d8:	00000000 	nop
    e2dc:	00000000 	nop
    e2e0:	00000000 	nop
    e2e4:	00000000 	nop
    e2e8:	00000000 	nop
    e2ec:	00000000 	nop
    e2f0:	00000000 	nop
    e2f4:	00000000 	nop
    e2f8:	00000000 	nop
    e2fc:	00000000 	nop
    e300:	00000000 	nop
    e304:	00000000 	nop
    e308:	00000000 	nop
    e30c:	00000000 	nop
    e310:	00000000 	nop
    e314:	00000000 	nop
    e318:	00000000 	nop
    e31c:	00000000 	nop
    e320:	00000000 	nop
    e324:	00000000 	nop
    e328:	00000000 	nop
    e32c:	00000000 	nop
    e330:	00000000 	nop
    e334:	00000000 	nop
    e338:	00000000 	nop
    e33c:	00000000 	nop
    e340:	00000000 	nop
    e344:	00000000 	nop
    e348:	00000000 	nop
    e34c:	00000000 	nop
    e350:	00000000 	nop
    e354:	00000000 	nop
    e358:	00000000 	nop
    e35c:	00000000 	nop
    e360:	00000000 	nop
    e364:	00000000 	nop
    e368:	00000000 	nop
    e36c:	00000000 	nop
    e370:	00000000 	nop
    e374:	00000000 	nop
    e378:	00000000 	nop
    e37c:	00000000 	nop
    e380:	00000000 	nop
    e384:	00000000 	nop
    e388:	00000000 	nop
    e38c:	00000000 	nop
    e390:	00000000 	nop
    e394:	00000000 	nop
    e398:	00000000 	nop
    e39c:	00000000 	nop
    e3a0:	00000000 	nop
    e3a4:	00000000 	nop
    e3a8:	00000000 	nop
    e3ac:	00000000 	nop
    e3b0:	00000000 	nop
    e3b4:	00000000 	nop
    e3b8:	00000000 	nop
    e3bc:	00000000 	nop
    e3c0:	00000000 	nop
    e3c4:	00000000 	nop
    e3c8:	00000000 	nop
    e3cc:	00000000 	nop
    e3d0:	00000000 	nop
    e3d4:	00000000 	nop
    e3d8:	00000000 	nop
    e3dc:	00000000 	nop
    e3e0:	00000000 	nop
    e3e4:	00000000 	nop
    e3e8:	00000000 	nop
    e3ec:	00000000 	nop
    e3f0:	00000000 	nop
    e3f4:	00000000 	nop
    e3f8:	00000000 	nop
    e3fc:	00000000 	nop
    e400:	00000000 	nop
    e404:	00000000 	nop
    e408:	00000000 	nop
    e40c:	00000000 	nop
    e410:	00000000 	nop
    e414:	00000000 	nop
    e418:	00000000 	nop
    e41c:	00000000 	nop
    e420:	00000000 	nop
    e424:	00000000 	nop
    e428:	00000000 	nop
    e42c:	00000000 	nop
    e430:	00000000 	nop
    e434:	00000000 	nop
    e438:	00000000 	nop
    e43c:	00000000 	nop
    e440:	00000000 	nop
    e444:	00000000 	nop
    e448:	00000000 	nop
    e44c:	00000000 	nop
    e450:	00000000 	nop
    e454:	00000000 	nop
    e458:	00000000 	nop
    e45c:	00000000 	nop
    e460:	00000000 	nop
    e464:	00000000 	nop
    e468:	00000000 	nop
    e46c:	00000000 	nop
    e470:	00000000 	nop
    e474:	00000000 	nop
    e478:	00000000 	nop
    e47c:	00000000 	nop
    e480:	00000000 	nop
    e484:	00000000 	nop
    e488:	00000000 	nop
    e48c:	00000000 	nop
    e490:	00000000 	nop
    e494:	00000000 	nop
    e498:	00000000 	nop
    e49c:	00000000 	nop
    e4a0:	00000000 	nop
    e4a4:	00000000 	nop
    e4a8:	00000000 	nop
    e4ac:	00000000 	nop
    e4b0:	00000000 	nop
    e4b4:	00000000 	nop
    e4b8:	00000000 	nop
    e4bc:	00000000 	nop
    e4c0:	00000000 	nop
    e4c4:	00000000 	nop
    e4c8:	00000000 	nop
    e4cc:	00000000 	nop
    e4d0:	00000000 	nop
    e4d4:	00000000 	nop
    e4d8:	00000000 	nop
    e4dc:	00000000 	nop
    e4e0:	00000000 	nop
    e4e4:	00000000 	nop
    e4e8:	00000000 	nop
    e4ec:	00000000 	nop
    e4f0:	00000000 	nop
    e4f4:	00000000 	nop
    e4f8:	00000000 	nop
    e4fc:	00000000 	nop
    e500:	00000000 	nop
    e504:	00000000 	nop
    e508:	00000000 	nop
    e50c:	00000000 	nop
    e510:	00000000 	nop
    e514:	00000000 	nop
    e518:	00000000 	nop
    e51c:	00000000 	nop
    e520:	00000000 	nop
    e524:	00000000 	nop
    e528:	00000000 	nop
    e52c:	00000000 	nop
    e530:	00000000 	nop
    e534:	00000000 	nop
    e538:	00000000 	nop
    e53c:	00000000 	nop
    e540:	00000000 	nop
    e544:	00000000 	nop
    e548:	00000000 	nop
    e54c:	00000000 	nop
    e550:	00000000 	nop
    e554:	00000000 	nop
    e558:	00000000 	nop
    e55c:	00000000 	nop
    e560:	00000000 	nop
    e564:	00000000 	nop
    e568:	00000000 	nop
    e56c:	00000000 	nop
    e570:	00000000 	nop
    e574:	00000000 	nop
    e578:	00000000 	nop
    e57c:	00000000 	nop
    e580:	00000000 	nop
    e584:	00000000 	nop
    e588:	00000000 	nop
    e58c:	00000000 	nop
    e590:	00000000 	nop
    e594:	00000000 	nop
    e598:	00000000 	nop
    e59c:	00000000 	nop
    e5a0:	00000000 	nop
    e5a4:	00000000 	nop
    e5a8:	00000000 	nop
    e5ac:	00000000 	nop
    e5b0:	00000000 	nop
    e5b4:	00000000 	nop
    e5b8:	00000000 	nop
    e5bc:	00000000 	nop
    e5c0:	00000000 	nop
    e5c4:	00000000 	nop
    e5c8:	00000000 	nop
    e5cc:	00000000 	nop
    e5d0:	00000000 	nop
    e5d4:	00000000 	nop
    e5d8:	00000000 	nop
    e5dc:	00000000 	nop
    e5e0:	00000000 	nop
    e5e4:	00000000 	nop
    e5e8:	00000000 	nop
    e5ec:	00000000 	nop
    e5f0:	00000000 	nop
    e5f4:	00000000 	nop
    e5f8:	00000000 	nop
    e5fc:	00000000 	nop
    e600:	00000000 	nop
    e604:	00000000 	nop
    e608:	00000000 	nop
    e60c:	00000000 	nop
    e610:	00000000 	nop
    e614:	00000000 	nop
    e618:	00000000 	nop
    e61c:	00000000 	nop
    e620:	00000000 	nop
    e624:	00000000 	nop
    e628:	00000000 	nop
    e62c:	00000000 	nop
    e630:	00000000 	nop
    e634:	00000000 	nop
    e638:	00000000 	nop
    e63c:	00000000 	nop
    e640:	00000000 	nop
    e644:	00000000 	nop
    e648:	00000000 	nop
    e64c:	00000000 	nop
    e650:	00000000 	nop
    e654:	00000000 	nop
    e658:	00000000 	nop
    e65c:	00000000 	nop
    e660:	00000000 	nop
    e664:	00000000 	nop
    e668:	00000000 	nop
    e66c:	00000000 	nop
    e670:	00000000 	nop
    e674:	00000000 	nop
    e678:	00000000 	nop
    e67c:	00000000 	nop
    e680:	00000000 	nop
    e684:	00000000 	nop
    e688:	00000000 	nop
    e68c:	00000000 	nop
    e690:	00000000 	nop
    e694:	00000000 	nop
    e698:	00000000 	nop
    e69c:	00000000 	nop
    e6a0:	00000000 	nop
    e6a4:	00000000 	nop
    e6a8:	00000000 	nop
    e6ac:	00000000 	nop
    e6b0:	00000000 	nop
    e6b4:	00000000 	nop
    e6b8:	00000000 	nop
    e6bc:	00000000 	nop
    e6c0:	00000000 	nop
    e6c4:	00000000 	nop
    e6c8:	00000000 	nop
    e6cc:	00000000 	nop
    e6d0:	00000000 	nop
    e6d4:	00000000 	nop
    e6d8:	00000000 	nop
    e6dc:	00000000 	nop
    e6e0:	00000000 	nop
    e6e4:	00000000 	nop
    e6e8:	00000000 	nop
    e6ec:	00000000 	nop
    e6f0:	00000000 	nop
    e6f4:	00000000 	nop
    e6f8:	00000000 	nop
    e6fc:	00000000 	nop
    e700:	00000000 	nop
    e704:	00000000 	nop
    e708:	00000000 	nop
    e70c:	00000000 	nop
    e710:	00000000 	nop
    e714:	00000000 	nop
    e718:	00000000 	nop
    e71c:	00000000 	nop
    e720:	00000000 	nop
    e724:	00000000 	nop
    e728:	00000000 	nop
    e72c:	00000000 	nop
    e730:	00000000 	nop
    e734:	00000000 	nop
    e738:	00000000 	nop
    e73c:	00000000 	nop
    e740:	00000000 	nop
    e744:	00000000 	nop
    e748:	00000000 	nop
    e74c:	00000000 	nop
    e750:	00000000 	nop
    e754:	00000000 	nop
    e758:	00000000 	nop
    e75c:	00000000 	nop
    e760:	00000000 	nop
    e764:	00000000 	nop
    e768:	00000000 	nop
    e76c:	00000000 	nop
    e770:	00000000 	nop
    e774:	00000000 	nop
    e778:	00000000 	nop
    e77c:	00000000 	nop
    e780:	00000000 	nop
    e784:	00000000 	nop
    e788:	00000000 	nop
    e78c:	00000000 	nop
    e790:	00000000 	nop
    e794:	00000000 	nop
    e798:	00000000 	nop
    e79c:	00000000 	nop
    e7a0:	00000000 	nop
    e7a4:	00000000 	nop
    e7a8:	00000000 	nop
    e7ac:	00000000 	nop
    e7b0:	00000000 	nop
    e7b4:	00000000 	nop
    e7b8:	00000000 	nop
    e7bc:	00000000 	nop
    e7c0:	00000000 	nop
    e7c4:	00000000 	nop
    e7c8:	00000000 	nop
    e7cc:	00000000 	nop
    e7d0:	00000000 	nop
    e7d4:	00000000 	nop
    e7d8:	00000000 	nop
    e7dc:	00000000 	nop
    e7e0:	00000000 	nop
    e7e4:	00000000 	nop
    e7e8:	00000000 	nop
    e7ec:	00000000 	nop
    e7f0:	00000000 	nop
    e7f4:	00000000 	nop
    e7f8:	00000000 	nop
    e7fc:	00000000 	nop
    e800:	00000000 	nop
    e804:	00000000 	nop
    e808:	00000000 	nop
    e80c:	00000000 	nop
    e810:	00000000 	nop
    e814:	00000000 	nop
    e818:	00000000 	nop
    e81c:	00000000 	nop
    e820:	00000000 	nop
    e824:	00000000 	nop
    e828:	00000000 	nop
    e82c:	00000000 	nop
    e830:	00000000 	nop
    e834:	00000000 	nop
    e838:	00000000 	nop
    e83c:	00000000 	nop
    e840:	00000000 	nop
    e844:	00000000 	nop
    e848:	00000000 	nop
    e84c:	00000000 	nop
    e850:	00000000 	nop
    e854:	00000000 	nop
    e858:	00000000 	nop
    e85c:	00000000 	nop
    e860:	00000000 	nop
    e864:	00000000 	nop
    e868:	00000000 	nop
    e86c:	00000000 	nop
    e870:	00000000 	nop
    e874:	00000000 	nop
    e878:	00000000 	nop
    e87c:	00000000 	nop
    e880:	00000000 	nop
    e884:	00000000 	nop
    e888:	00000000 	nop
    e88c:	00000000 	nop
    e890:	00000000 	nop
    e894:	00000000 	nop
    e898:	00000000 	nop
    e89c:	00000000 	nop
    e8a0:	00000000 	nop
    e8a4:	00000000 	nop
    e8a8:	00000000 	nop
    e8ac:	00000000 	nop
    e8b0:	00000000 	nop
    e8b4:	00000000 	nop
    e8b8:	00000000 	nop
    e8bc:	00000000 	nop
    e8c0:	00000000 	nop
    e8c4:	00000000 	nop
    e8c8:	00000000 	nop
    e8cc:	00000000 	nop
    e8d0:	00000000 	nop
    e8d4:	00000000 	nop
    e8d8:	00000000 	nop
    e8dc:	00000000 	nop
    e8e0:	00000000 	nop
    e8e4:	00000000 	nop
    e8e8:	00000000 	nop
    e8ec:	00000000 	nop
    e8f0:	00000000 	nop
    e8f4:	00000000 	nop
    e8f8:	00000000 	nop
    e8fc:	00000000 	nop
    e900:	00000000 	nop
    e904:	00000000 	nop
    e908:	00000000 	nop
    e90c:	00000000 	nop
    e910:	00000000 	nop
    e914:	00000000 	nop
    e918:	00000000 	nop
    e91c:	00000000 	nop
    e920:	00000000 	nop
    e924:	00000000 	nop
    e928:	00000000 	nop
    e92c:	00000000 	nop
    e930:	00000000 	nop
    e934:	00000000 	nop
    e938:	00000000 	nop
    e93c:	00000000 	nop
    e940:	00000000 	nop
    e944:	00000000 	nop
    e948:	00000000 	nop
    e94c:	00000000 	nop
    e950:	00000000 	nop
    e954:	00000000 	nop
    e958:	00000000 	nop
    e95c:	00000000 	nop
    e960:	00000000 	nop
    e964:	00000000 	nop
    e968:	00000000 	nop
    e96c:	00000000 	nop
    e970:	00000000 	nop
    e974:	00000000 	nop
    e978:	00000000 	nop
    e97c:	00000000 	nop
    e980:	00000000 	nop
    e984:	00000000 	nop
    e988:	00000000 	nop
    e98c:	00000000 	nop
    e990:	00000000 	nop
    e994:	00000000 	nop
    e998:	00000000 	nop
    e99c:	00000000 	nop
    e9a0:	00000000 	nop
    e9a4:	00000000 	nop
    e9a8:	00000000 	nop
    e9ac:	00000000 	nop
    e9b0:	00000000 	nop
    e9b4:	00000000 	nop
    e9b8:	00000000 	nop
    e9bc:	00000000 	nop
    e9c0:	00000000 	nop
    e9c4:	00000000 	nop
    e9c8:	00000000 	nop
    e9cc:	00000000 	nop
    e9d0:	00000000 	nop
    e9d4:	00000000 	nop
    e9d8:	00000000 	nop
    e9dc:	00000000 	nop
    e9e0:	00000000 	nop
    e9e4:	00000000 	nop
    e9e8:	00000000 	nop
    e9ec:	00000000 	nop
    e9f0:	00000000 	nop
    e9f4:	00000000 	nop
    e9f8:	00000000 	nop
    e9fc:	00000000 	nop
    ea00:	00000000 	nop
    ea04:	00000000 	nop
    ea08:	00000000 	nop
    ea0c:	00000000 	nop
    ea10:	00000000 	nop
    ea14:	00000000 	nop
    ea18:	00000000 	nop
    ea1c:	00000000 	nop
    ea20:	00000000 	nop
    ea24:	00000000 	nop
    ea28:	00000000 	nop
    ea2c:	00000000 	nop
    ea30:	00000000 	nop
    ea34:	00000000 	nop
    ea38:	00000000 	nop
    ea3c:	00000000 	nop
    ea40:	00000000 	nop
    ea44:	00000000 	nop
    ea48:	00000000 	nop
    ea4c:	00000000 	nop
    ea50:	00000000 	nop
    ea54:	00000000 	nop
    ea58:	00000000 	nop
    ea5c:	00000000 	nop
    ea60:	00000000 	nop
    ea64:	00000000 	nop
    ea68:	00000000 	nop
    ea6c:	00000000 	nop
    ea70:	00000000 	nop
    ea74:	00000000 	nop
    ea78:	00000000 	nop
    ea7c:	00000000 	nop
    ea80:	00000000 	nop
    ea84:	00000000 	nop
    ea88:	00000000 	nop
    ea8c:	00000000 	nop
    ea90:	00000000 	nop
    ea94:	00000000 	nop
    ea98:	00000000 	nop
    ea9c:	00000000 	nop
    eaa0:	00000000 	nop
    eaa4:	00000000 	nop
    eaa8:	00000000 	nop
    eaac:	00000000 	nop
    eab0:	00000000 	nop
    eab4:	00000000 	nop
    eab8:	00000000 	nop
    eabc:	00000000 	nop
    eac0:	00000000 	nop
    eac4:	00000000 	nop
    eac8:	00000000 	nop
    eacc:	00000000 	nop
    ead0:	00000000 	nop
    ead4:	00000000 	nop
    ead8:	00000000 	nop
    eadc:	00000000 	nop
    eae0:	00000000 	nop
    eae4:	00000000 	nop
    eae8:	00000000 	nop
    eaec:	00000000 	nop
    eaf0:	00000000 	nop
    eaf4:	00000000 	nop
    eaf8:	00000000 	nop
    eafc:	00000000 	nop
    eb00:	00000000 	nop
    eb04:	00000000 	nop
    eb08:	00000000 	nop
    eb0c:	00000000 	nop
    eb10:	00000000 	nop
    eb14:	00000000 	nop
    eb18:	00000000 	nop
    eb1c:	00000000 	nop
    eb20:	00000000 	nop
    eb24:	00000000 	nop
    eb28:	00000000 	nop
    eb2c:	00000000 	nop
    eb30:	00000000 	nop
    eb34:	00000000 	nop
    eb38:	00000000 	nop
    eb3c:	00000000 	nop
    eb40:	00000000 	nop
    eb44:	00000000 	nop
    eb48:	00000000 	nop
    eb4c:	00000000 	nop
    eb50:	00000000 	nop
    eb54:	00000000 	nop
    eb58:	00000000 	nop
    eb5c:	00000000 	nop
    eb60:	00000000 	nop
    eb64:	00000000 	nop
    eb68:	00000000 	nop
    eb6c:	00000000 	nop
    eb70:	00000000 	nop
    eb74:	00000000 	nop
    eb78:	00000000 	nop
    eb7c:	00000000 	nop
    eb80:	00000000 	nop
    eb84:	00000000 	nop
    eb88:	00000000 	nop
    eb8c:	00000000 	nop
    eb90:	00000000 	nop
    eb94:	00000000 	nop
    eb98:	00000000 	nop
    eb9c:	00000000 	nop
    eba0:	00000000 	nop
    eba4:	00000000 	nop
    eba8:	00000000 	nop
    ebac:	00000000 	nop
    ebb0:	00000000 	nop
    ebb4:	00000000 	nop
    ebb8:	00000000 	nop
    ebbc:	00000000 	nop
    ebc0:	00000000 	nop
    ebc4:	00000000 	nop
    ebc8:	00000000 	nop
    ebcc:	00000000 	nop
    ebd0:	00000000 	nop
    ebd4:	00000000 	nop
    ebd8:	00000000 	nop
    ebdc:	00000000 	nop
    ebe0:	00000000 	nop
    ebe4:	00000000 	nop
    ebe8:	00000000 	nop
    ebec:	00000000 	nop
    ebf0:	00000000 	nop
    ebf4:	00000000 	nop
    ebf8:	00000000 	nop
    ebfc:	00000000 	nop
    ec00:	00000000 	nop
    ec04:	00000000 	nop
    ec08:	00000000 	nop
    ec0c:	00000000 	nop
    ec10:	00000000 	nop
    ec14:	00000000 	nop
    ec18:	00000000 	nop
    ec1c:	00000000 	nop
    ec20:	00000000 	nop
    ec24:	00000000 	nop
    ec28:	00000000 	nop
    ec2c:	00000000 	nop
    ec30:	00000000 	nop
    ec34:	00000000 	nop
    ec38:	00000000 	nop
    ec3c:	00000000 	nop
    ec40:	00000000 	nop
    ec44:	00000000 	nop
    ec48:	00000000 	nop
    ec4c:	00000000 	nop
    ec50:	00000000 	nop
    ec54:	00000000 	nop
    ec58:	00000000 	nop
    ec5c:	00000000 	nop
    ec60:	00000000 	nop
    ec64:	00000000 	nop
    ec68:	00000000 	nop
    ec6c:	00000000 	nop
    ec70:	00000000 	nop
    ec74:	00000000 	nop
    ec78:	00000000 	nop
    ec7c:	00000000 	nop
    ec80:	00000000 	nop
    ec84:	00000000 	nop
    ec88:	00000000 	nop
    ec8c:	00000000 	nop
    ec90:	00000000 	nop
    ec94:	00000000 	nop
    ec98:	00000000 	nop
    ec9c:	00000000 	nop
    eca0:	00000000 	nop
    eca4:	00000000 	nop
    eca8:	00000000 	nop
    ecac:	00000000 	nop
    ecb0:	00000000 	nop
    ecb4:	00000000 	nop
    ecb8:	00000000 	nop
    ecbc:	00000000 	nop
    ecc0:	00000000 	nop
    ecc4:	00000000 	nop
    ecc8:	00000000 	nop
    eccc:	00000000 	nop
    ecd0:	00000000 	nop
    ecd4:	00000000 	nop
    ecd8:	00000000 	nop
    ecdc:	00000000 	nop
    ece0:	00000000 	nop
    ece4:	00000000 	nop
    ece8:	00000000 	nop
    ecec:	00000000 	nop
    ecf0:	00000000 	nop
    ecf4:	00000000 	nop
    ecf8:	00000000 	nop
    ecfc:	00000000 	nop
    ed00:	00000000 	nop
    ed04:	00000000 	nop
    ed08:	00000000 	nop
    ed0c:	00000000 	nop
    ed10:	00000000 	nop
    ed14:	00000000 	nop
    ed18:	00000000 	nop
    ed1c:	00000000 	nop
    ed20:	00000000 	nop
    ed24:	00000000 	nop
    ed28:	00000000 	nop
    ed2c:	00000000 	nop
    ed30:	00000000 	nop
    ed34:	00000000 	nop
    ed38:	00000000 	nop
    ed3c:	00000000 	nop
    ed40:	00000000 	nop
    ed44:	00000000 	nop
    ed48:	00000000 	nop
    ed4c:	00000000 	nop
    ed50:	00000000 	nop
    ed54:	00000000 	nop
    ed58:	00000000 	nop
    ed5c:	00000000 	nop
    ed60:	00000000 	nop
    ed64:	00000000 	nop
    ed68:	00000000 	nop
    ed6c:	00000000 	nop
    ed70:	00000000 	nop
    ed74:	00000000 	nop
    ed78:	00000000 	nop
    ed7c:	00000000 	nop
    ed80:	00000000 	nop
    ed84:	00000000 	nop
    ed88:	00000000 	nop
    ed8c:	00000000 	nop
    ed90:	00000000 	nop
    ed94:	00000000 	nop
    ed98:	00000000 	nop
    ed9c:	00000000 	nop
    eda0:	00000000 	nop
    eda4:	00000000 	nop
    eda8:	00000000 	nop
    edac:	00000000 	nop
    edb0:	00000000 	nop
    edb4:	00000000 	nop
    edb8:	00000000 	nop
    edbc:	00000000 	nop
    edc0:	00000000 	nop
    edc4:	00000000 	nop
    edc8:	00000000 	nop
    edcc:	00000000 	nop
    edd0:	00000000 	nop
    edd4:	00000000 	nop
    edd8:	00000000 	nop
    eddc:	00000000 	nop
    ede0:	00000000 	nop
    ede4:	00000000 	nop
    ede8:	00000000 	nop
    edec:	00000000 	nop
    edf0:	00000000 	nop
    edf4:	00000000 	nop
    edf8:	00000000 	nop
    edfc:	00000000 	nop
    ee00:	00000000 	nop
    ee04:	00000000 	nop
    ee08:	00000000 	nop
    ee0c:	00000000 	nop
    ee10:	00000000 	nop
    ee14:	00000000 	nop
    ee18:	00000000 	nop
    ee1c:	00000000 	nop
    ee20:	00000000 	nop
    ee24:	00000000 	nop
    ee28:	00000000 	nop
    ee2c:	00000000 	nop
    ee30:	00000000 	nop
    ee34:	00000000 	nop
    ee38:	00000000 	nop
    ee3c:	00000000 	nop
    ee40:	00000000 	nop
    ee44:	00000000 	nop
    ee48:	00000000 	nop
    ee4c:	00000000 	nop
    ee50:	00000000 	nop
    ee54:	00000000 	nop
    ee58:	00000000 	nop
    ee5c:	00000000 	nop
    ee60:	00000000 	nop
    ee64:	00000000 	nop
    ee68:	00000000 	nop
    ee6c:	00000000 	nop
    ee70:	00000000 	nop
    ee74:	00000000 	nop
    ee78:	00000000 	nop
    ee7c:	00000000 	nop
    ee80:	00000000 	nop
    ee84:	00000000 	nop
    ee88:	00000000 	nop
    ee8c:	00000000 	nop
    ee90:	00000000 	nop
    ee94:	00000000 	nop
    ee98:	00000000 	nop
    ee9c:	00000000 	nop
    eea0:	00000000 	nop
    eea4:	00000000 	nop
    eea8:	00000000 	nop
    eeac:	00000000 	nop
    eeb0:	00000000 	nop
    eeb4:	00000000 	nop
    eeb8:	00000000 	nop
    eebc:	00000000 	nop
    eec0:	00000000 	nop
    eec4:	00000000 	nop
    eec8:	00000000 	nop
    eecc:	00000000 	nop
    eed0:	00000000 	nop
    eed4:	00000000 	nop
    eed8:	00000000 	nop
    eedc:	00000000 	nop
    eee0:	00000000 	nop
    eee4:	00000000 	nop
    eee8:	00000000 	nop
    eeec:	00000000 	nop
    eef0:	00000000 	nop
    eef4:	00000000 	nop
    eef8:	00000000 	nop
    eefc:	00000000 	nop
    ef00:	00000000 	nop
    ef04:	00000000 	nop
    ef08:	00000000 	nop
    ef0c:	00000000 	nop
    ef10:	00000000 	nop
    ef14:	00000000 	nop
    ef18:	00000000 	nop
    ef1c:	00000000 	nop
    ef20:	00000000 	nop
    ef24:	00000000 	nop
    ef28:	00000000 	nop
    ef2c:	00000000 	nop
    ef30:	00000000 	nop
    ef34:	00000000 	nop
    ef38:	00000000 	nop
    ef3c:	00000000 	nop
    ef40:	00000000 	nop
    ef44:	00000000 	nop
    ef48:	00000000 	nop
    ef4c:	00000000 	nop
    ef50:	00000000 	nop
    ef54:	00000000 	nop
    ef58:	00000000 	nop
    ef5c:	00000000 	nop
    ef60:	00000000 	nop
    ef64:	00000000 	nop
    ef68:	00000000 	nop
    ef6c:	00000000 	nop
    ef70:	00000000 	nop
    ef74:	00000000 	nop
    ef78:	00000000 	nop
    ef7c:	00000000 	nop
    ef80:	00000000 	nop
    ef84:	00000000 	nop
    ef88:	00000000 	nop
    ef8c:	00000000 	nop
    ef90:	00000000 	nop
    ef94:	00000000 	nop
    ef98:	00000000 	nop
    ef9c:	00000000 	nop
    efa0:	00000000 	nop
    efa4:	00000000 	nop
    efa8:	00000000 	nop
    efac:	00000000 	nop
    efb0:	00000000 	nop
    efb4:	00000000 	nop
    efb8:	00000000 	nop
    efbc:	00000000 	nop
    efc0:	00000000 	nop
    efc4:	00000000 	nop
    efc8:	00000000 	nop
    efcc:	00000000 	nop
    efd0:	00000000 	nop
    efd4:	00000000 	nop
    efd8:	00000000 	nop
    efdc:	00000000 	nop
    efe0:	00000000 	nop
    efe4:	00000000 	nop
    efe8:	00000000 	nop
    efec:	00000000 	nop
    eff0:	00000000 	nop
    eff4:	00000000 	nop
    eff8:	00000000 	nop
    effc:	00000000 	nop
    f000:	00000000 	nop
    f004:	00000000 	nop
    f008:	00000000 	nop
    f00c:	00000000 	nop
    f010:	00000000 	nop
    f014:	00000000 	nop
    f018:	00000000 	nop
    f01c:	00000000 	nop
    f020:	00000000 	nop
    f024:	00000000 	nop
    f028:	00000000 	nop
    f02c:	00000000 	nop
    f030:	00000000 	nop
    f034:	00000000 	nop
    f038:	00000000 	nop
    f03c:	00000000 	nop
    f040:	00000000 	nop
    f044:	00000000 	nop
    f048:	00000000 	nop
    f04c:	00000000 	nop
    f050:	00000000 	nop
    f054:	00000000 	nop
    f058:	00000000 	nop
    f05c:	00000000 	nop
    f060:	00000000 	nop
    f064:	00000000 	nop
    f068:	00000000 	nop
    f06c:	00000000 	nop
    f070:	00000000 	nop
    f074:	00000000 	nop
    f078:	00000000 	nop
    f07c:	00000000 	nop
    f080:	00000000 	nop
    f084:	00000000 	nop
    f088:	00000000 	nop
    f08c:	00000000 	nop
    f090:	00000000 	nop
    f094:	00000000 	nop
    f098:	00000000 	nop
    f09c:	00000000 	nop
    f0a0:	00000000 	nop
    f0a4:	00000000 	nop
    f0a8:	00000000 	nop
    f0ac:	00000000 	nop
    f0b0:	00000000 	nop
    f0b4:	00000000 	nop
    f0b8:	00000000 	nop
    f0bc:	00000000 	nop
    f0c0:	00000000 	nop
    f0c4:	00000000 	nop
    f0c8:	00000000 	nop
    f0cc:	00000000 	nop
    f0d0:	00000000 	nop
    f0d4:	00000000 	nop
    f0d8:	00000000 	nop
    f0dc:	00000000 	nop
    f0e0:	00000000 	nop
    f0e4:	00000000 	nop
    f0e8:	00000000 	nop
    f0ec:	00000000 	nop
    f0f0:	00000000 	nop
    f0f4:	00000000 	nop
    f0f8:	00000000 	nop
    f0fc:	00000000 	nop
    f100:	00000000 	nop
    f104:	00000000 	nop
    f108:	00000000 	nop
    f10c:	00000000 	nop
    f110:	00000000 	nop
    f114:	00000000 	nop
    f118:	00000000 	nop
    f11c:	00000000 	nop
    f120:	00000000 	nop
    f124:	00000000 	nop
    f128:	00000000 	nop
    f12c:	00000000 	nop
    f130:	00000000 	nop
    f134:	00000000 	nop
    f138:	00000000 	nop
    f13c:	00000000 	nop
    f140:	00000000 	nop
    f144:	00000000 	nop
    f148:	00000000 	nop
    f14c:	00000000 	nop
    f150:	00000000 	nop
    f154:	00000000 	nop
    f158:	00000000 	nop
    f15c:	00000000 	nop
    f160:	00000000 	nop
    f164:	00000000 	nop
    f168:	00000000 	nop
    f16c:	00000000 	nop
    f170:	00000000 	nop
    f174:	00000000 	nop
    f178:	00000000 	nop
    f17c:	00000000 	nop
    f180:	00000000 	nop
    f184:	00000000 	nop
    f188:	00000000 	nop
    f18c:	00000000 	nop
    f190:	00000000 	nop
    f194:	00000000 	nop
    f198:	00000000 	nop
    f19c:	00000000 	nop
    f1a0:	00000000 	nop
    f1a4:	00000000 	nop
    f1a8:	00000000 	nop
    f1ac:	00000000 	nop
    f1b0:	00000000 	nop
    f1b4:	00000000 	nop
    f1b8:	00000000 	nop
    f1bc:	00000000 	nop
    f1c0:	00000000 	nop
    f1c4:	00000000 	nop
    f1c8:	00000000 	nop
    f1cc:	00000000 	nop
    f1d0:	00000000 	nop
    f1d4:	00000000 	nop
    f1d8:	00000000 	nop
    f1dc:	00000000 	nop
    f1e0:	00000000 	nop
    f1e4:	00000000 	nop
    f1e8:	00000000 	nop
    f1ec:	00000000 	nop
    f1f0:	00000000 	nop
    f1f4:	00000000 	nop
    f1f8:	00000000 	nop
    f1fc:	00000000 	nop
    f200:	00000000 	nop
    f204:	00000000 	nop
    f208:	00000000 	nop
    f20c:	00000000 	nop
    f210:	00000000 	nop
    f214:	00000000 	nop
    f218:	00000000 	nop
    f21c:	00000000 	nop
    f220:	00000000 	nop
    f224:	00000000 	nop
    f228:	00000000 	nop
    f22c:	00000000 	nop
    f230:	00000000 	nop
    f234:	00000000 	nop
    f238:	00000000 	nop
    f23c:	00000000 	nop
    f240:	00000000 	nop
    f244:	00000000 	nop
    f248:	00000000 	nop
    f24c:	00000000 	nop
    f250:	00000000 	nop
    f254:	00000000 	nop
    f258:	00000000 	nop
    f25c:	00000000 	nop
    f260:	00000000 	nop
    f264:	00000000 	nop
    f268:	00000000 	nop
    f26c:	00000000 	nop
    f270:	00000000 	nop
    f274:	00000000 	nop
    f278:	00000000 	nop
    f27c:	00000000 	nop
    f280:	00000000 	nop
    f284:	00000000 	nop
    f288:	00000000 	nop
    f28c:	00000000 	nop
    f290:	00000000 	nop
    f294:	00000000 	nop
    f298:	00000000 	nop
    f29c:	00000000 	nop
    f2a0:	00000000 	nop
    f2a4:	00000000 	nop
    f2a8:	00000000 	nop
    f2ac:	00000000 	nop
    f2b0:	00000000 	nop
    f2b4:	00000000 	nop
    f2b8:	00000000 	nop
    f2bc:	00000000 	nop
    f2c0:	00000000 	nop
    f2c4:	00000000 	nop
    f2c8:	00000000 	nop
    f2cc:	00000000 	nop
    f2d0:	00000000 	nop
    f2d4:	00000000 	nop
    f2d8:	00000000 	nop
    f2dc:	00000000 	nop
    f2e0:	00000000 	nop
    f2e4:	00000000 	nop
    f2e8:	00000000 	nop
    f2ec:	00000000 	nop
    f2f0:	00000000 	nop
    f2f4:	00000000 	nop
    f2f8:	00000000 	nop
    f2fc:	00000000 	nop
    f300:	00000000 	nop
    f304:	00000000 	nop
    f308:	00000000 	nop
    f30c:	00000000 	nop
    f310:	00000000 	nop
    f314:	00000000 	nop
    f318:	00000000 	nop
    f31c:	00000000 	nop
    f320:	00000000 	nop
    f324:	00000000 	nop
    f328:	00000000 	nop
    f32c:	00000000 	nop
    f330:	00000000 	nop
    f334:	00000000 	nop
    f338:	00000000 	nop
    f33c:	00000000 	nop
    f340:	00000000 	nop
    f344:	00000000 	nop
    f348:	00000000 	nop
    f34c:	00000000 	nop
    f350:	00000000 	nop
    f354:	00000000 	nop
    f358:	00000000 	nop
    f35c:	00000000 	nop
    f360:	00000000 	nop
    f364:	00000000 	nop
    f368:	00000000 	nop
    f36c:	00000000 	nop
    f370:	00000000 	nop
    f374:	00000000 	nop
    f378:	00000000 	nop
    f37c:	00000000 	nop
    f380:	00000000 	nop
    f384:	00000000 	nop
    f388:	00000000 	nop
    f38c:	00000000 	nop
    f390:	00000000 	nop
    f394:	00000000 	nop
    f398:	00000000 	nop
    f39c:	00000000 	nop
    f3a0:	00000000 	nop
    f3a4:	00000000 	nop
    f3a8:	00000000 	nop
    f3ac:	00000000 	nop
    f3b0:	00000000 	nop
    f3b4:	00000000 	nop
    f3b8:	00000000 	nop
    f3bc:	00000000 	nop
    f3c0:	00000000 	nop
    f3c4:	00000000 	nop
    f3c8:	00000000 	nop
    f3cc:	00000000 	nop
    f3d0:	00000000 	nop
    f3d4:	00000000 	nop
    f3d8:	00000000 	nop
    f3dc:	00000000 	nop
    f3e0:	00000000 	nop
    f3e4:	00000000 	nop
    f3e8:	00000000 	nop
    f3ec:	00000000 	nop
    f3f0:	00000000 	nop
    f3f4:	00000000 	nop
    f3f8:	00000000 	nop
    f3fc:	00000000 	nop
    f400:	00000000 	nop
    f404:	00000000 	nop
    f408:	00000000 	nop
    f40c:	00000000 	nop
    f410:	00000000 	nop
    f414:	00000000 	nop
    f418:	00000000 	nop
    f41c:	00000000 	nop
    f420:	00000000 	nop
    f424:	00000000 	nop
    f428:	00000000 	nop
    f42c:	00000000 	nop
    f430:	00000000 	nop
    f434:	00000000 	nop
    f438:	00000000 	nop
    f43c:	00000000 	nop
    f440:	00000000 	nop
    f444:	00000000 	nop
    f448:	00000000 	nop
    f44c:	00000000 	nop
    f450:	00000000 	nop
    f454:	00000000 	nop
    f458:	00000000 	nop
    f45c:	00000000 	nop
    f460:	00000000 	nop
    f464:	00000000 	nop
    f468:	00000000 	nop
    f46c:	00000000 	nop
    f470:	00000000 	nop
    f474:	00000000 	nop
    f478:	00000000 	nop
    f47c:	00000000 	nop
    f480:	00000000 	nop
    f484:	00000000 	nop
    f488:	00000000 	nop
    f48c:	00000000 	nop
    f490:	00000000 	nop
    f494:	00000000 	nop
    f498:	00000000 	nop
    f49c:	00000000 	nop
    f4a0:	00000000 	nop
    f4a4:	00000000 	nop
    f4a8:	00000000 	nop
    f4ac:	00000000 	nop
    f4b0:	00000000 	nop
    f4b4:	00000000 	nop
    f4b8:	00000000 	nop
    f4bc:	00000000 	nop
    f4c0:	00000000 	nop
    f4c4:	00000000 	nop
    f4c8:	00000000 	nop
    f4cc:	00000000 	nop
    f4d0:	00000000 	nop
    f4d4:	00000000 	nop
    f4d8:	00000000 	nop
    f4dc:	00000000 	nop
    f4e0:	00000000 	nop
    f4e4:	00000000 	nop
    f4e8:	00000000 	nop
    f4ec:	00000000 	nop
    f4f0:	00000000 	nop
    f4f4:	00000000 	nop
    f4f8:	00000000 	nop
    f4fc:	00000000 	nop
    f500:	00000000 	nop
    f504:	00000000 	nop
    f508:	00000000 	nop
    f50c:	00000000 	nop
    f510:	00000000 	nop
    f514:	00000000 	nop
    f518:	00000000 	nop
    f51c:	00000000 	nop
    f520:	00000000 	nop
    f524:	00000000 	nop
    f528:	00000000 	nop
    f52c:	00000000 	nop
    f530:	00000000 	nop
    f534:	00000000 	nop
    f538:	00000000 	nop
    f53c:	00000000 	nop
    f540:	00000000 	nop
    f544:	00000000 	nop
    f548:	00000000 	nop
    f54c:	00000000 	nop
    f550:	00000000 	nop
    f554:	00000000 	nop
    f558:	00000000 	nop
    f55c:	00000000 	nop
    f560:	00000000 	nop
    f564:	00000000 	nop
    f568:	00000000 	nop
    f56c:	00000000 	nop
    f570:	00000000 	nop
    f574:	00000000 	nop
    f578:	00000000 	nop
    f57c:	00000000 	nop
    f580:	00000000 	nop
    f584:	00000000 	nop
    f588:	00000000 	nop
    f58c:	00000000 	nop
    f590:	00000000 	nop
    f594:	00000000 	nop
    f598:	00000000 	nop
    f59c:	00000000 	nop
    f5a0:	00000000 	nop
    f5a4:	00000000 	nop
    f5a8:	00000000 	nop
    f5ac:	00000000 	nop
    f5b0:	00000000 	nop
    f5b4:	00000000 	nop
    f5b8:	00000000 	nop
    f5bc:	00000000 	nop
    f5c0:	00000000 	nop
    f5c4:	00000000 	nop
    f5c8:	00000000 	nop
    f5cc:	00000000 	nop
    f5d0:	00000000 	nop
    f5d4:	00000000 	nop
    f5d8:	00000000 	nop
    f5dc:	00000000 	nop
    f5e0:	00000000 	nop
    f5e4:	00000000 	nop
    f5e8:	00000000 	nop
    f5ec:	00000000 	nop
    f5f0:	00000000 	nop
    f5f4:	00000000 	nop
    f5f8:	00000000 	nop
    f5fc:	00000000 	nop
    f600:	00000000 	nop
    f604:	00000000 	nop
    f608:	00000000 	nop
    f60c:	00000000 	nop
    f610:	00000000 	nop
    f614:	00000000 	nop
    f618:	00000000 	nop
    f61c:	00000000 	nop
    f620:	00000000 	nop
    f624:	00000000 	nop
    f628:	00000000 	nop
    f62c:	00000000 	nop
    f630:	00000000 	nop
    f634:	00000000 	nop
    f638:	00000000 	nop
    f63c:	00000000 	nop
    f640:	00000000 	nop
    f644:	00000000 	nop
    f648:	00000000 	nop
    f64c:	00000000 	nop
    f650:	00000000 	nop
    f654:	00000000 	nop
    f658:	00000000 	nop
    f65c:	00000000 	nop
    f660:	00000000 	nop
    f664:	00000000 	nop
    f668:	00000000 	nop
    f66c:	00000000 	nop
    f670:	00000000 	nop
    f674:	00000000 	nop
    f678:	00000000 	nop
    f67c:	00000000 	nop
    f680:	00000000 	nop
    f684:	00000000 	nop
    f688:	00000000 	nop
    f68c:	00000000 	nop
    f690:	00000000 	nop
    f694:	00000000 	nop
    f698:	00000000 	nop
    f69c:	00000000 	nop
    f6a0:	00000000 	nop
    f6a4:	00000000 	nop
    f6a8:	00000000 	nop
    f6ac:	00000000 	nop
    f6b0:	00000000 	nop
    f6b4:	00000000 	nop
    f6b8:	00000000 	nop
    f6bc:	00000000 	nop
    f6c0:	00000000 	nop
    f6c4:	00000000 	nop
    f6c8:	00000000 	nop
    f6cc:	00000000 	nop
    f6d0:	00000000 	nop
    f6d4:	00000000 	nop
    f6d8:	00000000 	nop
    f6dc:	00000000 	nop
    f6e0:	00000000 	nop
    f6e4:	00000000 	nop
    f6e8:	00000000 	nop
    f6ec:	00000000 	nop
    f6f0:	00000000 	nop
    f6f4:	00000000 	nop
    f6f8:	00000000 	nop
    f6fc:	00000000 	nop
    f700:	00000000 	nop
    f704:	00000000 	nop
    f708:	00000000 	nop
    f70c:	00000000 	nop
    f710:	00000000 	nop
    f714:	00000000 	nop
    f718:	00000000 	nop
    f71c:	00000000 	nop
    f720:	00000000 	nop
    f724:	00000000 	nop
    f728:	00000000 	nop
    f72c:	00000000 	nop
    f730:	00000000 	nop
    f734:	00000000 	nop
    f738:	00000000 	nop
    f73c:	00000000 	nop
    f740:	00000000 	nop
    f744:	00000000 	nop
    f748:	00000000 	nop
    f74c:	00000000 	nop
    f750:	00000000 	nop
    f754:	00000000 	nop
    f758:	00000000 	nop
    f75c:	00000000 	nop
    f760:	00000000 	nop
    f764:	00000000 	nop
    f768:	00000000 	nop
    f76c:	00000000 	nop
    f770:	00000000 	nop
    f774:	00000000 	nop
    f778:	00000000 	nop
    f77c:	00000000 	nop
    f780:	00000000 	nop
    f784:	00000000 	nop
    f788:	00000000 	nop
    f78c:	00000000 	nop
    f790:	00000000 	nop
    f794:	00000000 	nop
    f798:	00000000 	nop
    f79c:	00000000 	nop
    f7a0:	00000000 	nop
    f7a4:	00000000 	nop
    f7a8:	00000000 	nop
    f7ac:	00000000 	nop
    f7b0:	00000000 	nop
    f7b4:	00000000 	nop
    f7b8:	00000000 	nop
    f7bc:	00000000 	nop
    f7c0:	00000000 	nop
    f7c4:	00000000 	nop
    f7c8:	00000000 	nop
    f7cc:	00000000 	nop
    f7d0:	00000000 	nop
    f7d4:	00000000 	nop
    f7d8:	00000000 	nop
    f7dc:	00000000 	nop
    f7e0:	00000000 	nop
    f7e4:	00000000 	nop
    f7e8:	00000000 	nop
    f7ec:	00000000 	nop
    f7f0:	00000000 	nop
    f7f4:	00000000 	nop
    f7f8:	00000000 	nop
    f7fc:	00000000 	nop
    f800:	00000000 	nop
    f804:	00000000 	nop
    f808:	00000000 	nop
    f80c:	00000000 	nop
    f810:	00000000 	nop
    f814:	00000000 	nop
    f818:	00000000 	nop
    f81c:	00000000 	nop
    f820:	00000000 	nop
    f824:	00000000 	nop
    f828:	00000000 	nop
    f82c:	00000000 	nop
    f830:	00000000 	nop
    f834:	00000000 	nop
    f838:	00000000 	nop
    f83c:	00000000 	nop
    f840:	00000000 	nop
    f844:	00000000 	nop
    f848:	00000000 	nop
    f84c:	00000000 	nop
    f850:	00000000 	nop
    f854:	00000000 	nop
    f858:	00000000 	nop
    f85c:	00000000 	nop
    f860:	00000000 	nop
    f864:	00000000 	nop
    f868:	00000000 	nop
    f86c:	00000000 	nop
    f870:	00000000 	nop
    f874:	00000000 	nop
    f878:	00000000 	nop
    f87c:	00000000 	nop
    f880:	00000000 	nop
    f884:	00000000 	nop
    f888:	00000000 	nop
    f88c:	00000000 	nop
    f890:	00000000 	nop
    f894:	00000000 	nop
    f898:	00000000 	nop
    f89c:	00000000 	nop
    f8a0:	00000000 	nop
    f8a4:	00000000 	nop
    f8a8:	00000000 	nop
    f8ac:	00000000 	nop
    f8b0:	00000000 	nop
    f8b4:	00000000 	nop
    f8b8:	00000000 	nop
    f8bc:	00000000 	nop
    f8c0:	00000000 	nop
    f8c4:	00000000 	nop
    f8c8:	00000000 	nop
    f8cc:	00000000 	nop
    f8d0:	00000000 	nop
    f8d4:	00000000 	nop
    f8d8:	00000000 	nop
    f8dc:	00000000 	nop
    f8e0:	00000000 	nop
    f8e4:	00000000 	nop
    f8e8:	00000000 	nop
    f8ec:	00000000 	nop
    f8f0:	00000000 	nop
    f8f4:	00000000 	nop
    f8f8:	00000000 	nop
    f8fc:	00000000 	nop
    f900:	00000000 	nop
    f904:	00000000 	nop
    f908:	00000000 	nop
    f90c:	00000000 	nop
    f910:	00000000 	nop
    f914:	00000000 	nop
    f918:	00000000 	nop
    f91c:	00000000 	nop
    f920:	00000000 	nop
    f924:	00000000 	nop
    f928:	00000000 	nop
    f92c:	00000000 	nop
    f930:	00000000 	nop
    f934:	00000000 	nop
    f938:	00000000 	nop
    f93c:	00000000 	nop
    f940:	00000000 	nop
    f944:	00000000 	nop
    f948:	00000000 	nop
    f94c:	00000000 	nop
    f950:	00000000 	nop
    f954:	00000000 	nop
    f958:	00000000 	nop
    f95c:	00000000 	nop
    f960:	00000000 	nop
    f964:	00000000 	nop
    f968:	00000000 	nop
    f96c:	00000000 	nop
    f970:	00000000 	nop
    f974:	00000000 	nop
    f978:	00000000 	nop
    f97c:	00000000 	nop
    f980:	00000000 	nop
    f984:	00000000 	nop
    f988:	00000000 	nop
    f98c:	00000000 	nop
    f990:	00000000 	nop
    f994:	00000000 	nop
    f998:	00000000 	nop
    f99c:	00000000 	nop
    f9a0:	00000000 	nop
    f9a4:	00000000 	nop
    f9a8:	00000000 	nop
    f9ac:	00000000 	nop
    f9b0:	00000000 	nop
    f9b4:	00000000 	nop
    f9b8:	00000000 	nop
    f9bc:	00000000 	nop
    f9c0:	00000000 	nop
    f9c4:	00000000 	nop
    f9c8:	00000000 	nop
    f9cc:	00000000 	nop
    f9d0:	00000000 	nop
    f9d4:	00000000 	nop
    f9d8:	00000000 	nop
    f9dc:	00000000 	nop
    f9e0:	00000000 	nop
    f9e4:	00000000 	nop
    f9e8:	00000000 	nop
    f9ec:	00000000 	nop
    f9f0:	00000000 	nop
    f9f4:	00000000 	nop
    f9f8:	00000000 	nop
    f9fc:	00000000 	nop
    fa00:	00000000 	nop
    fa04:	00000000 	nop
    fa08:	00000000 	nop
    fa0c:	00000000 	nop
    fa10:	00000000 	nop
    fa14:	00000000 	nop
    fa18:	00000000 	nop
    fa1c:	00000000 	nop
    fa20:	00000000 	nop
    fa24:	00000000 	nop
    fa28:	00000000 	nop
    fa2c:	00000000 	nop
    fa30:	00000000 	nop
    fa34:	00000000 	nop
    fa38:	00000000 	nop
    fa3c:	00000000 	nop
    fa40:	00000000 	nop
    fa44:	00000000 	nop
    fa48:	00000000 	nop
    fa4c:	00000000 	nop
    fa50:	00000000 	nop
    fa54:	00000000 	nop
    fa58:	00000000 	nop
    fa5c:	00000000 	nop
    fa60:	00000000 	nop
    fa64:	00000000 	nop
    fa68:	00000000 	nop
    fa6c:	00000000 	nop
    fa70:	00000000 	nop
    fa74:	00000000 	nop
    fa78:	00000000 	nop
    fa7c:	00000000 	nop
    fa80:	00000000 	nop
    fa84:	00000000 	nop
    fa88:	00000000 	nop
    fa8c:	00000000 	nop
    fa90:	00000000 	nop
    fa94:	00000000 	nop
    fa98:	00000000 	nop
    fa9c:	00000000 	nop
    faa0:	00000000 	nop
    faa4:	00000000 	nop
    faa8:	00000000 	nop
    faac:	00000000 	nop
    fab0:	00000000 	nop
    fab4:	00000000 	nop
    fab8:	00000000 	nop
    fabc:	00000000 	nop
    fac0:	00000000 	nop
    fac4:	00000000 	nop
    fac8:	00000000 	nop
    facc:	00000000 	nop
    fad0:	00000000 	nop
    fad4:	00000000 	nop
    fad8:	00000000 	nop
    fadc:	00000000 	nop
    fae0:	00000000 	nop
    fae4:	00000000 	nop
    fae8:	00000000 	nop
    faec:	00000000 	nop
    faf0:	00000000 	nop
    faf4:	00000000 	nop
    faf8:	00000000 	nop
    fafc:	00000000 	nop
    fb00:	00000000 	nop
    fb04:	00000000 	nop
    fb08:	00000000 	nop
    fb0c:	00000000 	nop
    fb10:	00000000 	nop
    fb14:	00000000 	nop
    fb18:	00000000 	nop
    fb1c:	00000000 	nop
    fb20:	00000000 	nop
    fb24:	00000000 	nop
    fb28:	00000000 	nop
    fb2c:	00000000 	nop
    fb30:	00000000 	nop
    fb34:	00000000 	nop
    fb38:	00000000 	nop
    fb3c:	00000000 	nop
    fb40:	00000000 	nop
    fb44:	00000000 	nop
    fb48:	00000000 	nop
    fb4c:	00000000 	nop
    fb50:	00000000 	nop
    fb54:	00000000 	nop
    fb58:	00000000 	nop
    fb5c:	00000000 	nop
    fb60:	00000000 	nop
    fb64:	00000000 	nop
    fb68:	00000000 	nop
    fb6c:	00000000 	nop
    fb70:	00000000 	nop
    fb74:	00000000 	nop
    fb78:	00000000 	nop
    fb7c:	00000000 	nop
    fb80:	00000000 	nop
    fb84:	00000000 	nop
    fb88:	00000000 	nop
    fb8c:	00000000 	nop
    fb90:	00000000 	nop
    fb94:	00000000 	nop
    fb98:	00000000 	nop
    fb9c:	00000000 	nop
    fba0:	00000000 	nop
    fba4:	00000000 	nop
    fba8:	00000000 	nop
    fbac:	00000000 	nop
    fbb0:	00000000 	nop
    fbb4:	00000000 	nop
    fbb8:	00000000 	nop
    fbbc:	00000000 	nop
    fbc0:	00000000 	nop
    fbc4:	00000000 	nop
    fbc8:	00000000 	nop
    fbcc:	00000000 	nop
    fbd0:	00000000 	nop
    fbd4:	00000000 	nop
    fbd8:	00000000 	nop
    fbdc:	00000000 	nop
    fbe0:	00000000 	nop
    fbe4:	00000000 	nop
    fbe8:	00000000 	nop
    fbec:	00000000 	nop
    fbf0:	00000000 	nop
    fbf4:	00000000 	nop
    fbf8:	00000000 	nop
    fbfc:	00000000 	nop
    fc00:	00000000 	nop
    fc04:	00000000 	nop
    fc08:	00000000 	nop
    fc0c:	00000000 	nop
    fc10:	00000000 	nop
    fc14:	00000000 	nop
    fc18:	00000000 	nop
    fc1c:	00000000 	nop
    fc20:	00000000 	nop
    fc24:	00000000 	nop
    fc28:	00000000 	nop
    fc2c:	00000000 	nop
    fc30:	00000000 	nop
    fc34:	00000000 	nop
    fc38:	00000000 	nop
    fc3c:	00000000 	nop
    fc40:	00000000 	nop
    fc44:	00000000 	nop
    fc48:	00000000 	nop
    fc4c:	00000000 	nop
    fc50:	00000000 	nop
    fc54:	00000000 	nop
    fc58:	00000000 	nop
    fc5c:	00000000 	nop
    fc60:	00000000 	nop
    fc64:	00000000 	nop
    fc68:	00000000 	nop
    fc6c:	00000000 	nop
    fc70:	00000000 	nop
    fc74:	00000000 	nop
    fc78:	00000000 	nop
    fc7c:	00000000 	nop
    fc80:	00000000 	nop
    fc84:	00000000 	nop
    fc88:	00000000 	nop
    fc8c:	00000000 	nop
    fc90:	00000000 	nop
    fc94:	00000000 	nop
    fc98:	00000000 	nop
    fc9c:	00000000 	nop
    fca0:	00000000 	nop
    fca4:	00000000 	nop
    fca8:	00000000 	nop
    fcac:	00000000 	nop
    fcb0:	00000000 	nop
    fcb4:	00000000 	nop
    fcb8:	00000000 	nop
    fcbc:	00000000 	nop
    fcc0:	00000000 	nop
    fcc4:	00000000 	nop
    fcc8:	00000000 	nop
    fccc:	00000000 	nop
    fcd0:	00000000 	nop
    fcd4:	00000000 	nop
    fcd8:	00000000 	nop
    fcdc:	00000000 	nop
    fce0:	00000000 	nop
    fce4:	00000000 	nop
    fce8:	00000000 	nop
    fcec:	00000000 	nop
    fcf0:	00000000 	nop
    fcf4:	00000000 	nop
    fcf8:	00000000 	nop
    fcfc:	00000000 	nop
    fd00:	00000000 	nop
    fd04:	00000000 	nop
    fd08:	00000000 	nop
    fd0c:	00000000 	nop
    fd10:	00000000 	nop
    fd14:	00000000 	nop
    fd18:	00000000 	nop
    fd1c:	00000000 	nop
    fd20:	00000000 	nop
    fd24:	00000000 	nop
    fd28:	00000000 	nop
    fd2c:	00000000 	nop
    fd30:	00000000 	nop
    fd34:	00000000 	nop
    fd38:	00000000 	nop
    fd3c:	00000000 	nop
    fd40:	00000000 	nop
    fd44:	00000000 	nop
    fd48:	00000000 	nop
    fd4c:	00000000 	nop
    fd50:	00000000 	nop
    fd54:	00000000 	nop
    fd58:	00000000 	nop
    fd5c:	00000000 	nop
    fd60:	00000000 	nop
    fd64:	00000000 	nop
    fd68:	00000000 	nop
    fd6c:	00000000 	nop
    fd70:	00000000 	nop
    fd74:	00000000 	nop
    fd78:	00000000 	nop
    fd7c:	00000000 	nop
    fd80:	00000000 	nop
    fd84:	00000000 	nop
    fd88:	00000000 	nop
    fd8c:	00000000 	nop
    fd90:	00000000 	nop
    fd94:	00000000 	nop
    fd98:	00000000 	nop
    fd9c:	00000000 	nop
    fda0:	00000000 	nop
    fda4:	00000000 	nop
    fda8:	00000000 	nop
    fdac:	00000000 	nop
    fdb0:	00000000 	nop
    fdb4:	00000000 	nop
    fdb8:	00000000 	nop
    fdbc:	00000000 	nop
    fdc0:	00000000 	nop
    fdc4:	00000000 	nop
    fdc8:	00000000 	nop
    fdcc:	00000000 	nop
    fdd0:	00000000 	nop
    fdd4:	00000000 	nop
    fdd8:	00000000 	nop
    fddc:	00000000 	nop
    fde0:	00000000 	nop
    fde4:	00000000 	nop
    fde8:	00000000 	nop
    fdec:	00000000 	nop
    fdf0:	00000000 	nop
    fdf4:	00000000 	nop
    fdf8:	00000000 	nop
    fdfc:	00000000 	nop
    fe00:	00000000 	nop
    fe04:	00000000 	nop
    fe08:	00000000 	nop
    fe0c:	00000000 	nop
    fe10:	00000000 	nop
    fe14:	00000000 	nop
    fe18:	00000000 	nop
    fe1c:	00000000 	nop
    fe20:	00000000 	nop
    fe24:	00000000 	nop
    fe28:	00000000 	nop
    fe2c:	00000000 	nop
    fe30:	00000000 	nop
    fe34:	00000000 	nop
    fe38:	00000000 	nop
    fe3c:	00000000 	nop
    fe40:	00000000 	nop
    fe44:	00000000 	nop
    fe48:	00000000 	nop
    fe4c:	00000000 	nop
    fe50:	00000000 	nop
    fe54:	00000000 	nop
    fe58:	00000000 	nop
    fe5c:	00000000 	nop
    fe60:	00000000 	nop
    fe64:	00000000 	nop
    fe68:	00000000 	nop
    fe6c:	00000000 	nop
    fe70:	00000000 	nop
    fe74:	00000000 	nop
    fe78:	00000000 	nop
    fe7c:	00000000 	nop
    fe80:	00000000 	nop
    fe84:	00000000 	nop
    fe88:	00000000 	nop
    fe8c:	00000000 	nop
    fe90:	00000000 	nop
    fe94:	00000000 	nop
    fe98:	00000000 	nop
    fe9c:	00000000 	nop
    fea0:	00000000 	nop
    fea4:	00000000 	nop
    fea8:	00000000 	nop
    feac:	00000000 	nop
    feb0:	00000000 	nop
    feb4:	00000000 	nop
    feb8:	00000000 	nop
    febc:	00000000 	nop
    fec0:	00000000 	nop
    fec4:	00000000 	nop
    fec8:	00000000 	nop
    fecc:	00000000 	nop
    fed0:	00000000 	nop
    fed4:	00000000 	nop
    fed8:	00000000 	nop
    fedc:	00000000 	nop
    fee0:	00000000 	nop
    fee4:	00000000 	nop
    fee8:	00000000 	nop
    feec:	00000000 	nop
    fef0:	00000000 	nop
    fef4:	00000000 	nop
    fef8:	00000000 	nop
    fefc:	00000000 	nop
    ff00:	00000000 	nop
    ff04:	00000000 	nop
    ff08:	00000000 	nop
    ff0c:	00000000 	nop
    ff10:	00000000 	nop
    ff14:	00000000 	nop
    ff18:	00000000 	nop
    ff1c:	00000000 	nop
    ff20:	00000000 	nop
    ff24:	00000000 	nop
    ff28:	00000000 	nop
    ff2c:	00000000 	nop
    ff30:	00000000 	nop
    ff34:	00000000 	nop
    ff38:	00000000 	nop
    ff3c:	00000000 	nop
    ff40:	00000000 	nop
    ff44:	00000000 	nop
    ff48:	00000000 	nop
    ff4c:	00000000 	nop
    ff50:	00000000 	nop
    ff54:	00000000 	nop
    ff58:	00000000 	nop
    ff5c:	00000000 	nop
    ff60:	00000000 	nop
    ff64:	00000000 	nop
    ff68:	00000000 	nop
    ff6c:	00000000 	nop
    ff70:	00000000 	nop
    ff74:	00000000 	nop
    ff78:	00000000 	nop
    ff7c:	00000000 	nop
    ff80:	00000000 	nop
    ff84:	00000000 	nop
    ff88:	00000000 	nop
    ff8c:	00000000 	nop
    ff90:	00000000 	nop
    ff94:	00000000 	nop
    ff98:	00000000 	nop
    ff9c:	00000000 	nop
    ffa0:	00000000 	nop
    ffa4:	00000000 	nop
    ffa8:	00000000 	nop
    ffac:	00000000 	nop
    ffb0:	00000000 	nop
    ffb4:	00000000 	nop
    ffb8:	00000000 	nop
    ffbc:	00000000 	nop
    ffc0:	00000000 	nop
    ffc4:	00000000 	nop
    ffc8:	00000000 	nop
    ffcc:	00000000 	nop
    ffd0:	00000000 	nop
    ffd4:	00000000 	nop
    ffd8:	00000000 	nop
    ffdc:	00000000 	nop
    ffe0:	00000000 	nop
    ffe4:	00000000 	nop
    ffe8:	00000000 	nop
    ffec:	00000000 	nop
    fff0:	00000000 	nop
    fff4:	00000000 	nop
    fff8:	00000000 	nop
    fffc:	00000000 	nop
   10000:	00000000 	nop
   10004:	00000000 	nop
   10008:	00000000 	nop
   1000c:	00000000 	nop
   10010:	00000000 	nop
   10014:	00000000 	nop
   10018:	00000000 	nop
   1001c:	00000000 	nop
   10020:	00000000 	nop
   10024:	00000000 	nop
   10028:	00000000 	nop
   1002c:	00000000 	nop
   10030:	00000000 	nop
   10034:	00000000 	nop
   10038:	00000000 	nop
   1003c:	00000000 	nop
   10040:	00000000 	nop
   10044:	00000000 	nop
   10048:	00000000 	nop
   1004c:	00000000 	nop
   10050:	00000000 	nop
   10054:	00000000 	nop
   10058:	00000000 	nop
   1005c:	00000000 	nop
   10060:	00000000 	nop
   10064:	00000000 	nop
   10068:	00000000 	nop
   1006c:	00000000 	nop
   10070:	00000000 	nop
   10074:	00000000 	nop
   10078:	00000000 	nop
   1007c:	00000000 	nop
   10080:	00000000 	nop
   10084:	00000000 	nop
   10088:	00000000 	nop
   1008c:	00000000 	nop
   10090:	00000000 	nop
   10094:	00000000 	nop
   10098:	00000000 	nop
   1009c:	00000000 	nop
   100a0:	00000000 	nop
   100a4:	00000000 	nop
   100a8:	00000000 	nop
   100ac:	00000000 	nop
   100b0:	00000000 	nop
   100b4:	00000000 	nop
   100b8:	00000000 	nop
   100bc:	00000000 	nop
   100c0:	00000000 	nop
   100c4:	00000000 	nop
   100c8:	00000000 	nop
   100cc:	00000000 	nop
   100d0:	00000000 	nop
   100d4:	00000000 	nop
   100d8:	00000000 	nop
   100dc:	00000000 	nop
   100e0:	00000000 	nop
   100e4:	00000000 	nop
   100e8:	00000000 	nop
   100ec:	00000000 	nop
   100f0:	00000000 	nop
   100f4:	00000000 	nop
   100f8:	00000000 	nop
   100fc:	00000000 	nop
   10100:	00000000 	nop
   10104:	00000000 	nop
   10108:	00000000 	nop
   1010c:	00000000 	nop
   10110:	00000000 	nop
   10114:	00000000 	nop
   10118:	00000000 	nop
   1011c:	00000000 	nop
   10120:	00000000 	nop
   10124:	00000000 	nop
   10128:	00000000 	nop
   1012c:	00000000 	nop
   10130:	00000000 	nop
   10134:	00000000 	nop
   10138:	00000000 	nop
   1013c:	00000000 	nop
   10140:	00000000 	nop
   10144:	00000000 	nop
   10148:	00000000 	nop
   1014c:	00000000 	nop
   10150:	00000000 	nop
   10154:	00000000 	nop
   10158:	00000000 	nop
   1015c:	00000000 	nop
   10160:	00000000 	nop
   10164:	00000000 	nop
   10168:	00000000 	nop
   1016c:	00000000 	nop
   10170:	00000000 	nop
   10174:	00000000 	nop
   10178:	00000000 	nop
   1017c:	00000000 	nop
   10180:	00000000 	nop
   10184:	00000000 	nop
   10188:	00000000 	nop
   1018c:	00000000 	nop
   10190:	00000000 	nop
   10194:	00000000 	nop
   10198:	00000000 	nop
   1019c:	00000000 	nop
   101a0:	00000000 	nop
   101a4:	00000000 	nop
   101a8:	00000000 	nop
   101ac:	00000000 	nop
   101b0:	00000000 	nop
   101b4:	00000000 	nop
   101b8:	00000000 	nop
   101bc:	00000000 	nop
   101c0:	00000000 	nop
   101c4:	00000000 	nop
   101c8:	00000000 	nop
   101cc:	00000000 	nop
   101d0:	00000000 	nop
   101d4:	00000000 	nop
   101d8:	00000000 	nop
   101dc:	00000000 	nop
   101e0:	00000000 	nop
   101e4:	00000000 	nop
   101e8:	00000000 	nop
   101ec:	00000000 	nop
   101f0:	00000000 	nop
   101f4:	00000000 	nop
   101f8:	00000000 	nop
   101fc:	00000000 	nop
   10200:	00000000 	nop
   10204:	00000000 	nop
   10208:	00000000 	nop
   1020c:	00000000 	nop
   10210:	00000000 	nop
   10214:	00000000 	nop
   10218:	00000000 	nop
   1021c:	00000000 	nop
   10220:	00000000 	nop
   10224:	00000000 	nop
   10228:	00000000 	nop
   1022c:	00000000 	nop
   10230:	00000000 	nop
   10234:	00000000 	nop
   10238:	00000000 	nop
   1023c:	00000000 	nop
   10240:	00000000 	nop
   10244:	00000000 	nop
   10248:	00000000 	nop
   1024c:	00000000 	nop
   10250:	00000000 	nop
   10254:	00000000 	nop
   10258:	00000000 	nop
   1025c:	00000000 	nop
   10260:	00000000 	nop
   10264:	00000000 	nop
   10268:	00000000 	nop
   1026c:	00000000 	nop
   10270:	00000000 	nop
   10274:	00000000 	nop
   10278:	00000000 	nop
   1027c:	00000000 	nop
   10280:	00000000 	nop
   10284:	00000000 	nop
   10288:	00000000 	nop
   1028c:	00000000 	nop
   10290:	00000000 	nop
   10294:	00000000 	nop
   10298:	00000000 	nop
   1029c:	00000000 	nop
   102a0:	00000000 	nop
   102a4:	00000000 	nop
   102a8:	00000000 	nop
   102ac:	00000000 	nop
   102b0:	00000000 	nop
   102b4:	00000000 	nop
   102b8:	00000000 	nop
   102bc:	00000000 	nop
   102c0:	00000000 	nop
   102c4:	00000000 	nop
   102c8:	00000000 	nop
   102cc:	00000000 	nop
   102d0:	00000000 	nop
   102d4:	00000000 	nop
   102d8:	00000000 	nop
   102dc:	00000000 	nop
   102e0:	00000000 	nop
   102e4:	00000000 	nop
   102e8:	00000000 	nop
   102ec:	00000000 	nop
   102f0:	00000000 	nop
   102f4:	00000000 	nop
   102f8:	00000000 	nop
   102fc:	00000000 	nop
   10300:	00000000 	nop
   10304:	00000000 	nop
   10308:	00000000 	nop
   1030c:	00000000 	nop
   10310:	00000000 	nop
   10314:	00000000 	nop
   10318:	00000000 	nop
   1031c:	00000000 	nop
   10320:	00000000 	nop
   10324:	00000000 	nop
   10328:	00000000 	nop
   1032c:	00000000 	nop
   10330:	00000000 	nop
   10334:	00000000 	nop
   10338:	00000000 	nop
   1033c:	00000000 	nop
   10340:	00000000 	nop
   10344:	00000000 	nop
   10348:	00000000 	nop
   1034c:	00000000 	nop
   10350:	00000000 	nop
   10354:	00000000 	nop
   10358:	00000000 	nop
   1035c:	00000000 	nop
   10360:	00000000 	nop
   10364:	00000000 	nop
   10368:	00000000 	nop
   1036c:	00000000 	nop
   10370:	00000000 	nop
   10374:	00000000 	nop
   10378:	00000000 	nop
   1037c:	00000000 	nop
   10380:	00000000 	nop
   10384:	00000000 	nop
   10388:	00000000 	nop
   1038c:	00000000 	nop
   10390:	00000000 	nop
   10394:	00000000 	nop
   10398:	00000000 	nop
   1039c:	00000000 	nop
   103a0:	00000000 	nop
   103a4:	00000000 	nop
   103a8:	00000000 	nop
   103ac:	00000000 	nop
   103b0:	00000000 	nop
   103b4:	00000000 	nop
   103b8:	00000000 	nop
   103bc:	00000000 	nop
   103c0:	00000000 	nop
   103c4:	00000000 	nop
   103c8:	00000000 	nop
   103cc:	00000000 	nop
   103d0:	00000000 	nop
   103d4:	00000000 	nop
   103d8:	00000000 	nop
   103dc:	00000000 	nop
   103e0:	00000000 	nop
   103e4:	00000000 	nop
   103e8:	00000000 	nop
   103ec:	00000000 	nop
   103f0:	00000000 	nop
   103f4:	00000000 	nop
   103f8:	00000000 	nop
   103fc:	00000000 	nop
   10400:	00000000 	nop
   10404:	00000000 	nop
   10408:	00000000 	nop
   1040c:	00000000 	nop
   10410:	00000000 	nop
   10414:	00000000 	nop
   10418:	00000000 	nop
   1041c:	00000000 	nop
   10420:	00000000 	nop
   10424:	00000000 	nop
   10428:	00000000 	nop
   1042c:	00000000 	nop
   10430:	00000000 	nop
   10434:	00000000 	nop
   10438:	00000000 	nop
   1043c:	00000000 	nop
   10440:	00000000 	nop
   10444:	00000000 	nop
   10448:	00000000 	nop
   1044c:	00000000 	nop
   10450:	00000000 	nop
   10454:	00000000 	nop
   10458:	00000000 	nop
   1045c:	00000000 	nop
   10460:	00000000 	nop
   10464:	00000000 	nop
   10468:	00000000 	nop
   1046c:	00000000 	nop
   10470:	00000000 	nop
   10474:	00000000 	nop
   10478:	00000000 	nop
   1047c:	00000000 	nop
   10480:	00000000 	nop
   10484:	00000000 	nop
   10488:	00000000 	nop
   1048c:	00000000 	nop
   10490:	00000000 	nop
   10494:	00000000 	nop
   10498:	00000000 	nop
   1049c:	00000000 	nop
   104a0:	00000000 	nop
   104a4:	00000000 	nop
   104a8:	00000000 	nop
   104ac:	00000000 	nop
   104b0:	00000000 	nop
   104b4:	00000000 	nop
   104b8:	00000000 	nop
   104bc:	00000000 	nop
   104c0:	00000000 	nop
   104c4:	00000000 	nop
   104c8:	00000000 	nop
   104cc:	00000000 	nop
   104d0:	00000000 	nop
   104d4:	00000000 	nop
   104d8:	00000000 	nop
   104dc:	00000000 	nop
   104e0:	00000000 	nop
   104e4:	00000000 	nop
   104e8:	00000000 	nop
   104ec:	00000000 	nop
   104f0:	00000000 	nop
   104f4:	00000000 	nop
   104f8:	00000000 	nop
   104fc:	00000000 	nop
   10500:	00000000 	nop
   10504:	00000000 	nop
   10508:	00000000 	nop
   1050c:	00000000 	nop
   10510:	00000000 	nop
   10514:	00000000 	nop
   10518:	00000000 	nop
   1051c:	00000000 	nop
   10520:	00000000 	nop
   10524:	00000000 	nop
   10528:	00000000 	nop
   1052c:	00000000 	nop
   10530:	00000000 	nop
   10534:	00000000 	nop
   10538:	00000000 	nop
   1053c:	00000000 	nop
   10540:	00000000 	nop
   10544:	00000000 	nop
   10548:	00000000 	nop
   1054c:	00000000 	nop
   10550:	00000000 	nop
   10554:	00000000 	nop
   10558:	00000000 	nop
   1055c:	00000000 	nop
   10560:	00000000 	nop
   10564:	00000000 	nop
   10568:	00000000 	nop
   1056c:	00000000 	nop
   10570:	00000000 	nop
   10574:	00000000 	nop
   10578:	00000000 	nop
   1057c:	00000000 	nop
   10580:	00000000 	nop
   10584:	00000000 	nop
   10588:	00000000 	nop
   1058c:	00000000 	nop
   10590:	00000000 	nop
   10594:	00000000 	nop
   10598:	00000000 	nop
   1059c:	00000000 	nop
   105a0:	00000000 	nop
   105a4:	00000000 	nop
   105a8:	00000000 	nop
   105ac:	00000000 	nop
   105b0:	00000000 	nop
   105b4:	00000000 	nop
   105b8:	00000000 	nop
   105bc:	00000000 	nop
   105c0:	00000000 	nop
   105c4:	00000000 	nop
   105c8:	00000000 	nop
   105cc:	00000000 	nop
   105d0:	00000000 	nop
   105d4:	00000000 	nop
   105d8:	00000000 	nop
   105dc:	00000000 	nop
   105e0:	00000000 	nop
   105e4:	00000000 	nop
   105e8:	00000000 	nop
   105ec:	00000000 	nop
   105f0:	00000000 	nop
   105f4:	00000000 	nop
   105f8:	00000000 	nop
   105fc:	00000000 	nop
   10600:	00000000 	nop
   10604:	00000000 	nop
   10608:	00000000 	nop
   1060c:	00000000 	nop
   10610:	00000000 	nop
   10614:	00000000 	nop
   10618:	00000000 	nop
   1061c:	00000000 	nop
   10620:	00000000 	nop
   10624:	00000000 	nop
   10628:	00000000 	nop
   1062c:	00000000 	nop
   10630:	00000000 	nop
   10634:	00000000 	nop
   10638:	00000000 	nop
   1063c:	00000000 	nop
   10640:	00000000 	nop
   10644:	00000000 	nop
   10648:	00000000 	nop
   1064c:	00000000 	nop
   10650:	00000000 	nop
   10654:	00000000 	nop
   10658:	00000000 	nop
   1065c:	00000000 	nop
   10660:	00000000 	nop
   10664:	00000000 	nop
   10668:	00000000 	nop
   1066c:	00000000 	nop
   10670:	00000000 	nop
   10674:	00000000 	nop
   10678:	00000000 	nop
   1067c:	00000000 	nop
   10680:	00000000 	nop
   10684:	00000000 	nop
   10688:	00000000 	nop
   1068c:	00000000 	nop
   10690:	00000000 	nop
   10694:	00000000 	nop
   10698:	00000000 	nop
   1069c:	00000000 	nop
   106a0:	00000000 	nop
   106a4:	00000000 	nop
   106a8:	00000000 	nop
   106ac:	00000000 	nop
   106b0:	00000000 	nop
   106b4:	00000000 	nop
   106b8:	00000000 	nop
   106bc:	00000000 	nop
   106c0:	00000000 	nop
   106c4:	00000000 	nop
   106c8:	00000000 	nop
   106cc:	00000000 	nop
   106d0:	00000000 	nop
   106d4:	00000000 	nop
   106d8:	00000000 	nop
   106dc:	00000000 	nop
   106e0:	00000000 	nop
   106e4:	00000000 	nop
   106e8:	00000000 	nop
   106ec:	00000000 	nop
   106f0:	00000000 	nop
   106f4:	00000000 	nop
   106f8:	00000000 	nop
   106fc:	00000000 	nop
   10700:	00000000 	nop
   10704:	00000000 	nop
   10708:	00000000 	nop
   1070c:	00000000 	nop
   10710:	00000000 	nop
   10714:	00000000 	nop
   10718:	00000000 	nop
   1071c:	00000000 	nop
   10720:	00000000 	nop
   10724:	00000000 	nop
   10728:	00000000 	nop
   1072c:	00000000 	nop
   10730:	00000000 	nop
   10734:	00000000 	nop
   10738:	00000000 	nop
   1073c:	00000000 	nop
   10740:	00000000 	nop
   10744:	00000000 	nop
   10748:	00000000 	nop
   1074c:	00000000 	nop
   10750:	00000000 	nop
   10754:	00000000 	nop
   10758:	00000000 	nop
   1075c:	00000000 	nop
   10760:	00000000 	nop
   10764:	00000000 	nop
   10768:	00000000 	nop
   1076c:	00000000 	nop
   10770:	00000000 	nop
   10774:	00000000 	nop
   10778:	00000000 	nop
   1077c:	00000000 	nop
   10780:	00000000 	nop
   10784:	00000000 	nop
   10788:	00000000 	nop
   1078c:	00000000 	nop
   10790:	00000000 	nop
   10794:	00000000 	nop
   10798:	00000000 	nop
   1079c:	00000000 	nop
   107a0:	00000000 	nop
   107a4:	00000000 	nop
   107a8:	00000000 	nop
   107ac:	00000000 	nop
   107b0:	00000000 	nop
   107b4:	00000000 	nop
   107b8:	00000000 	nop
   107bc:	00000000 	nop
   107c0:	00000000 	nop
   107c4:	00000000 	nop
   107c8:	00000000 	nop
   107cc:	00000000 	nop
   107d0:	00000000 	nop
   107d4:	00000000 	nop
   107d8:	00000000 	nop
   107dc:	00000000 	nop
   107e0:	00000000 	nop
   107e4:	00000000 	nop
   107e8:	00000000 	nop
   107ec:	00000000 	nop
   107f0:	00000000 	nop
   107f4:	00000000 	nop
   107f8:	00000000 	nop
   107fc:	00000000 	nop
   10800:	00000000 	nop
   10804:	00000000 	nop
   10808:	00000000 	nop
   1080c:	00000000 	nop
   10810:	00000000 	nop
   10814:	00000000 	nop
   10818:	00000000 	nop
   1081c:	00000000 	nop
   10820:	00000000 	nop
   10824:	00000000 	nop
   10828:	00000000 	nop
   1082c:	00000000 	nop
   10830:	00000000 	nop
   10834:	00000000 	nop
   10838:	00000000 	nop
   1083c:	00000000 	nop
   10840:	00000000 	nop
   10844:	00000000 	nop
   10848:	00000000 	nop
   1084c:	00000000 	nop
   10850:	00000000 	nop
   10854:	00000000 	nop
   10858:	00000000 	nop
   1085c:	00000000 	nop
   10860:	00000000 	nop
   10864:	00000000 	nop
   10868:	00000000 	nop
   1086c:	00000000 	nop
   10870:	00000000 	nop
   10874:	00000000 	nop
   10878:	00000000 	nop
   1087c:	00000000 	nop
   10880:	00000000 	nop
   10884:	00000000 	nop
   10888:	00000000 	nop
   1088c:	00000000 	nop
   10890:	00000000 	nop
   10894:	00000000 	nop
   10898:	00000000 	nop
   1089c:	00000000 	nop
   108a0:	00000000 	nop
   108a4:	00000000 	nop
   108a8:	00000000 	nop
   108ac:	00000000 	nop
   108b0:	00000000 	nop
   108b4:	00000000 	nop
   108b8:	00000000 	nop
   108bc:	00000000 	nop
   108c0:	00000000 	nop
   108c4:	00000000 	nop
   108c8:	00000000 	nop
   108cc:	00000000 	nop
   108d0:	00000000 	nop
   108d4:	00000000 	nop
   108d8:	00000000 	nop
   108dc:	00000000 	nop
   108e0:	00000000 	nop
   108e4:	00000000 	nop
   108e8:	00000000 	nop
   108ec:	00000000 	nop
   108f0:	00000000 	nop
   108f4:	00000000 	nop
   108f8:	00000000 	nop
   108fc:	00000000 	nop
   10900:	00000000 	nop
   10904:	00000000 	nop
   10908:	00000000 	nop
   1090c:	00000000 	nop
   10910:	00000000 	nop
   10914:	00000000 	nop
   10918:	00000000 	nop
   1091c:	00000000 	nop
   10920:	00000000 	nop
   10924:	00000000 	nop
   10928:	00000000 	nop
   1092c:	00000000 	nop
   10930:	00000000 	nop
   10934:	00000000 	nop
   10938:	00000000 	nop
   1093c:	00000000 	nop
   10940:	00000000 	nop
   10944:	00000000 	nop
   10948:	00000000 	nop
   1094c:	00000000 	nop
   10950:	00000000 	nop
   10954:	00000000 	nop
   10958:	00000000 	nop
   1095c:	00000000 	nop
   10960:	00000000 	nop
   10964:	00000000 	nop
   10968:	00000000 	nop
   1096c:	00000000 	nop
   10970:	00000000 	nop
   10974:	00000000 	nop
   10978:	00000000 	nop
   1097c:	00000000 	nop
   10980:	00000000 	nop
   10984:	00000000 	nop
   10988:	00000000 	nop
   1098c:	00000000 	nop
   10990:	00000000 	nop
   10994:	00000000 	nop
   10998:	00000000 	nop
   1099c:	00000000 	nop
   109a0:	00000000 	nop
   109a4:	00000000 	nop
   109a8:	00000000 	nop
   109ac:	00000000 	nop
   109b0:	00000000 	nop
   109b4:	00000000 	nop
   109b8:	00000000 	nop
   109bc:	00000000 	nop
   109c0:	00000000 	nop
   109c4:	00000000 	nop
   109c8:	00000000 	nop
   109cc:	00000000 	nop
   109d0:	00000000 	nop
   109d4:	00000000 	nop
   109d8:	00000000 	nop
   109dc:	00000000 	nop
   109e0:	00000000 	nop
   109e4:	00000000 	nop
   109e8:	00000000 	nop
   109ec:	00000000 	nop
   109f0:	00000000 	nop
   109f4:	00000000 	nop
   109f8:	00000000 	nop
   109fc:	00000000 	nop
   10a00:	00000000 	nop
   10a04:	00000000 	nop
   10a08:	00000000 	nop
   10a0c:	00000000 	nop
   10a10:	00000000 	nop
   10a14:	00000000 	nop
   10a18:	00000000 	nop
   10a1c:	00000000 	nop
   10a20:	00000000 	nop
   10a24:	00000000 	nop
   10a28:	00000000 	nop
   10a2c:	00000000 	nop
   10a30:	00000000 	nop
   10a34:	00000000 	nop
   10a38:	00000000 	nop
   10a3c:	00000000 	nop
   10a40:	00000000 	nop
   10a44:	00000000 	nop
   10a48:	00000000 	nop
   10a4c:	00000000 	nop
   10a50:	00000000 	nop
   10a54:	00000000 	nop
   10a58:	00000000 	nop
   10a5c:	00000000 	nop
   10a60:	00000000 	nop
   10a64:	00000000 	nop
   10a68:	00000000 	nop
   10a6c:	00000000 	nop
   10a70:	00000000 	nop
   10a74:	00000000 	nop
   10a78:	00000000 	nop
   10a7c:	00000000 	nop
   10a80:	00000000 	nop
   10a84:	00000000 	nop
   10a88:	00000000 	nop
   10a8c:	00000000 	nop
   10a90:	00000000 	nop
   10a94:	00000000 	nop
   10a98:	00000000 	nop
   10a9c:	00000000 	nop
   10aa0:	00000000 	nop
   10aa4:	00000000 	nop
   10aa8:	00000000 	nop
   10aac:	00000000 	nop
   10ab0:	00000000 	nop
   10ab4:	00000000 	nop
   10ab8:	00000000 	nop
   10abc:	00000000 	nop
   10ac0:	00000000 	nop
   10ac4:	00000000 	nop
   10ac8:	00000000 	nop
   10acc:	00000000 	nop
   10ad0:	00000000 	nop
   10ad4:	00000000 	nop
   10ad8:	00000000 	nop
   10adc:	00000000 	nop
   10ae0:	00000000 	nop
   10ae4:	00000000 	nop
   10ae8:	00000000 	nop
   10aec:	00000000 	nop
   10af0:	00000000 	nop
   10af4:	00000000 	nop
   10af8:	00000000 	nop
   10afc:	00000000 	nop
   10b00:	00000000 	nop
   10b04:	00000000 	nop
   10b08:	00000000 	nop
   10b0c:	00000000 	nop
   10b10:	00000000 	nop
   10b14:	00000000 	nop
   10b18:	00000000 	nop
   10b1c:	00000000 	nop
   10b20:	00000000 	nop
   10b24:	00000000 	nop
   10b28:	00000000 	nop
   10b2c:	00000000 	nop
   10b30:	00000000 	nop
   10b34:	00000000 	nop
   10b38:	00000000 	nop
   10b3c:	00000000 	nop
   10b40:	00000000 	nop
   10b44:	00000000 	nop
   10b48:	00000000 	nop
   10b4c:	00000000 	nop
   10b50:	00000000 	nop
   10b54:	00000000 	nop
   10b58:	00000000 	nop
   10b5c:	00000000 	nop
   10b60:	00000000 	nop
   10b64:	00000000 	nop
   10b68:	00000000 	nop
   10b6c:	00000000 	nop
   10b70:	00000000 	nop
   10b74:	00000000 	nop
   10b78:	00000000 	nop
   10b7c:	00000000 	nop
   10b80:	00000000 	nop
   10b84:	00000000 	nop
   10b88:	00000000 	nop
   10b8c:	00000000 	nop
   10b90:	00000000 	nop
   10b94:	00000000 	nop
   10b98:	00000000 	nop
   10b9c:	00000000 	nop
   10ba0:	00000000 	nop
   10ba4:	00000000 	nop
   10ba8:	00000000 	nop
   10bac:	00000000 	nop
   10bb0:	00000000 	nop
   10bb4:	00000000 	nop
   10bb8:	00000000 	nop
   10bbc:	00000000 	nop
   10bc0:	00000000 	nop
   10bc4:	00000000 	nop
   10bc8:	00000000 	nop
   10bcc:	00000000 	nop
   10bd0:	00000000 	nop
   10bd4:	00000000 	nop
   10bd8:	00000000 	nop
   10bdc:	00000000 	nop
   10be0:	00000000 	nop
   10be4:	00000000 	nop
   10be8:	00000000 	nop
   10bec:	00000000 	nop
   10bf0:	00000000 	nop
   10bf4:	00000000 	nop
   10bf8:	00000000 	nop
   10bfc:	00000000 	nop
   10c00:	00000000 	nop
   10c04:	00000000 	nop
   10c08:	00000000 	nop
   10c0c:	00000000 	nop
   10c10:	00000000 	nop
   10c14:	00000000 	nop
   10c18:	00000000 	nop
   10c1c:	00000000 	nop
   10c20:	00000000 	nop
   10c24:	00000000 	nop
   10c28:	00000000 	nop
   10c2c:	00000000 	nop
   10c30:	00000000 	nop
   10c34:	00000000 	nop
   10c38:	00000000 	nop
   10c3c:	00000000 	nop
   10c40:	00000000 	nop
   10c44:	00000000 	nop
   10c48:	00000000 	nop
   10c4c:	00000000 	nop
   10c50:	00000000 	nop
   10c54:	00000000 	nop
   10c58:	00000000 	nop
   10c5c:	00000000 	nop
   10c60:	00000000 	nop
   10c64:	00000000 	nop
   10c68:	00000000 	nop
   10c6c:	00000000 	nop
   10c70:	00000000 	nop
   10c74:	00000000 	nop
   10c78:	00000000 	nop
   10c7c:	00000000 	nop
   10c80:	00000000 	nop
   10c84:	00000000 	nop
   10c88:	00000000 	nop
   10c8c:	00000000 	nop
   10c90:	00000000 	nop
   10c94:	00000000 	nop
   10c98:	00000000 	nop
   10c9c:	00000000 	nop
   10ca0:	00000000 	nop
   10ca4:	00000000 	nop
   10ca8:	00000000 	nop
   10cac:	00000000 	nop
   10cb0:	00000000 	nop
   10cb4:	00000000 	nop
   10cb8:	00000000 	nop
   10cbc:	00000000 	nop
   10cc0:	00000000 	nop
   10cc4:	00000000 	nop
   10cc8:	00000000 	nop
   10ccc:	00000000 	nop
   10cd0:	00000000 	nop
   10cd4:	00000000 	nop
   10cd8:	00000000 	nop
   10cdc:	00000000 	nop
   10ce0:	00000000 	nop
   10ce4:	00000000 	nop
   10ce8:	00000000 	nop
   10cec:	00000000 	nop
   10cf0:	00000000 	nop
   10cf4:	00000000 	nop
   10cf8:	00000000 	nop
   10cfc:	00000000 	nop
   10d00:	00000000 	nop
   10d04:	00000000 	nop
   10d08:	00000000 	nop
   10d0c:	00000000 	nop
   10d10:	00000000 	nop
   10d14:	00000000 	nop
   10d18:	00000000 	nop
   10d1c:	00000000 	nop
   10d20:	00000000 	nop
   10d24:	00000000 	nop
   10d28:	00000000 	nop
   10d2c:	00000000 	nop
   10d30:	00000000 	nop
   10d34:	00000000 	nop
   10d38:	00000000 	nop
   10d3c:	00000000 	nop
   10d40:	00000000 	nop
   10d44:	00000000 	nop
   10d48:	00000000 	nop
   10d4c:	00000000 	nop
   10d50:	00000000 	nop
   10d54:	00000000 	nop
   10d58:	00000000 	nop
   10d5c:	00000000 	nop
   10d60:	00000000 	nop
   10d64:	00000000 	nop
   10d68:	00000000 	nop
   10d6c:	00000000 	nop
   10d70:	00000000 	nop
   10d74:	00000000 	nop
   10d78:	00000000 	nop
   10d7c:	00000000 	nop
   10d80:	00000000 	nop
   10d84:	00000000 	nop
   10d88:	00000000 	nop
   10d8c:	00000000 	nop
   10d90:	00000000 	nop
   10d94:	00000000 	nop
   10d98:	00000000 	nop
   10d9c:	00000000 	nop
   10da0:	00000000 	nop
   10da4:	00000000 	nop
   10da8:	00000000 	nop
   10dac:	00000000 	nop
   10db0:	00000000 	nop
   10db4:	00000000 	nop
   10db8:	00000000 	nop
   10dbc:	00000000 	nop
   10dc0:	00000000 	nop
   10dc4:	00000000 	nop
   10dc8:	00000000 	nop
   10dcc:	00000000 	nop
   10dd0:	00000000 	nop
   10dd4:	00000000 	nop
   10dd8:	00000000 	nop
   10ddc:	00000000 	nop
   10de0:	00000000 	nop
   10de4:	00000000 	nop
   10de8:	00000000 	nop
   10dec:	00000000 	nop
   10df0:	00000000 	nop
   10df4:	00000000 	nop
   10df8:	00000000 	nop
   10dfc:	00000000 	nop
   10e00:	00000000 	nop
   10e04:	00000000 	nop
   10e08:	00000000 	nop
   10e0c:	00000000 	nop
   10e10:	00000000 	nop
   10e14:	00000000 	nop
   10e18:	00000000 	nop
   10e1c:	00000000 	nop
   10e20:	00000000 	nop
   10e24:	00000000 	nop
   10e28:	00000000 	nop
   10e2c:	00000000 	nop
   10e30:	00000000 	nop
   10e34:	00000000 	nop
   10e38:	00000000 	nop
   10e3c:	00000000 	nop
   10e40:	00000000 	nop
   10e44:	00000000 	nop
   10e48:	00000000 	nop
   10e4c:	00000000 	nop
   10e50:	00000000 	nop
   10e54:	00000000 	nop
   10e58:	00000000 	nop
   10e5c:	00000000 	nop
   10e60:	00000000 	nop
   10e64:	00000000 	nop
   10e68:	00000000 	nop
   10e6c:	00000000 	nop
   10e70:	00000000 	nop
   10e74:	00000000 	nop
   10e78:	00000000 	nop
   10e7c:	00000000 	nop
   10e80:	00000000 	nop
   10e84:	00000000 	nop
   10e88:	00000000 	nop
   10e8c:	00000000 	nop
   10e90:	00000000 	nop
   10e94:	00000000 	nop
   10e98:	00000000 	nop
   10e9c:	00000000 	nop
   10ea0:	00000000 	nop
   10ea4:	00000000 	nop
   10ea8:	00000000 	nop
   10eac:	00000000 	nop
   10eb0:	00000000 	nop
   10eb4:	00000000 	nop
   10eb8:	00000000 	nop
   10ebc:	00000000 	nop
   10ec0:	00000000 	nop
   10ec4:	00000000 	nop
   10ec8:	00000000 	nop
   10ecc:	00000000 	nop
   10ed0:	00000000 	nop
   10ed4:	00000000 	nop
   10ed8:	00000000 	nop
   10edc:	00000000 	nop
   10ee0:	00000000 	nop
   10ee4:	00000000 	nop
   10ee8:	00000000 	nop
   10eec:	00000000 	nop
   10ef0:	00000000 	nop
   10ef4:	00000000 	nop
   10ef8:	00000000 	nop
   10efc:	00000000 	nop
   10f00:	00000000 	nop
   10f04:	00000000 	nop
   10f08:	00000000 	nop
   10f0c:	00000000 	nop
   10f10:	00000000 	nop
   10f14:	00000000 	nop
   10f18:	00000000 	nop
   10f1c:	00000000 	nop
   10f20:	00000000 	nop
   10f24:	00000000 	nop
   10f28:	00000000 	nop
   10f2c:	00000000 	nop
   10f30:	00000000 	nop
   10f34:	00000000 	nop
   10f38:	00000000 	nop
   10f3c:	00000000 	nop
   10f40:	00000000 	nop
   10f44:	00000000 	nop
   10f48:	00000000 	nop
   10f4c:	00000000 	nop
   10f50:	00000000 	nop
   10f54:	00000000 	nop
   10f58:	00000000 	nop
   10f5c:	00000000 	nop
   10f60:	00000000 	nop
   10f64:	00000000 	nop
   10f68:	00000000 	nop
   10f6c:	00000000 	nop
   10f70:	00000000 	nop
   10f74:	00000000 	nop
   10f78:	00000000 	nop
   10f7c:	00000000 	nop
   10f80:	00000000 	nop
   10f84:	00000000 	nop
   10f88:	00000000 	nop
   10f8c:	00000000 	nop
   10f90:	00000000 	nop
   10f94:	00000000 	nop
   10f98:	00000000 	nop
   10f9c:	00000000 	nop
   10fa0:	00000000 	nop
   10fa4:	00000000 	nop
   10fa8:	00000000 	nop
   10fac:	00000000 	nop
   10fb0:	00000000 	nop
   10fb4:	00000000 	nop
   10fb8:	00000000 	nop
   10fbc:	00000000 	nop
   10fc0:	00000000 	nop
   10fc4:	00000000 	nop
   10fc8:	00000000 	nop
   10fcc:	00000000 	nop
   10fd0:	00000000 	nop
   10fd4:	00000000 	nop
   10fd8:	00000000 	nop
   10fdc:	00000000 	nop
   10fe0:	00000000 	nop
   10fe4:	00000000 	nop
   10fe8:	00000000 	nop
   10fec:	00000000 	nop
   10ff0:	00000000 	nop
   10ff4:	00000000 	nop
   10ff8:	00000000 	nop
   10ffc:	00000000 	nop
   11000:	00000000 	nop
   11004:	00000000 	nop
    1008:	08000408 	j	1020
   1100c:	00000000 	nop
   11010:	00000000 	nop
   11014:	00000000 	nop
   11018:	00000000 	nop
   1101c:	00000000 	nop
   11020:	00000000 	nop
   11024:	00000000 	nop
   11028:	00000000 	nop
   1102c:	00000000 	nop
   11030:	00000000 	nop
   11034:	00000000 	nop
   11038:	00000000 	nop
   1103c:	00000000 	nop
   11040:	00000000 	nop
   11044:	00000000 	nop
   11048:	00000000 	nop
   1104c:	00000000 	nop
   11050:	00000000 	nop
   11054:	00000000 	nop
   11058:	00000000 	nop
   1105c:	00000000 	nop
   11060:	00000000 	nop
   11064:	00000000 	nop
   11068:	00000000 	nop
   1106c:	00000000 	nop
   11070:	00000000 	nop
   11074:	00000000 	nop
   11078:	00000000 	nop
   1107c:	00000000 	nop
   11080:	00000000 	nop
   11084:	00000000 	nop
   11088:	00000000 	nop
   1108c:	00000000 	nop
   11090:	00000000 	nop
   11094:	00000000 	nop
   11098:	00000000 	nop
   1109c:	00000000 	nop
   110a0:	00000000 	nop
   110a4:	00000000 	nop
   110a8:	00000000 	nop
   110ac:	00000000 	nop
   110b0:	00000000 	nop
   110b4:	00000000 	nop
   110b8:	00000000 	nop
   110bc:	00000000 	nop
   110c0:	00000000 	nop
   110c4:	00000000 	nop
   110c8:	00000000 	nop
   110cc:	00000000 	nop
   110d0:	00000000 	nop
   110d4:	00000000 	nop
   110d8:	00000000 	nop
   110dc:	00000000 	nop
   110e0:	00000000 	nop
   110e4:	00000000 	nop
   110e8:	00000000 	nop
   110ec:	00000000 	nop
   110f0:	00000000 	nop
   110f4:	00000000 	nop
   110f8:	00000000 	nop
   110fc:	00000000 	nop
   11100:	00000000 	nop
   11104:	00000000 	nop
   11108:	00000000 	nop
   1110c:	00000000 	nop
   11110:	00000000 	nop
   11114:	00000000 	nop
   11118:	00000000 	nop
   1111c:	00000000 	nop
   11120:	00000000 	nop
   11124:	00000000 	nop
   11128:	00000000 	nop
   1112c:	00000000 	nop
   11130:	00000000 	nop
   11134:	00000000 	nop
   11138:	00000000 	nop
   1113c:	00000000 	nop
   11140:	00000000 	nop
   11144:	00000000 	nop
   11148:	00000000 	nop
   1114c:	00000000 	nop
   11150:	00000000 	nop
   11154:	00000000 	nop
   11158:	00000000 	nop
   1115c:	00000000 	nop
   11160:	00000000 	nop
   11164:	00000000 	nop
   11168:	00000000 	nop
   1116c:	00000000 	nop
   11170:	00000000 	nop
   11174:	00000000 	nop
   11178:	00000000 	nop
   1117c:	00000000 	nop
   11180:	00000000 	nop
   11184:	00000000 	nop
   11188:	00000000 	nop
   1118c:	00000000 	nop
   11190:	00000000 	nop
   11194:	00000000 	nop
   11198:	00000000 	nop
   1119c:	00000000 	nop
   111a0:	00000000 	nop
   111a4:	00000000 	nop
   111a8:	00000000 	nop
   111ac:	00000000 	nop
   111b0:	00000000 	nop
   111b4:	00000000 	nop
   111b8:	00000000 	nop
   111bc:	00000000 	nop
   111c0:	00000000 	nop
   111c4:	00000000 	nop
   111c8:	00000000 	nop
   111cc:	00000000 	nop
   111d0:	00000000 	nop
   111d4:	00000000 	nop
   111d8:	00000000 	nop
   111dc:	00000000 	nop
   111e0:	00000000 	nop
   111e4:	00000000 	nop
   111e8:	00000000 	nop
   111ec:	00000000 	nop
   111f0:	00000000 	nop
   111f4:	00000000 	nop
   111f8:	00000000 	nop
   111fc:	00000000 	nop
   11200:	00000000 	nop
   11204:	00000000 	nop
   11208:	00000000 	nop
   1120c:	00000000 	nop
   11210:	00000000 	nop
   11214:	00000000 	nop
   11218:	00000000 	nop
   1121c:	00000000 	nop
   11220:	00000000 	nop
   11224:	00000000 	nop
   11228:	00000000 	nop
   1122c:	00000000 	nop
   11230:	00000000 	nop
   11234:	00000000 	nop
   11238:	00000000 	nop
   1123c:	00000000 	nop
   11240:	00000000 	nop
   11244:	00000000 	nop
   11248:	00000000 	nop
   1124c:	00000000 	nop
   11250:	00000000 	nop
   11254:	00000000 	nop
   11258:	00000000 	nop
   1125c:	00000000 	nop
   11260:	00000000 	nop
   11264:	00000000 	nop
   11268:	00000000 	nop
   1126c:	00000000 	nop
   11270:	00000000 	nop
   11274:	00000000 	nop
   11278:	00000000 	nop
   1127c:	00000000 	nop
   11280:	00000000 	nop
   11284:	00000000 	nop
   11288:	00000000 	nop
   1128c:	00000000 	nop
   11290:	00000000 	nop
   11294:	00000000 	nop
   11298:	00000000 	nop
   1129c:	00000000 	nop
   112a0:	00000000 	nop
   112a4:	00000000 	nop
   112a8:	00000000 	nop
   112ac:	00000000 	nop
   112b0:	00000000 	nop
   112b4:	00000000 	nop
   112b8:	00000000 	nop
   112bc:	00000000 	nop
   112c0:	00000000 	nop
   112c4:	00000000 	nop
   112c8:	00000000 	nop
   112cc:	00000000 	nop
   112d0:	00000000 	nop
   112d4:	00000000 	nop
   112d8:	00000000 	nop
   112dc:	00000000 	nop
   112e0:	00000000 	nop
   112e4:	00000000 	nop
   112e8:	00000000 	nop
   112ec:	00000000 	nop
   112f0:	00000000 	nop
   112f4:	00000000 	nop
   112f8:	00000000 	nop
   112fc:	00000000 	nop
   11300:	00000000 	nop
   11304:	00000000 	nop
   11308:	00000000 	nop
   1130c:	00000000 	nop
   11310:	00000000 	nop
   11314:	00000000 	nop
   11318:	00000000 	nop
   1131c:	00000000 	nop
   11320:	00000000 	nop
   11324:	00000000 	nop
   11328:	00000000 	nop
   1132c:	00000000 	nop
   11330:	00000000 	nop
   11334:	00000000 	nop
   11338:	00000000 	nop
   1133c:	00000000 	nop
   11340:	00000000 	nop
   11344:	00000000 	nop
   11348:	00000000 	nop
   1134c:	00000000 	nop
   11350:	00000000 	nop
   11354:	00000000 	nop
   11358:	00000000 	nop
   1135c:	00000000 	nop
   11360:	00000000 	nop
   11364:	00000000 	nop
   11368:	00000000 	nop
   1136c:	00000000 	nop
   11370:	00000000 	nop
   11374:	00000000 	nop
   11378:	00000000 	nop
   1137c:	00000000 	nop
   11380:	00000000 	nop
   11384:	00000000 	nop
   11388:	00000000 	nop
   1138c:	00000000 	nop
   11390:	00000000 	nop
   11394:	00000000 	nop
   11398:	00000000 	nop
   1139c:	00000000 	nop
   113a0:	00000000 	nop
   113a4:	00000000 	nop
   113a8:	00000000 	nop
   113ac:	00000000 	nop
   113b0:	00000000 	nop
   113b4:	00000000 	nop
   113b8:	00000000 	nop
   113bc:	00000000 	nop
   113c0:	00000000 	nop
   113c4:	00000000 	nop
   113c8:	00000000 	nop
   113cc:	00000000 	nop
   113d0:	00000000 	nop
   113d4:	00000000 	nop
   113d8:	00000000 	nop
   113dc:	00000000 	nop
   113e0:	00000000 	nop
   113e4:	00000000 	nop
   113e8:	00000000 	nop
   113ec:	00000000 	nop
   113f0:	00000000 	nop
   113f4:	00000000 	nop
   113f8:	00000000 	nop
   113fc:	00000000 	nop
   11400:	00000000 	nop
   11404:	00000000 	nop
   11408:	00000000 	nop
   1140c:	00000000 	nop
   11410:	00000000 	nop
   11414:	00000000 	nop
   11418:	00000000 	nop
   1141c:	00000000 	nop
   11420:	00000000 	nop
   11424:	00000000 	nop
   11428:	00000000 	nop
   1142c:	00000000 	nop
   11430:	00000000 	nop
   11434:	00000000 	nop
   11438:	00000000 	nop
   1143c:	00000000 	nop
   11440:	00000000 	nop
   11444:	00000000 	nop
   11448:	00000000 	nop
   1144c:	00000000 	nop
   11450:	00000000 	nop
   11454:	00000000 	nop
   11458:	00000000 	nop
   1145c:	00000000 	nop
   11460:	00000000 	nop
   11464:	00000000 	nop
   11468:	00000000 	nop
   1146c:	00000000 	nop
   11470:	00000000 	nop
   11474:	00000000 	nop
   11478:	00000000 	nop
   1147c:	00000000 	nop
   11480:	00000000 	nop
   11484:	00000000 	nop
   11488:	00000000 	nop
   1148c:	00000000 	nop
   11490:	00000000 	nop
   11494:	00000000 	nop
   11498:	00000000 	nop
   1149c:	00000000 	nop
   114a0:	00000000 	nop
   114a4:	00000000 	nop
   114a8:	00000000 	nop
   114ac:	00000000 	nop
   114b0:	00000000 	nop
   114b4:	00000000 	nop
   114b8:	00000000 	nop
   114bc:	00000000 	nop
   114c0:	00000000 	nop
   114c4:	00000000 	nop
   114c8:	00000000 	nop
   114cc:	00000000 	nop
   114d0:	00000000 	nop
   114d4:	00000000 	nop
   114d8:	00000000 	nop
   114dc:	00000000 	nop
   114e0:	00000000 	nop
   114e4:	00000000 	nop
   114e8:	00000000 	nop
   114ec:	00000000 	nop
   114f0:	00000000 	nop
   114f4:	00000000 	nop
   114f8:	00000000 	nop
   114fc:	00000000 	nop
   11500:	00000000 	nop
   11504:	00000000 	nop
   11508:	00000000 	nop
   1150c:	00000000 	nop
   11510:	00000000 	nop
   11514:	00000000 	nop
   11518:	00000000 	nop
   1151c:	00000000 	nop
   11520:	00000000 	nop
   11524:	00000000 	nop
   11528:	00000000 	nop
   1152c:	00000000 	nop
   11530:	00000000 	nop
   11534:	00000000 	nop
   11538:	00000000 	nop
   1153c:	00000000 	nop
   11540:	00000000 	nop
   11544:	00000000 	nop
   11548:	00000000 	nop
   1154c:	00000000 	nop
   11550:	00000000 	nop
   11554:	00000000 	nop
   11558:	00000000 	nop
   1155c:	00000000 	nop
   11560:	00000000 	nop
   11564:	00000000 	nop
   11568:	00000000 	nop
   1156c:	00000000 	nop
   11570:	00000000 	nop
   11574:	00000000 	nop
   11578:	00000000 	nop
   1157c:	00000000 	nop
   11580:	00000000 	nop
   11584:	00000000 	nop
   11588:	00000000 	nop
   1158c:	00000000 	nop
   11590:	00000000 	nop
   11594:	00000000 	nop
   11598:	00000000 	nop
   1159c:	00000000 	nop
   115a0:	00000000 	nop
   115a4:	00000000 	nop
   115a8:	00000000 	nop
   115ac:	00000000 	nop
   115b0:	00000000 	nop
   115b4:	00000000 	nop
   115b8:	00000000 	nop
   115bc:	00000000 	nop
   115c0:	00000000 	nop
   115c4:	00000000 	nop
   115c8:	00000000 	nop
   115cc:	00000000 	nop
   115d0:	00000000 	nop
   115d4:	00000000 	nop
   115d8:	00000000 	nop
   115dc:	00000000 	nop
   115e0:	00000000 	nop
   115e4:	00000000 	nop
   115e8:	00000000 	nop
   115ec:	00000000 	nop
   115f0:	00000000 	nop
   115f4:	00000000 	nop
   115f8:	00000000 	nop
   115fc:	00000000 	nop
   11600:	00000000 	nop
   11604:	00000000 	nop
   11608:	00000000 	nop
   1160c:	00000000 	nop
   11610:	00000000 	nop
   11614:	00000000 	nop
   11618:	00000000 	nop
   1161c:	00000000 	nop
   11620:	00000000 	nop
   11624:	00000000 	nop
   11628:	00000000 	nop
   1162c:	00000000 	nop
   11630:	00000000 	nop
   11634:	00000000 	nop
   11638:	00000000 	nop
   1163c:	00000000 	nop
   11640:	00000000 	nop
   11644:	00000000 	nop
   11648:	00000000 	nop
   1164c:	00000000 	nop
   11650:	00000000 	nop
   11654:	00000000 	nop
   11658:	00000000 	nop
   1165c:	00000000 	nop
   11660:	00000000 	nop
   11664:	00000000 	nop
   11668:	00000000 	nop
   1166c:	00000000 	nop
   11670:	00000000 	nop
   11674:	00000000 	nop
   11678:	00000000 	nop
   1167c:	00000000 	nop
   11680:	00000000 	nop
   11684:	00000000 	nop
   11688:	00000000 	nop
   1168c:	00000000 	nop
   11690:	00000000 	nop
   11694:	00000000 	nop
   11698:	00000000 	nop
   1169c:	00000000 	nop
   116a0:	00000000 	nop
   116a4:	00000000 	nop
   116a8:	00000000 	nop
   116ac:	00000000 	nop
   116b0:	00000000 	nop
   116b4:	00000000 	nop
   116b8:	00000000 	nop
   116bc:	00000000 	nop
   116c0:	00000000 	nop
   116c4:	00000000 	nop
   116c8:	00000000 	nop
   116cc:	00000000 	nop
   116d0:	00000000 	nop
   116d4:	00000000 	nop
   116d8:	00000000 	nop
   116dc:	00000000 	nop
   116e0:	00000000 	nop
   116e4:	00000000 	nop
   116e8:	00000000 	nop
   116ec:	00000000 	nop
   116f0:	00000000 	nop
   116f4:	00000000 	nop
   116f8:	00000000 	nop
   116fc:	00000000 	nop
   11700:	00000000 	nop
   11704:	00000000 	nop
   11708:	00000000 	nop
   1170c:	00000000 	nop
   11710:	00000000 	nop
   11714:	00000000 	nop
   11718:	00000000 	nop
   1171c:	00000000 	nop
   11720:	00000000 	nop
   11724:	00000000 	nop
   11728:	00000000 	nop
   1172c:	00000000 	nop
   11730:	00000000 	nop
   11734:	00000000 	nop
   11738:	00000000 	nop
   1173c:	00000000 	nop
   11740:	00000000 	nop
   11744:	00000000 	nop
   11748:	00000000 	nop
   1174c:	00000000 	nop
   11750:	00000000 	nop
   11754:	00000000 	nop
   11758:	00000000 	nop
   1175c:	00000000 	nop
   11760:	00000000 	nop
   11764:	00000000 	nop
   11768:	00000000 	nop
   1176c:	00000000 	nop
   11770:	00000000 	nop
   11774:	00000000 	nop
   11778:	00000000 	nop
   1177c:	00000000 	nop
   11780:	00000000 	nop
   11784:	00000000 	nop
   11788:	00000000 	nop
   1178c:	00000000 	nop
   11790:	00000000 	nop
   11794:	00000000 	nop
   11798:	00000000 	nop
   1179c:	00000000 	nop
   117a0:	00000000 	nop
   117a4:	00000000 	nop
   117a8:	00000000 	nop
   117ac:	00000000 	nop
   117b0:	00000000 	nop
   117b4:	00000000 	nop
   117b8:	00000000 	nop
   117bc:	00000000 	nop
   117c0:	00000000 	nop
   117c4:	00000000 	nop
   117c8:	00000000 	nop
   117cc:	00000000 	nop
   117d0:	00000000 	nop
   117d4:	00000000 	nop
   117d8:	00000000 	nop
   117dc:	00000000 	nop
   117e0:	00000000 	nop
   117e4:	00000000 	nop
   117e8:	00000000 	nop
   117ec:	00000000 	nop
   117f0:	00000000 	nop
   117f4:	00000000 	nop
   117f8:	00000000 	nop
   117fc:	00000000 	nop
   11800:	00000000 	nop
   11804:	00000000 	nop
   11808:	00000000 	nop
   1180c:	00000000 	nop
   11810:	00000000 	nop
   11814:	00000000 	nop
   11818:	00000000 	nop
   1181c:	00000000 	nop
   11820:	00000000 	nop
   11824:	00000000 	nop
   11828:	00000000 	nop
   1182c:	00000000 	nop
   11830:	00000000 	nop
   11834:	00000000 	nop
   11838:	00000000 	nop
   1183c:	00000000 	nop
   11840:	00000000 	nop
   11844:	00000000 	nop
   11848:	00000000 	nop
   1184c:	00000000 	nop
   11850:	00000000 	nop
   11854:	00000000 	nop
   11858:	00000000 	nop
   1185c:	00000000 	nop
   11860:	00000000 	nop
   11864:	00000000 	nop
   11868:	00000000 	nop
   1186c:	00000000 	nop
   11870:	00000000 	nop
   11874:	00000000 	nop
   11878:	00000000 	nop
   1187c:	00000000 	nop
   11880:	00000000 	nop
   11884:	00000000 	nop
   11888:	00000000 	nop
   1188c:	00000000 	nop
   11890:	00000000 	nop
   11894:	00000000 	nop
   11898:	00000000 	nop
   1189c:	00000000 	nop
   118a0:	00000000 	nop
   118a4:	00000000 	nop
   118a8:	00000000 	nop
   118ac:	00000000 	nop
   118b0:	00000000 	nop
   118b4:	00000000 	nop
   118b8:	00000000 	nop
   118bc:	00000000 	nop
   118c0:	00000000 	nop
   118c4:	00000000 	nop
   118c8:	00000000 	nop
   118cc:	00000000 	nop
   118d0:	00000000 	nop
   118d4:	00000000 	nop
   118d8:	00000000 	nop
   118dc:	00000000 	nop
   118e0:	00000000 	nop
   118e4:	00000000 	nop
   118e8:	00000000 	nop
   118ec:	00000000 	nop
   118f0:	00000000 	nop
   118f4:	00000000 	nop
   118f8:	00000000 	nop
   118fc:	00000000 	nop
   11900:	00000000 	nop
   11904:	00000000 	nop
   11908:	00000000 	nop
   1190c:	00000000 	nop
   11910:	00000000 	nop
   11914:	00000000 	nop
   11918:	00000000 	nop
   1191c:	00000000 	nop
   11920:	00000000 	nop
   11924:	00000000 	nop
   11928:	00000000 	nop
   1192c:	00000000 	nop
   11930:	00000000 	nop
   11934:	00000000 	nop
   11938:	00000000 	nop
   1193c:	00000000 	nop
   11940:	00000000 	nop
   11944:	00000000 	nop
   11948:	00000000 	nop
   1194c:	00000000 	nop
   11950:	00000000 	nop
   11954:	00000000 	nop
   11958:	00000000 	nop
   1195c:	00000000 	nop
   11960:	00000000 	nop
   11964:	00000000 	nop
   11968:	00000000 	nop
   1196c:	00000000 	nop
   11970:	00000000 	nop
   11974:	00000000 	nop
   11978:	00000000 	nop
   1197c:	00000000 	nop
   11980:	00000000 	nop
   11984:	00000000 	nop
   11988:	00000000 	nop
   1198c:	00000000 	nop
   11990:	00000000 	nop
   11994:	00000000 	nop
   11998:	00000000 	nop
   1199c:	00000000 	nop
   119a0:	00000000 	nop
   119a4:	00000000 	nop
   119a8:	00000000 	nop
   119ac:	00000000 	nop
   119b0:	00000000 	nop
   119b4:	00000000 	nop
   119b8:	00000000 	nop
   119bc:	00000000 	nop
   119c0:	00000000 	nop
   119c4:	00000000 	nop
   119c8:	00000000 	nop
   119cc:	00000000 	nop
   119d0:	00000000 	nop
   119d4:	00000000 	nop
   119d8:	00000000 	nop
   119dc:	00000000 	nop
   119e0:	00000000 	nop
   119e4:	00000000 	nop
   119e8:	00000000 	nop
   119ec:	00000000 	nop
   119f0:	00000000 	nop
   119f4:	00000000 	nop
   119f8:	00000000 	nop
   119fc:	00000000 	nop
   11a00:	00000000 	nop
   11a04:	00000000 	nop
   11a08:	00000000 	nop
   11a0c:	00000000 	nop
   11a10:	00000000 	nop
   11a14:	00000000 	nop
   11a18:	00000000 	nop
   11a1c:	00000000 	nop
   11a20:	00000000 	nop
   11a24:	00000000 	nop
   11a28:	00000000 	nop
   11a2c:	00000000 	nop
   11a30:	00000000 	nop
   11a34:	00000000 	nop
   11a38:	00000000 	nop
   11a3c:	00000000 	nop
   11a40:	00000000 	nop
   11a44:	00000000 	nop
   11a48:	00000000 	nop
   11a4c:	00000000 	nop
   11a50:	00000000 	nop
   11a54:	00000000 	nop
   11a58:	00000000 	nop
   11a5c:	00000000 	nop
   11a60:	00000000 	nop
   11a64:	00000000 	nop
   11a68:	00000000 	nop
   11a6c:	00000000 	nop
   11a70:	00000000 	nop
   11a74:	00000000 	nop
   11a78:	00000000 	nop
   11a7c:	00000000 	nop
   11a80:	00000000 	nop
   11a84:	00000000 	nop
   11a88:	00000000 	nop
   11a8c:	00000000 	nop
   11a90:	00000000 	nop
   11a94:	00000000 	nop
   11a98:	00000000 	nop
   11a9c:	00000000 	nop
   11aa0:	00000000 	nop
   11aa4:	00000000 	nop
   11aa8:	00000000 	nop
   11aac:	00000000 	nop
   11ab0:	00000000 	nop
   11ab4:	00000000 	nop
   11ab8:	00000000 	nop
   11abc:	00000000 	nop
   11ac0:	00000000 	nop
   11ac4:	00000000 	nop
   11ac8:	00000000 	nop
   11acc:	00000000 	nop
   11ad0:	00000000 	nop
   11ad4:	00000000 	nop
   11ad8:	00000000 	nop
   11adc:	00000000 	nop
   11ae0:	00000000 	nop
   11ae4:	00000000 	nop
   11ae8:	00000000 	nop
   11aec:	00000000 	nop
   11af0:	00000000 	nop
   11af4:	00000000 	nop
   11af8:	00000000 	nop
   11afc:	00000000 	nop
   11b00:	00000000 	nop
   11b04:	00000000 	nop
   11b08:	00000000 	nop
   11b0c:	00000000 	nop
   11b10:	00000000 	nop
   11b14:	00000000 	nop
   11b18:	00000000 	nop
   11b1c:	00000000 	nop
   11b20:	00000000 	nop
   11b24:	00000000 	nop
   11b28:	00000000 	nop
   11b2c:	00000000 	nop
   11b30:	00000000 	nop
   11b34:	00000000 	nop
   11b38:	00000000 	nop
   11b3c:	00000000 	nop
   11b40:	00000000 	nop
   11b44:	00000000 	nop
   11b48:	00000000 	nop
   11b4c:	00000000 	nop
   11b50:	00000000 	nop
   11b54:	00000000 	nop
   11b58:	00000000 	nop
   11b5c:	00000000 	nop
   11b60:	00000000 	nop
   11b64:	00000000 	nop
   11b68:	00000000 	nop
   11b6c:	00000000 	nop
   11b70:	00000000 	nop
   11b74:	00000000 	nop
   11b78:	00000000 	nop
   11b7c:	00000000 	nop
   11b80:	00000000 	nop
   11b84:	00000000 	nop
   11b88:	00000000 	nop
   11b8c:	00000000 	nop
   11b90:	00000000 	nop
   11b94:	00000000 	nop
   11b98:	00000000 	nop
   11b9c:	00000000 	nop
   11ba0:	00000000 	nop
   11ba4:	00000000 	nop
   11ba8:	00000000 	nop
   11bac:	00000000 	nop
   11bb0:	00000000 	nop
   11bb4:	00000000 	nop
   11bb8:	00000000 	nop
   11bbc:	00000000 	nop
   11bc0:	00000000 	nop
   11bc4:	00000000 	nop
   11bc8:	00000000 	nop
   11bcc:	00000000 	nop
   11bd0:	00000000 	nop
   11bd4:	00000000 	nop
   11bd8:	00000000 	nop
   11bdc:	00000000 	nop
   11be0:	00000000 	nop
   11be4:	00000000 	nop
   11be8:	00000000 	nop
   11bec:	00000000 	nop
   11bf0:	00000000 	nop
   11bf4:	00000000 	nop
   11bf8:	00000000 	nop
   11bfc:	00000000 	nop
   11c00:	00000000 	nop
   11c04:	00000000 	nop
   11c08:	00000000 	nop
   11c0c:	00000000 	nop
   11c10:	00000000 	nop
   11c14:	00000000 	nop
   11c18:	00000000 	nop
   11c1c:	00000000 	nop
   11c20:	00000000 	nop
   11c24:	00000000 	nop
   11c28:	00000000 	nop
   11c2c:	00000000 	nop
   11c30:	00000000 	nop
   11c34:	00000000 	nop
   11c38:	00000000 	nop
   11c3c:	00000000 	nop
   11c40:	00000000 	nop
   11c44:	00000000 	nop
   11c48:	00000000 	nop
   11c4c:	00000000 	nop
   11c50:	00000000 	nop
   11c54:	00000000 	nop
   11c58:	00000000 	nop
   11c5c:	00000000 	nop
   11c60:	00000000 	nop
   11c64:	00000000 	nop
   11c68:	00000000 	nop
   11c6c:	00000000 	nop
   11c70:	00000000 	nop
   11c74:	00000000 	nop
   11c78:	00000000 	nop
   11c7c:	00000000 	nop
   11c80:	00000000 	nop
   11c84:	00000000 	nop
   11c88:	00000000 	nop
   11c8c:	00000000 	nop
   11c90:	00000000 	nop
   11c94:	00000000 	nop
   11c98:	00000000 	nop
   11c9c:	00000000 	nop
   11ca0:	00000000 	nop
   11ca4:	00000000 	nop
   11ca8:	00000000 	nop
   11cac:	00000000 	nop
   11cb0:	00000000 	nop
   11cb4:	00000000 	nop
   11cb8:	00000000 	nop
   11cbc:	00000000 	nop
   11cc0:	00000000 	nop
   11cc4:	00000000 	nop
   11cc8:	00000000 	nop
   11ccc:	00000000 	nop
   11cd0:	00000000 	nop
   11cd4:	00000000 	nop
   11cd8:	00000000 	nop
   11cdc:	00000000 	nop
   11ce0:	00000000 	nop
   11ce4:	00000000 	nop
   11ce8:	00000000 	nop
   11cec:	00000000 	nop
   11cf0:	00000000 	nop
   11cf4:	00000000 	nop
   11cf8:	00000000 	nop
   11cfc:	00000000 	nop
   11d00:	00000000 	nop
   11d04:	00000000 	nop
   11d08:	00000000 	nop
   11d0c:	00000000 	nop
   11d10:	00000000 	nop
   11d14:	00000000 	nop
   11d18:	00000000 	nop
   11d1c:	00000000 	nop
   11d20:	00000000 	nop
   11d24:	00000000 	nop
   11d28:	00000000 	nop
   11d2c:	00000000 	nop
   11d30:	00000000 	nop
   11d34:	00000000 	nop
   11d38:	00000000 	nop
   11d3c:	00000000 	nop
   11d40:	00000000 	nop
   11d44:	00000000 	nop
   11d48:	00000000 	nop
   11d4c:	00000000 	nop
   11d50:	00000000 	nop
   11d54:	00000000 	nop
   11d58:	00000000 	nop
   11d5c:	00000000 	nop
   11d60:	00000000 	nop
   11d64:	00000000 	nop
   11d68:	00000000 	nop
   11d6c:	00000000 	nop
   11d70:	00000000 	nop
   11d74:	00000000 	nop
   11d78:	00000000 	nop
   11d7c:	00000000 	nop
   11d80:	00000000 	nop
   11d84:	00000000 	nop
   11d88:	00000000 	nop
   11d8c:	00000000 	nop
   11d90:	00000000 	nop
   11d94:	00000000 	nop
   11d98:	00000000 	nop
   11d9c:	00000000 	nop
   11da0:	00000000 	nop
   11da4:	00000000 	nop
   11da8:	00000000 	nop
   11dac:	00000000 	nop
   11db0:	00000000 	nop
   11db4:	00000000 	nop
   11db8:	00000000 	nop
   11dbc:	00000000 	nop
   11dc0:	00000000 	nop
   11dc4:	00000000 	nop
   11dc8:	00000000 	nop
   11dcc:	00000000 	nop
   11dd0:	00000000 	nop
   11dd4:	00000000 	nop
   11dd8:	00000000 	nop
   11ddc:	00000000 	nop
   11de0:	00000000 	nop
   11de4:	00000000 	nop
   11de8:	00000000 	nop
   11dec:	00000000 	nop
   11df0:	00000000 	nop
   11df4:	00000000 	nop
   11df8:	00000000 	nop
   11dfc:	00000000 	nop
   11e00:	00000000 	nop
   11e04:	00000000 	nop
   11e08:	00000000 	nop
   11e0c:	00000000 	nop
   11e10:	00000000 	nop
   11e14:	00000000 	nop
   11e18:	00000000 	nop
   11e1c:	00000000 	nop
   11e20:	00000000 	nop
   11e24:	00000000 	nop
   11e28:	00000000 	nop
   11e2c:	00000000 	nop
   11e30:	00000000 	nop
   11e34:	00000000 	nop
   11e38:	00000000 	nop
   11e3c:	00000000 	nop
   11e40:	00000000 	nop
   11e44:	00000000 	nop
   11e48:	00000000 	nop
   11e4c:	00000000 	nop
   11e50:	00000000 	nop
   11e54:	00000000 	nop
   11e58:	00000000 	nop
   11e5c:	00000000 	nop
   11e60:	00000000 	nop
   11e64:	00000000 	nop
   11e68:	00000000 	nop
   11e6c:	00000000 	nop
   11e70:	00000000 	nop
   11e74:	00000000 	nop
   11e78:	00000000 	nop
   11e7c:	00000000 	nop
   11e80:	00000000 	nop
   11e84:	00000000 	nop
   11e88:	00000000 	nop
   11e8c:	00000000 	nop
   11e90:	00000000 	nop
   11e94:	00000000 	nop
   11e98:	00000000 	nop
   11e9c:	00000000 	nop
   11ea0:	00000000 	nop
   11ea4:	00000000 	nop
   11ea8:	00000000 	nop
   11eac:	00000000 	nop
   11eb0:	00000000 	nop
   11eb4:	00000000 	nop
   11eb8:	00000000 	nop
   11ebc:	00000000 	nop
   11ec0:	00000000 	nop
   11ec4:	00000000 	nop
   11ec8:	00000000 	nop
   11ecc:	00000000 	nop
   11ed0:	00000000 	nop
   11ed4:	00000000 	nop
   11ed8:	00000000 	nop
   11edc:	00000000 	nop
   11ee0:	00000000 	nop
   11ee4:	00000000 	nop
   11ee8:	00000000 	nop
   11eec:	00000000 	nop
   11ef0:	00000000 	nop
   11ef4:	00000000 	nop
   11ef8:	00000000 	nop
   11efc:	00000000 	nop
   11f00:	00000000 	nop
   11f04:	00000000 	nop
   11f08:	00000000 	nop
   11f0c:	00000000 	nop
   11f10:	00000000 	nop
   11f14:	00000000 	nop
   11f18:	00000000 	nop
   11f1c:	00000000 	nop
   11f20:	00000000 	nop
   11f24:	00000000 	nop
   11f28:	00000000 	nop
   11f2c:	00000000 	nop
   11f30:	00000000 	nop
   11f34:	00000000 	nop
   11f38:	00000000 	nop
   11f3c:	00000000 	nop
   11f40:	00000000 	nop
   11f44:	00000000 	nop
   11f48:	00000000 	nop
   11f4c:	00000000 	nop
   11f50:	00000000 	nop
   11f54:	00000000 	nop
   11f58:	00000000 	nop
   11f5c:	00000000 	nop
   11f60:	00000000 	nop
   11f64:	00000000 	nop
   11f68:	00000000 	nop
   11f6c:	00000000 	nop
   11f70:	00000000 	nop
   11f74:	00000000 	nop
   11f78:	00000000 	nop
   11f7c:	00000000 	nop
   11f80:	00000000 	nop
   11f84:	00000000 	nop
   11f88:	00000000 	nop
   11f8c:	00000000 	nop
   11f90:	00000000 	nop
   11f94:	00000000 	nop
   11f98:	00000000 	nop
   11f9c:	00000000 	nop
   11fa0:	00000000 	nop
   11fa4:	00000000 	nop
   11fa8:	00000000 	nop
   11fac:	00000000 	nop
   11fb0:	00000000 	nop
   11fb4:	00000000 	nop
   11fb8:	00000000 	nop
   11fbc:	00000000 	nop
   11fc0:	00000000 	nop
   11fc4:	00000000 	nop
   11fc8:	00000000 	nop
   11fcc:	00000000 	nop
   11fd0:	00000000 	nop
   11fd4:	00000000 	nop
   11fd8:	00000000 	nop
   11fdc:	00000000 	nop
   11fe0:	00000000 	nop
   11fe4:	00000000 	nop
   11fe8:	00000000 	nop
   11fec:	00000000 	nop
   11ff0:	00000000 	nop
   11ff4:	00000000 	nop
   11ff8:	00000000 	nop
   11ffc:	00000000 	nop
   12000:	00000000 	nop
   12004:	00000000 	nop
   12008:	00000000 	nop
   1200c:	00000000 	nop
   12010:	00000000 	nop
   12014:	00000000 	nop
   12018:	00000000 	nop
   1201c:	00000000 	nop
   12020:	00000000 	nop
   12024:	00000000 	nop
   12028:	00000000 	nop
   1202c:	00000000 	nop
   12030:	00000000 	nop
   12034:	00000000 	nop
   12038:	00000000 	nop
   1203c:	00000000 	nop
   12040:	00000000 	nop
   12044:	00000000 	nop
   12048:	00000000 	nop
   1204c:	00000000 	nop
   12050:	00000000 	nop
   12054:	00000000 	nop
   12058:	00000000 	nop
   1205c:	00000000 	nop
   12060:	00000000 	nop
   12064:	00000000 	nop
   12068:	00000000 	nop
   1206c:	00000000 	nop
   12070:	00000000 	nop
   12074:	00000000 	nop
   12078:	00000000 	nop
   1207c:	00000000 	nop
   12080:	00000000 	nop
   12084:	00000000 	nop
   12088:	00000000 	nop
   1208c:	00000000 	nop
   12090:	00000000 	nop
   12094:	00000000 	nop
   12098:	00000000 	nop
   1209c:	00000000 	nop
   120a0:	00000000 	nop
   120a4:	00000000 	nop
   120a8:	00000000 	nop
   120ac:	00000000 	nop
   120b0:	00000000 	nop
   120b4:	00000000 	nop
   120b8:	00000000 	nop
   120bc:	00000000 	nop
   120c0:	00000000 	nop
   120c4:	00000000 	nop
   120c8:	00000000 	nop
   120cc:	00000000 	nop
   120d0:	00000000 	nop
   120d4:	00000000 	nop
   120d8:	00000000 	nop
   120dc:	00000000 	nop
   120e0:	00000000 	nop
   120e4:	00000000 	nop
   120e8:	00000000 	nop
   120ec:	00000000 	nop
   120f0:	00000000 	nop
   120f4:	00000000 	nop
   120f8:	00000000 	nop
   120fc:	00000000 	nop
   12100:	00000000 	nop
   12104:	00000000 	nop
   12108:	00000000 	nop
   1210c:	00000000 	nop
   12110:	00000000 	nop
   12114:	00000000 	nop
   12118:	00000000 	nop
   1211c:	00000000 	nop
   12120:	00000000 	nop
   12124:	00000000 	nop
   12128:	00000000 	nop
   1212c:	00000000 	nop
   12130:	00000000 	nop
   12134:	00000000 	nop
   12138:	00000000 	nop
   1213c:	00000000 	nop
   12140:	00000000 	nop
   12144:	00000000 	nop
   12148:	00000000 	nop
   1214c:	00000000 	nop
   12150:	00000000 	nop
   12154:	00000000 	nop
   12158:	00000000 	nop
   1215c:	00000000 	nop
   12160:	00000000 	nop
   12164:	00000000 	nop
   12168:	00000000 	nop
   1216c:	00000000 	nop
   12170:	00000000 	nop
   12174:	00000000 	nop
   12178:	00000000 	nop
   1217c:	00000000 	nop
   12180:	00000000 	nop
   12184:	00000000 	nop
   12188:	00000000 	nop
   1218c:	00000000 	nop
   12190:	00000000 	nop
   12194:	00000000 	nop
   12198:	00000000 	nop
   1219c:	00000000 	nop
   121a0:	00000000 	nop
   121a4:	00000000 	nop
   121a8:	00000000 	nop
   121ac:	00000000 	nop
   121b0:	00000000 	nop
   121b4:	00000000 	nop
   121b8:	00000000 	nop
   121bc:	00000000 	nop
   121c0:	00000000 	nop
   121c4:	00000000 	nop
   121c8:	00000000 	nop
   121cc:	00000000 	nop
   121d0:	00000000 	nop
   121d4:	00000000 	nop
   121d8:	00000000 	nop
   121dc:	00000000 	nop
   121e0:	00000000 	nop
   121e4:	00000000 	nop
   121e8:	00000000 	nop
   121ec:	00000000 	nop
   121f0:	00000000 	nop
   121f4:	00000000 	nop
   121f8:	00000000 	nop
   121fc:	00000000 	nop
   12200:	00000000 	nop
   12204:	00000000 	nop
   12208:	00000000 	nop
   1220c:	00000000 	nop
   12210:	00000000 	nop
   12214:	00000000 	nop
   12218:	00000000 	nop
   1221c:	00000000 	nop
   12220:	00000000 	nop
   12224:	00000000 	nop
   12228:	00000000 	nop
   1222c:	00000000 	nop
   12230:	00000000 	nop
   12234:	00000000 	nop
   12238:	00000000 	nop
   1223c:	00000000 	nop
   12240:	00000000 	nop
   12244:	00000000 	nop
   12248:	00000000 	nop
   1224c:	00000000 	nop
   12250:	00000000 	nop
   12254:	00000000 	nop
   12258:	00000000 	nop
   1225c:	00000000 	nop
   12260:	00000000 	nop
   12264:	00000000 	nop
   12268:	00000000 	nop
   1226c:	00000000 	nop
   12270:	00000000 	nop
   12274:	00000000 	nop
   12278:	00000000 	nop
   1227c:	00000000 	nop
   12280:	00000000 	nop
   12284:	00000000 	nop
   12288:	00000000 	nop
   1228c:	00000000 	nop
   12290:	00000000 	nop
   12294:	00000000 	nop
   12298:	00000000 	nop
   1229c:	00000000 	nop
   122a0:	00000000 	nop
   122a4:	00000000 	nop
   122a8:	00000000 	nop
   122ac:	00000000 	nop
   122b0:	00000000 	nop
   122b4:	00000000 	nop
   122b8:	00000000 	nop
   122bc:	00000000 	nop
   122c0:	00000000 	nop
   122c4:	00000000 	nop
   122c8:	00000000 	nop
   122cc:	00000000 	nop
   122d0:	00000000 	nop
   122d4:	00000000 	nop
   122d8:	00000000 	nop
   122dc:	00000000 	nop
   122e0:	00000000 	nop
   122e4:	00000000 	nop
   122e8:	00000000 	nop
   122ec:	00000000 	nop
   122f0:	00000000 	nop
   122f4:	00000000 	nop
   122f8:	00000000 	nop
   122fc:	00000000 	nop
   12300:	00000000 	nop
   12304:	00000000 	nop
   12308:	00000000 	nop
   1230c:	00000000 	nop
   12310:	00000000 	nop
   12314:	00000000 	nop
   12318:	00000000 	nop
   1231c:	00000000 	nop
   12320:	00000000 	nop
   12324:	00000000 	nop
   12328:	00000000 	nop
   1232c:	00000000 	nop
   12330:	00000000 	nop
   12334:	00000000 	nop
   12338:	00000000 	nop
   1233c:	00000000 	nop
   12340:	00000000 	nop
   12344:	00000000 	nop
   12348:	00000000 	nop
   1234c:	00000000 	nop
   12350:	00000000 	nop
   12354:	00000000 	nop
   12358:	00000000 	nop
   1235c:	00000000 	nop
   12360:	00000000 	nop
   12364:	00000000 	nop
   12368:	00000000 	nop
   1236c:	00000000 	nop
   12370:	00000000 	nop
   12374:	00000000 	nop
   12378:	00000000 	nop
   1237c:	00000000 	nop
   12380:	00000000 	nop
   12384:	00000000 	nop
   12388:	00000000 	nop
   1238c:	00000000 	nop
   12390:	00000000 	nop
   12394:	00000000 	nop
   12398:	00000000 	nop
   1239c:	00000000 	nop
   123a0:	00000000 	nop
   123a4:	00000000 	nop
   123a8:	00000000 	nop
   123ac:	00000000 	nop
   123b0:	00000000 	nop
   123b4:	00000000 	nop
   123b8:	00000000 	nop
   123bc:	00000000 	nop
   123c0:	00000000 	nop
   123c4:	00000000 	nop
   123c8:	00000000 	nop
   123cc:	00000000 	nop
   123d0:	00000000 	nop
   123d4:	00000000 	nop
   123d8:	00000000 	nop
   123dc:	00000000 	nop
   123e0:	00000000 	nop
   123e4:	00000000 	nop
   123e8:	00000000 	nop
   123ec:	00000000 	nop
   123f0:	00000000 	nop
   123f4:	00000000 	nop
   123f8:	00000000 	nop
   123fc:	00000000 	nop
   12400:	00000000 	nop
   12404:	00000000 	nop
   12408:	00000000 	nop
   1240c:	00000000 	nop
   12410:	00000000 	nop
   12414:	00000000 	nop
   12418:	00000000 	nop
   1241c:	00000000 	nop
   12420:	00000000 	nop
   12424:	00000000 	nop
   12428:	00000000 	nop
   1242c:	00000000 	nop
   12430:	00000000 	nop
   12434:	00000000 	nop
   12438:	00000000 	nop
   1243c:	00000000 	nop
   12440:	00000000 	nop
   12444:	00000000 	nop
   12448:	00000000 	nop
   1244c:	00000000 	nop
   12450:	00000000 	nop
   12454:	00000000 	nop
   12458:	00000000 	nop
   1245c:	00000000 	nop
   12460:	00000000 	nop
   12464:	00000000 	nop
   12468:	00000000 	nop
   1246c:	00000000 	nop
   12470:	00000000 	nop
   12474:	00000000 	nop
   12478:	00000000 	nop
   1247c:	00000000 	nop
   12480:	00000000 	nop
   12484:	00000000 	nop
   12488:	00000000 	nop
   1248c:	00000000 	nop
   12490:	00000000 	nop
   12494:	00000000 	nop
   12498:	00000000 	nop
   1249c:	00000000 	nop
   124a0:	00000000 	nop
   124a4:	00000000 	nop
   124a8:	00000000 	nop
   124ac:	00000000 	nop
   124b0:	00000000 	nop
   124b4:	00000000 	nop
   124b8:	00000000 	nop
   124bc:	00000000 	nop
   124c0:	00000000 	nop
   124c4:	00000000 	nop
   124c8:	00000000 	nop
   124cc:	00000000 	nop
   124d0:	00000000 	nop
   124d4:	00000000 	nop
   124d8:	00000000 	nop
   124dc:	00000000 	nop
   124e0:	00000000 	nop
   124e4:	00000000 	nop
   124e8:	00000000 	nop
   124ec:	00000000 	nop
   124f0:	00000000 	nop
   124f4:	00000000 	nop
   124f8:	00000000 	nop
   124fc:	00000000 	nop
   12500:	00000000 	nop
   12504:	00000000 	nop
   12508:	00000000 	nop
   1250c:	00000000 	nop
   12510:	00000000 	nop
   12514:	00000000 	nop
   12518:	00000000 	nop
   1251c:	00000000 	nop
   12520:	00000000 	nop
   12524:	00000000 	nop
   12528:	00000000 	nop
   1252c:	00000000 	nop
   12530:	00000000 	nop
   12534:	00000000 	nop
   12538:	00000000 	nop
   1253c:	00000000 	nop
   12540:	00000000 	nop
   12544:	00000000 	nop
   12548:	00000000 	nop
   1254c:	00000000 	nop
   12550:	00000000 	nop
   12554:	00000000 	nop
   12558:	00000000 	nop
   1255c:	00000000 	nop
   12560:	00000000 	nop
   12564:	00000000 	nop
   12568:	00000000 	nop
   1256c:	00000000 	nop
   12570:	00000000 	nop
   12574:	00000000 	nop
   12578:	00000000 	nop
   1257c:	00000000 	nop
   12580:	00000000 	nop
   12584:	00000000 	nop
   12588:	00000000 	nop
   1258c:	00000000 	nop
   12590:	00000000 	nop
   12594:	00000000 	nop
   12598:	00000000 	nop
   1259c:	00000000 	nop
   125a0:	00000000 	nop
   125a4:	00000000 	nop
   125a8:	00000000 	nop
   125ac:	00000000 	nop
   125b0:	00000000 	nop
   125b4:	00000000 	nop
   125b8:	00000000 	nop
   125bc:	00000000 	nop
   125c0:	00000000 	nop
   125c4:	00000000 	nop
   125c8:	00000000 	nop
   125cc:	00000000 	nop
   125d0:	00000000 	nop
   125d4:	00000000 	nop
   125d8:	00000000 	nop
   125dc:	00000000 	nop
   125e0:	00000000 	nop
   125e4:	00000000 	nop
   125e8:	00000000 	nop
   125ec:	00000000 	nop
   125f0:	00000000 	nop
   125f4:	00000000 	nop
   125f8:	00000000 	nop
   125fc:	00000000 	nop
   12600:	00000000 	nop
   12604:	00000000 	nop
   12608:	00000000 	nop
   1260c:	00000000 	nop
   12610:	00000000 	nop
   12614:	00000000 	nop
   12618:	00000000 	nop
   1261c:	00000000 	nop
   12620:	00000000 	nop
   12624:	00000000 	nop
   12628:	00000000 	nop
   1262c:	00000000 	nop
   12630:	00000000 	nop
   12634:	00000000 	nop
   12638:	00000000 	nop
   1263c:	00000000 	nop
   12640:	00000000 	nop
   12644:	00000000 	nop
   12648:	00000000 	nop
   1264c:	00000000 	nop
   12650:	00000000 	nop
   12654:	00000000 	nop
   12658:	00000000 	nop
   1265c:	00000000 	nop
   12660:	00000000 	nop
   12664:	00000000 	nop
   12668:	00000000 	nop
   1266c:	00000000 	nop
   12670:	00000000 	nop
   12674:	00000000 	nop
   12678:	00000000 	nop
   1267c:	00000000 	nop
   12680:	00000000 	nop
   12684:	00000000 	nop
   12688:	00000000 	nop
   1268c:	00000000 	nop
   12690:	00000000 	nop
   12694:	00000000 	nop
   12698:	00000000 	nop
   1269c:	00000000 	nop
   126a0:	00000000 	nop
   126a4:	00000000 	nop
   126a8:	00000000 	nop
   126ac:	00000000 	nop
   126b0:	00000000 	nop
   126b4:	00000000 	nop
   126b8:	00000000 	nop
   126bc:	00000000 	nop
   126c0:	00000000 	nop
   126c4:	00000000 	nop
   126c8:	00000000 	nop
   126cc:	00000000 	nop
   126d0:	00000000 	nop
   126d4:	00000000 	nop
   126d8:	00000000 	nop
   126dc:	00000000 	nop
   126e0:	00000000 	nop
   126e4:	00000000 	nop
   126e8:	00000000 	nop
   126ec:	00000000 	nop
   126f0:	00000000 	nop
   126f4:	00000000 	nop
   126f8:	00000000 	nop
   126fc:	00000000 	nop
   12700:	00000000 	nop
   12704:	00000000 	nop
   12708:	00000000 	nop
   1270c:	00000000 	nop
   12710:	00000000 	nop
   12714:	00000000 	nop
   12718:	00000000 	nop
   1271c:	00000000 	nop
   12720:	00000000 	nop
   12724:	00000000 	nop
   12728:	00000000 	nop
   1272c:	00000000 	nop
   12730:	00000000 	nop
   12734:	00000000 	nop
   12738:	00000000 	nop
   1273c:	00000000 	nop
   12740:	00000000 	nop
   12744:	00000000 	nop
   12748:	00000000 	nop
   1274c:	00000000 	nop
   12750:	00000000 	nop
   12754:	00000000 	nop
   12758:	00000000 	nop
   1275c:	00000000 	nop
   12760:	00000000 	nop
   12764:	00000000 	nop
   12768:	00000000 	nop
   1276c:	00000000 	nop
   12770:	00000000 	nop
   12774:	00000000 	nop
   12778:	00000000 	nop
   1277c:	00000000 	nop
   12780:	00000000 	nop
   12784:	00000000 	nop
   12788:	00000000 	nop
   1278c:	00000000 	nop
   12790:	00000000 	nop
   12794:	00000000 	nop
   12798:	00000000 	nop
   1279c:	00000000 	nop
   127a0:	00000000 	nop
   127a4:	00000000 	nop
   127a8:	00000000 	nop
   127ac:	00000000 	nop
   127b0:	00000000 	nop
   127b4:	00000000 	nop
   127b8:	00000000 	nop
   127bc:	00000000 	nop
   127c0:	00000000 	nop
   127c4:	00000000 	nop
   127c8:	00000000 	nop
   127cc:	00000000 	nop
   127d0:	00000000 	nop
   127d4:	00000000 	nop
   127d8:	00000000 	nop
   127dc:	00000000 	nop
   127e0:	00000000 	nop
   127e4:	00000000 	nop
   127e8:	00000000 	nop
   127ec:	00000000 	nop
   127f0:	00000000 	nop
   127f4:	00000000 	nop
   127f8:	00000000 	nop
   127fc:	00000000 	nop
   12800:	00000000 	nop
   12804:	00000000 	nop
   12808:	00000000 	nop
   1280c:	00000000 	nop
   12810:	00000000 	nop
   12814:	00000000 	nop
   12818:	00000000 	nop
   1281c:	00000000 	nop
   12820:	00000000 	nop
   12824:	00000000 	nop
   12828:	00000000 	nop
   1282c:	00000000 	nop
   12830:	00000000 	nop
   12834:	00000000 	nop
   12838:	00000000 	nop
   1283c:	00000000 	nop
   12840:	00000000 	nop
   12844:	00000000 	nop
   12848:	00000000 	nop
   1284c:	00000000 	nop
   12850:	00000000 	nop
   12854:	00000000 	nop
   12858:	00000000 	nop
   1285c:	00000000 	nop
   12860:	00000000 	nop
   12864:	00000000 	nop
   12868:	00000000 	nop
   1286c:	00000000 	nop
   12870:	00000000 	nop
   12874:	00000000 	nop
   12878:	00000000 	nop
   1287c:	00000000 	nop
   12880:	00000000 	nop
   12884:	00000000 	nop
   12888:	00000000 	nop
   1288c:	00000000 	nop
   12890:	00000000 	nop
   12894:	00000000 	nop
   12898:	00000000 	nop
   1289c:	00000000 	nop
   128a0:	00000000 	nop
   128a4:	00000000 	nop
   128a8:	00000000 	nop
   128ac:	00000000 	nop
   128b0:	00000000 	nop
   128b4:	00000000 	nop
   128b8:	00000000 	nop
   128bc:	00000000 	nop
   128c0:	00000000 	nop
   128c4:	00000000 	nop
   128c8:	00000000 	nop
   128cc:	00000000 	nop
   128d0:	00000000 	nop
   128d4:	00000000 	nop
   128d8:	00000000 	nop
   128dc:	00000000 	nop
   128e0:	00000000 	nop
   128e4:	00000000 	nop
   128e8:	00000000 	nop
   128ec:	00000000 	nop
   128f0:	00000000 	nop
   128f4:	00000000 	nop
   128f8:	00000000 	nop
   128fc:	00000000 	nop
   12900:	00000000 	nop
   12904:	00000000 	nop
   12908:	00000000 	nop
   1290c:	00000000 	nop
   12910:	00000000 	nop
   12914:	00000000 	nop
   12918:	00000000 	nop
   1291c:	00000000 	nop
   12920:	00000000 	nop
   12924:	00000000 	nop
   12928:	00000000 	nop
   1292c:	00000000 	nop
   12930:	00000000 	nop
   12934:	00000000 	nop
   12938:	00000000 	nop
   1293c:	00000000 	nop
   12940:	00000000 	nop
   12944:	00000000 	nop
   12948:	00000000 	nop
   1294c:	00000000 	nop
   12950:	00000000 	nop
   12954:	00000000 	nop
   12958:	00000000 	nop
   1295c:	00000000 	nop
   12960:	00000000 	nop
   12964:	00000000 	nop
   12968:	00000000 	nop
   1296c:	00000000 	nop
   12970:	00000000 	nop
   12974:	00000000 	nop
   12978:	00000000 	nop
   1297c:	00000000 	nop
   12980:	00000000 	nop
   12984:	00000000 	nop
   12988:	00000000 	nop
   1298c:	00000000 	nop
   12990:	00000000 	nop
   12994:	00000000 	nop
   12998:	00000000 	nop
   1299c:	00000000 	nop
   129a0:	00000000 	nop
   129a4:	00000000 	nop
   129a8:	00000000 	nop
   129ac:	00000000 	nop
   129b0:	00000000 	nop
   129b4:	00000000 	nop
   129b8:	00000000 	nop
   129bc:	00000000 	nop
   129c0:	00000000 	nop
   129c4:	00000000 	nop
   129c8:	00000000 	nop
   129cc:	00000000 	nop
   129d0:	00000000 	nop
   129d4:	00000000 	nop
   129d8:	00000000 	nop
   129dc:	00000000 	nop
   129e0:	00000000 	nop
   129e4:	00000000 	nop
   129e8:	00000000 	nop
   129ec:	00000000 	nop
   129f0:	00000000 	nop
   129f4:	00000000 	nop
   129f8:	00000000 	nop
   129fc:	00000000 	nop
   12a00:	00000000 	nop
   12a04:	00000000 	nop
   12a08:	00000000 	nop
   12a0c:	00000000 	nop
   12a10:	00000000 	nop
   12a14:	00000000 	nop
   12a18:	00000000 	nop
   12a1c:	00000000 	nop
   12a20:	00000000 	nop
   12a24:	00000000 	nop
   12a28:	00000000 	nop
   12a2c:	00000000 	nop
   12a30:	00000000 	nop
   12a34:	00000000 	nop
   12a38:	00000000 	nop
   12a3c:	00000000 	nop
   12a40:	00000000 	nop
   12a44:	00000000 	nop
   12a48:	00000000 	nop
   12a4c:	00000000 	nop
   12a50:	00000000 	nop
   12a54:	00000000 	nop
   12a58:	00000000 	nop
   12a5c:	00000000 	nop
   12a60:	00000000 	nop
   12a64:	00000000 	nop
   12a68:	00000000 	nop
   12a6c:	00000000 	nop
   12a70:	00000000 	nop
   12a74:	00000000 	nop
   12a78:	00000000 	nop
   12a7c:	00000000 	nop
   12a80:	00000000 	nop
   12a84:	00000000 	nop
   12a88:	00000000 	nop
   12a8c:	00000000 	nop
   12a90:	00000000 	nop
   12a94:	00000000 	nop
   12a98:	00000000 	nop
   12a9c:	00000000 	nop
   12aa0:	00000000 	nop
   12aa4:	00000000 	nop
   12aa8:	00000000 	nop
   12aac:	00000000 	nop
   12ab0:	00000000 	nop
   12ab4:	00000000 	nop
   12ab8:	00000000 	nop
   12abc:	00000000 	nop
   12ac0:	00000000 	nop
   12ac4:	00000000 	nop
   12ac8:	00000000 	nop
   12acc:	00000000 	nop
   12ad0:	00000000 	nop
   12ad4:	00000000 	nop
   12ad8:	00000000 	nop
   12adc:	00000000 	nop
   12ae0:	00000000 	nop
   12ae4:	00000000 	nop
   12ae8:	00000000 	nop
   12aec:	00000000 	nop
   12af0:	00000000 	nop
   12af4:	00000000 	nop
   12af8:	00000000 	nop
   12afc:	00000000 	nop
   12b00:	00000000 	nop
   12b04:	00000000 	nop
   12b08:	00000000 	nop
   12b0c:	00000000 	nop
   12b10:	00000000 	nop
   12b14:	00000000 	nop
   12b18:	00000000 	nop
   12b1c:	00000000 	nop
   12b20:	00000000 	nop
   12b24:	00000000 	nop
   12b28:	00000000 	nop
   12b2c:	00000000 	nop
   12b30:	00000000 	nop
   12b34:	00000000 	nop
   12b38:	00000000 	nop
   12b3c:	00000000 	nop
   12b40:	00000000 	nop
   12b44:	00000000 	nop
   12b48:	00000000 	nop
   12b4c:	00000000 	nop
   12b50:	00000000 	nop
   12b54:	00000000 	nop
   12b58:	00000000 	nop
   12b5c:	00000000 	nop
   12b60:	00000000 	nop
   12b64:	00000000 	nop
   12b68:	00000000 	nop
   12b6c:	00000000 	nop
   12b70:	00000000 	nop
   12b74:	00000000 	nop
   12b78:	00000000 	nop
   12b7c:	00000000 	nop
   12b80:	00000000 	nop
   12b84:	00000000 	nop
   12b88:	00000000 	nop
   12b8c:	00000000 	nop
   12b90:	00000000 	nop
   12b94:	00000000 	nop
   12b98:	00000000 	nop
   12b9c:	00000000 	nop
   12ba0:	00000000 	nop
   12ba4:	00000000 	nop
   12ba8:	00000000 	nop
   12bac:	00000000 	nop
   12bb0:	00000000 	nop
   12bb4:	00000000 	nop
   12bb8:	00000000 	nop
   12bbc:	00000000 	nop
   12bc0:	00000000 	nop
   12bc4:	00000000 	nop
   12bc8:	00000000 	nop
   12bcc:	00000000 	nop
   12bd0:	00000000 	nop
   12bd4:	00000000 	nop
   12bd8:	00000000 	nop
   12bdc:	00000000 	nop
   12be0:	00000000 	nop
   12be4:	00000000 	nop
   12be8:	00000000 	nop
   12bec:	00000000 	nop
   12bf0:	00000000 	nop
   12bf4:	00000000 	nop
   12bf8:	00000000 	nop
   12bfc:	00000000 	nop
   12c00:	00000000 	nop
   12c04:	00000000 	nop
   12c08:	00000000 	nop
   12c0c:	00000000 	nop
   12c10:	00000000 	nop
   12c14:	00000000 	nop
   12c18:	00000000 	nop
   12c1c:	00000000 	nop
   12c20:	00000000 	nop
   12c24:	00000000 	nop
   12c28:	00000000 	nop
   12c2c:	00000000 	nop
   12c30:	00000000 	nop
   12c34:	00000000 	nop
   12c38:	00000000 	nop
   12c3c:	00000000 	nop
   12c40:	00000000 	nop
   12c44:	00000000 	nop
   12c48:	00000000 	nop
   12c4c:	00000000 	nop
   12c50:	00000000 	nop
   12c54:	00000000 	nop
   12c58:	00000000 	nop
   12c5c:	00000000 	nop
   12c60:	00000000 	nop
   12c64:	00000000 	nop
   12c68:	00000000 	nop
   12c6c:	00000000 	nop
   12c70:	00000000 	nop
   12c74:	00000000 	nop
   12c78:	00000000 	nop
   12c7c:	00000000 	nop
   12c80:	00000000 	nop
   12c84:	00000000 	nop
   12c88:	00000000 	nop
   12c8c:	00000000 	nop
   12c90:	00000000 	nop
   12c94:	00000000 	nop
   12c98:	00000000 	nop
   12c9c:	00000000 	nop
   12ca0:	00000000 	nop
   12ca4:	00000000 	nop
   12ca8:	00000000 	nop
   12cac:	00000000 	nop
   12cb0:	00000000 	nop
   12cb4:	00000000 	nop
   12cb8:	00000000 	nop
   12cbc:	00000000 	nop
   12cc0:	00000000 	nop
   12cc4:	00000000 	nop
   12cc8:	00000000 	nop
   12ccc:	00000000 	nop
   12cd0:	00000000 	nop
   12cd4:	00000000 	nop
   12cd8:	00000000 	nop
   12cdc:	00000000 	nop
   12ce0:	00000000 	nop
   12ce4:	00000000 	nop
   12ce8:	00000000 	nop
   12cec:	00000000 	nop
   12cf0:	00000000 	nop
   12cf4:	00000000 	nop
   12cf8:	00000000 	nop
   12cfc:	00000000 	nop
   12d00:	00000000 	nop
   12d04:	00000000 	nop
   12d08:	00000000 	nop
   12d0c:	00000000 	nop
   12d10:	00000000 	nop
   12d14:	00000000 	nop
   12d18:	00000000 	nop
   12d1c:	00000000 	nop
   12d20:	00000000 	nop
   12d24:	00000000 	nop
   12d28:	00000000 	nop
   12d2c:	00000000 	nop
   12d30:	00000000 	nop
   12d34:	00000000 	nop
   12d38:	00000000 	nop
   12d3c:	00000000 	nop
   12d40:	00000000 	nop
   12d44:	00000000 	nop
   12d48:	00000000 	nop
   12d4c:	00000000 	nop
   12d50:	00000000 	nop
   12d54:	00000000 	nop
   12d58:	00000000 	nop
   12d5c:	00000000 	nop
   12d60:	00000000 	nop
   12d64:	00000000 	nop
   12d68:	00000000 	nop
   12d6c:	00000000 	nop
   12d70:	00000000 	nop
   12d74:	00000000 	nop
   12d78:	00000000 	nop
   12d7c:	00000000 	nop
   12d80:	00000000 	nop
   12d84:	00000000 	nop
   12d88:	00000000 	nop
   12d8c:	00000000 	nop
   12d90:	00000000 	nop
   12d94:	00000000 	nop
   12d98:	00000000 	nop
   12d9c:	00000000 	nop
   12da0:	00000000 	nop
   12da4:	00000000 	nop
   12da8:	00000000 	nop
   12dac:	00000000 	nop
   12db0:	00000000 	nop
   12db4:	00000000 	nop
   12db8:	00000000 	nop
   12dbc:	00000000 	nop
   12dc0:	00000000 	nop
   12dc4:	00000000 	nop
   12dc8:	00000000 	nop
   12dcc:	00000000 	nop
   12dd0:	00000000 	nop
   12dd4:	00000000 	nop
   12dd8:	00000000 	nop
   12ddc:	00000000 	nop
   12de0:	00000000 	nop
   12de4:	00000000 	nop
   12de8:	00000000 	nop
   12dec:	00000000 	nop
   12df0:	00000000 	nop
   12df4:	00000000 	nop
   12df8:	00000000 	nop
   12dfc:	00000000 	nop
   12e00:	00000000 	nop
   12e04:	00000000 	nop
   12e08:	00000000 	nop
   12e0c:	00000000 	nop
   12e10:	00000000 	nop
   12e14:	00000000 	nop
   12e18:	00000000 	nop
   12e1c:	00000000 	nop
   12e20:	00000000 	nop
   12e24:	00000000 	nop
   12e28:	00000000 	nop
   12e2c:	00000000 	nop
   12e30:	00000000 	nop
   12e34:	00000000 	nop
   12e38:	00000000 	nop
   12e3c:	00000000 	nop
   12e40:	00000000 	nop
   12e44:	00000000 	nop
   12e48:	00000000 	nop
   12e4c:	00000000 	nop
   12e50:	00000000 	nop
   12e54:	00000000 	nop
   12e58:	00000000 	nop
   12e5c:	00000000 	nop
   12e60:	00000000 	nop
   12e64:	00000000 	nop
   12e68:	00000000 	nop
   12e6c:	00000000 	nop
   12e70:	00000000 	nop
   12e74:	00000000 	nop
   12e78:	00000000 	nop
   12e7c:	00000000 	nop
   12e80:	00000000 	nop
   12e84:	00000000 	nop
   12e88:	00000000 	nop
   12e8c:	00000000 	nop
   12e90:	00000000 	nop
   12e94:	00000000 	nop
   12e98:	00000000 	nop
   12e9c:	00000000 	nop
   12ea0:	00000000 	nop
   12ea4:	00000000 	nop
   12ea8:	00000000 	nop
   12eac:	00000000 	nop
   12eb0:	00000000 	nop
   12eb4:	00000000 	nop
   12eb8:	00000000 	nop
   12ebc:	00000000 	nop
   12ec0:	00000000 	nop
   12ec4:	00000000 	nop
   12ec8:	00000000 	nop
   12ecc:	00000000 	nop
   12ed0:	00000000 	nop
   12ed4:	00000000 	nop
   12ed8:	00000000 	nop
   12edc:	00000000 	nop
   12ee0:	00000000 	nop
   12ee4:	00000000 	nop
   12ee8:	00000000 	nop
   12eec:	00000000 	nop
   12ef0:	00000000 	nop
   12ef4:	00000000 	nop
   12ef8:	00000000 	nop
   12efc:	00000000 	nop
   12f00:	00000000 	nop
   12f04:	00000000 	nop
   12f08:	00000000 	nop
   12f0c:	00000000 	nop
   12f10:	00000000 	nop
   12f14:	00000000 	nop
   12f18:	00000000 	nop
   12f1c:	00000000 	nop
   12f20:	00000000 	nop
   12f24:	00000000 	nop
   12f28:	00000000 	nop
   12f2c:	00000000 	nop
   12f30:	00000000 	nop
   12f34:	00000000 	nop
   12f38:	00000000 	nop
   12f3c:	00000000 	nop
   12f40:	00000000 	nop
   12f44:	00000000 	nop
   12f48:	00000000 	nop
   12f4c:	00000000 	nop
   12f50:	00000000 	nop
   12f54:	00000000 	nop
   12f58:	00000000 	nop
   12f5c:	00000000 	nop
   12f60:	00000000 	nop
   12f64:	00000000 	nop
   12f68:	00000000 	nop
   12f6c:	00000000 	nop
   12f70:	00000000 	nop
   12f74:	00000000 	nop
   12f78:	00000000 	nop
   12f7c:	00000000 	nop
   12f80:	00000000 	nop
   12f84:	00000000 	nop
   12f88:	00000000 	nop
   12f8c:	00000000 	nop
   12f90:	00000000 	nop
   12f94:	00000000 	nop
   12f98:	00000000 	nop
   12f9c:	00000000 	nop
   12fa0:	00000000 	nop
   12fa4:	00000000 	nop
   12fa8:	00000000 	nop
   12fac:	00000000 	nop
   12fb0:	00000000 	nop
   12fb4:	00000000 	nop
   12fb8:	00000000 	nop
   12fbc:	00000000 	nop
   12fc0:	00000000 	nop
   12fc4:	00000000 	nop
   12fc8:	00000000 	nop
   12fcc:	00000000 	nop
   12fd0:	00000000 	nop
   12fd4:	00000000 	nop
   12fd8:	00000000 	nop
   12fdc:	00000000 	nop
   12fe0:	00000000 	nop
   12fe4:	00000000 	nop
   12fe8:	00000000 	nop
   12fec:	00000000 	nop
   12ff0:	00000000 	nop
   12ff4:	00000000 	nop
   12ff8:	00000000 	nop
   12ffc:	00000000 	nop
   13000:	00000000 	nop
   13004:	00000000 	nop
   13008:	00000000 	nop
   1300c:	00000000 	nop
   13010:	00000000 	nop
   13014:	00000000 	nop
   13018:	00000000 	nop
   1301c:	00000000 	nop
   13020:	00000000 	nop
   13024:	00000000 	nop
   13028:	00000000 	nop
   1302c:	00000000 	nop
   13030:	00000000 	nop
   13034:	00000000 	nop
   13038:	00000000 	nop
   1303c:	00000000 	nop
   13040:	00000000 	nop
   13044:	00000000 	nop
   13048:	00000000 	nop
   1304c:	00000000 	nop
   13050:	00000000 	nop
   13054:	00000000 	nop
   13058:	00000000 	nop
   1305c:	00000000 	nop
   13060:	00000000 	nop
   13064:	00000000 	nop
   13068:	00000000 	nop
   1306c:	00000000 	nop
   13070:	00000000 	nop
   13074:	00000000 	nop
   13078:	00000000 	nop
   1307c:	00000000 	nop
   13080:	00000000 	nop
   13084:	00000000 	nop
   13088:	00000000 	nop
   1308c:	00000000 	nop
   13090:	00000000 	nop
   13094:	00000000 	nop
   13098:	00000000 	nop
   1309c:	00000000 	nop
   130a0:	00000000 	nop
   130a4:	00000000 	nop
   130a8:	00000000 	nop
   130ac:	00000000 	nop
   130b0:	00000000 	nop
   130b4:	00000000 	nop
   130b8:	00000000 	nop
   130bc:	00000000 	nop
   130c0:	00000000 	nop
   130c4:	00000000 	nop
   130c8:	00000000 	nop
   130cc:	00000000 	nop
   130d0:	00000000 	nop
   130d4:	00000000 	nop
   130d8:	00000000 	nop
   130dc:	00000000 	nop
   130e0:	00000000 	nop
   130e4:	00000000 	nop
   130e8:	00000000 	nop
   130ec:	00000000 	nop
   130f0:	00000000 	nop
   130f4:	00000000 	nop
   130f8:	00000000 	nop
   130fc:	00000000 	nop
   13100:	00000000 	nop
   13104:	00000000 	nop
   13108:	00000000 	nop
   1310c:	00000000 	nop
   13110:	00000000 	nop
   13114:	00000000 	nop
   13118:	00000000 	nop
   1311c:	00000000 	nop
   13120:	00000000 	nop
   13124:	00000000 	nop
   13128:	00000000 	nop
   1312c:	00000000 	nop
   13130:	00000000 	nop
   13134:	00000000 	nop
   13138:	00000000 	nop
   1313c:	00000000 	nop
   13140:	00000000 	nop
   13144:	00000000 	nop
   13148:	00000000 	nop
   1314c:	00000000 	nop
   13150:	00000000 	nop
   13154:	00000000 	nop
   13158:	00000000 	nop
   1315c:	00000000 	nop
   13160:	00000000 	nop
   13164:	00000000 	nop
   13168:	00000000 	nop
   1316c:	00000000 	nop
   13170:	00000000 	nop
   13174:	00000000 	nop
   13178:	00000000 	nop
   1317c:	00000000 	nop
   13180:	00000000 	nop
   13184:	00000000 	nop
   13188:	00000000 	nop
   1318c:	00000000 	nop
   13190:	00000000 	nop
   13194:	00000000 	nop
   13198:	00000000 	nop
   1319c:	00000000 	nop
   131a0:	00000000 	nop
   131a4:	00000000 	nop
   131a8:	00000000 	nop
   131ac:	00000000 	nop
   131b0:	00000000 	nop
   131b4:	00000000 	nop
   131b8:	00000000 	nop
   131bc:	00000000 	nop
   131c0:	00000000 	nop
   131c4:	00000000 	nop
   131c8:	00000000 	nop
   131cc:	00000000 	nop
   131d0:	00000000 	nop
   131d4:	00000000 	nop
   131d8:	00000000 	nop
   131dc:	00000000 	nop
   131e0:	00000000 	nop
   131e4:	00000000 	nop
   131e8:	00000000 	nop
   131ec:	00000000 	nop
   131f0:	00000000 	nop
   131f4:	00000000 	nop
   131f8:	00000000 	nop
   131fc:	00000000 	nop
   13200:	00000000 	nop
   13204:	00000000 	nop
   13208:	00000000 	nop
   1320c:	00000000 	nop
   13210:	00000000 	nop
   13214:	00000000 	nop
   13218:	00000000 	nop
   1321c:	00000000 	nop
   13220:	00000000 	nop
   13224:	00000000 	nop
   13228:	00000000 	nop
   1322c:	00000000 	nop
   13230:	00000000 	nop
   13234:	00000000 	nop
   13238:	00000000 	nop
   1323c:	00000000 	nop
   13240:	00000000 	nop
   13244:	00000000 	nop
   13248:	00000000 	nop
   1324c:	00000000 	nop
   13250:	00000000 	nop
   13254:	00000000 	nop
   13258:	00000000 	nop
   1325c:	00000000 	nop
   13260:	00000000 	nop
   13264:	00000000 	nop
   13268:	00000000 	nop
   1326c:	00000000 	nop
   13270:	00000000 	nop
   13274:	00000000 	nop
   13278:	00000000 	nop
   1327c:	00000000 	nop
   13280:	00000000 	nop
   13284:	00000000 	nop
   13288:	00000000 	nop
   1328c:	00000000 	nop
   13290:	00000000 	nop
   13294:	00000000 	nop
   13298:	00000000 	nop
   1329c:	00000000 	nop
   132a0:	00000000 	nop
   132a4:	00000000 	nop
   132a8:	00000000 	nop
   132ac:	00000000 	nop
   132b0:	00000000 	nop
   132b4:	00000000 	nop
   132b8:	00000000 	nop
   132bc:	00000000 	nop
   132c0:	00000000 	nop
   132c4:	00000000 	nop
   132c8:	00000000 	nop
   132cc:	00000000 	nop
   132d0:	00000000 	nop
   132d4:	00000000 	nop
   132d8:	00000000 	nop
   132dc:	00000000 	nop
   132e0:	00000000 	nop
   132e4:	00000000 	nop
   132e8:	00000000 	nop
   132ec:	00000000 	nop
   132f0:	00000000 	nop
   132f4:	00000000 	nop
   132f8:	00000000 	nop
   132fc:	00000000 	nop
   13300:	00000000 	nop
   13304:	00000000 	nop
   13308:	00000000 	nop
   1330c:	00000000 	nop
   13310:	00000000 	nop
   13314:	00000000 	nop
   13318:	00000000 	nop
   1331c:	00000000 	nop
   13320:	00000000 	nop
   13324:	00000000 	nop
   13328:	00000000 	nop
   1332c:	00000000 	nop
   13330:	00000000 	nop
   13334:	00000000 	nop
   13338:	00000000 	nop
   1333c:	00000000 	nop
   13340:	00000000 	nop
   13344:	00000000 	nop
   13348:	00000000 	nop
   1334c:	00000000 	nop
   13350:	00000000 	nop
   13354:	00000000 	nop
   13358:	00000000 	nop
   1335c:	00000000 	nop
   13360:	00000000 	nop
   13364:	00000000 	nop
   13368:	00000000 	nop
   1336c:	00000000 	nop
   13370:	00000000 	nop
   13374:	00000000 	nop
   13378:	00000000 	nop
   1337c:	00000000 	nop
   13380:	00000000 	nop
   13384:	00000000 	nop
   13388:	00000000 	nop
   1338c:	00000000 	nop
   13390:	00000000 	nop
   13394:	00000000 	nop
   13398:	00000000 	nop
   1339c:	00000000 	nop
   133a0:	00000000 	nop
   133a4:	00000000 	nop
   133a8:	00000000 	nop
   133ac:	00000000 	nop
   133b0:	00000000 	nop
   133b4:	00000000 	nop
   133b8:	00000000 	nop
   133bc:	00000000 	nop
   133c0:	00000000 	nop
   133c4:	00000000 	nop
   133c8:	00000000 	nop
   133cc:	00000000 	nop
   133d0:	00000000 	nop
   133d4:	00000000 	nop
   133d8:	00000000 	nop
   133dc:	00000000 	nop
   133e0:	00000000 	nop
   133e4:	00000000 	nop
   133e8:	00000000 	nop
   133ec:	00000000 	nop
   133f0:	00000000 	nop
   133f4:	00000000 	nop
   133f8:	00000000 	nop
   133fc:	00000000 	nop
   13400:	00000000 	nop
   13404:	00000000 	nop
   13408:	00000000 	nop
   1340c:	00000000 	nop
   13410:	00000000 	nop
   13414:	00000000 	nop
   13418:	00000000 	nop
   1341c:	00000000 	nop
   13420:	00000000 	nop
   13424:	00000000 	nop
   13428:	00000000 	nop
   1342c:	00000000 	nop
   13430:	00000000 	nop
   13434:	00000000 	nop
   13438:	00000000 	nop
   1343c:	00000000 	nop
   13440:	00000000 	nop
   13444:	00000000 	nop
   13448:	00000000 	nop
   1344c:	00000000 	nop
   13450:	00000000 	nop
   13454:	00000000 	nop
   13458:	00000000 	nop
   1345c:	00000000 	nop
   13460:	00000000 	nop
   13464:	00000000 	nop
   13468:	00000000 	nop
   1346c:	00000000 	nop
   13470:	00000000 	nop
   13474:	00000000 	nop
   13478:	00000000 	nop
   1347c:	00000000 	nop
   13480:	00000000 	nop
   13484:	00000000 	nop
   13488:	00000000 	nop
   1348c:	00000000 	nop
   13490:	00000000 	nop
   13494:	00000000 	nop
   13498:	00000000 	nop
   1349c:	00000000 	nop
   134a0:	00000000 	nop
   134a4:	00000000 	nop
   134a8:	00000000 	nop
   134ac:	00000000 	nop
   134b0:	00000000 	nop
   134b4:	00000000 	nop
   134b8:	00000000 	nop
   134bc:	00000000 	nop
   134c0:	00000000 	nop
   134c4:	00000000 	nop
   134c8:	00000000 	nop
   134cc:	00000000 	nop
   134d0:	00000000 	nop
   134d4:	00000000 	nop
   134d8:	00000000 	nop
   134dc:	00000000 	nop
   134e0:	00000000 	nop
   134e4:	00000000 	nop
   134e8:	00000000 	nop
   134ec:	00000000 	nop
   134f0:	00000000 	nop
   134f4:	00000000 	nop
   134f8:	00000000 	nop
   134fc:	00000000 	nop
   13500:	00000000 	nop
   13504:	00000000 	nop
   13508:	00000000 	nop
   1350c:	00000000 	nop
   13510:	00000000 	nop
   13514:	00000000 	nop
   13518:	00000000 	nop
   1351c:	00000000 	nop
   13520:	00000000 	nop
   13524:	00000000 	nop
   13528:	00000000 	nop
   1352c:	00000000 	nop
   13530:	00000000 	nop
   13534:	00000000 	nop
   13538:	00000000 	nop
   1353c:	00000000 	nop
   13540:	00000000 	nop
   13544:	00000000 	nop
   13548:	00000000 	nop
   1354c:	00000000 	nop
   13550:	00000000 	nop
   13554:	00000000 	nop
   13558:	00000000 	nop
   1355c:	00000000 	nop
   13560:	00000000 	nop
   13564:	00000000 	nop
   13568:	00000000 	nop
   1356c:	00000000 	nop
   13570:	00000000 	nop
   13574:	00000000 	nop
   13578:	00000000 	nop
   1357c:	00000000 	nop
   13580:	00000000 	nop
   13584:	00000000 	nop
   13588:	00000000 	nop
   1358c:	00000000 	nop
   13590:	00000000 	nop
   13594:	00000000 	nop
   13598:	00000000 	nop
   1359c:	00000000 	nop
   135a0:	00000000 	nop
   135a4:	00000000 	nop
   135a8:	00000000 	nop
   135ac:	00000000 	nop
   135b0:	00000000 	nop
   135b4:	00000000 	nop
   135b8:	00000000 	nop
   135bc:	00000000 	nop
   135c0:	00000000 	nop
   135c4:	00000000 	nop
   135c8:	00000000 	nop
   135cc:	00000000 	nop
   135d0:	00000000 	nop
   135d4:	00000000 	nop
   135d8:	00000000 	nop
   135dc:	00000000 	nop
   135e0:	00000000 	nop
   135e4:	00000000 	nop
   135e8:	00000000 	nop
   135ec:	00000000 	nop
   135f0:	00000000 	nop
   135f4:	00000000 	nop
   135f8:	00000000 	nop
   135fc:	00000000 	nop
   13600:	00000000 	nop
   13604:	00000000 	nop
   13608:	00000000 	nop
   1360c:	00000000 	nop
   13610:	00000000 	nop
   13614:	00000000 	nop
   13618:	00000000 	nop
   1361c:	00000000 	nop
   13620:	00000000 	nop
   13624:	00000000 	nop
   13628:	00000000 	nop
   1362c:	00000000 	nop
   13630:	00000000 	nop
   13634:	00000000 	nop
   13638:	00000000 	nop
   1363c:	00000000 	nop
   13640:	00000000 	nop
   13644:	00000000 	nop
   13648:	00000000 	nop
   1364c:	00000000 	nop
   13650:	00000000 	nop
   13654:	00000000 	nop
   13658:	00000000 	nop
   1365c:	00000000 	nop
   13660:	00000000 	nop
   13664:	00000000 	nop
   13668:	00000000 	nop
   1366c:	00000000 	nop
   13670:	00000000 	nop
   13674:	00000000 	nop
   13678:	00000000 	nop
   1367c:	00000000 	nop
   13680:	00000000 	nop
   13684:	00000000 	nop
   13688:	00000000 	nop
   1368c:	00000000 	nop
   13690:	00000000 	nop
   13694:	00000000 	nop
   13698:	00000000 	nop
   1369c:	00000000 	nop
   136a0:	00000000 	nop
   136a4:	00000000 	nop
   136a8:	00000000 	nop
   136ac:	00000000 	nop
   136b0:	00000000 	nop
   136b4:	00000000 	nop
   136b8:	00000000 	nop
   136bc:	00000000 	nop
   136c0:	00000000 	nop
   136c4:	00000000 	nop
   136c8:	00000000 	nop
   136cc:	00000000 	nop
   136d0:	00000000 	nop
   136d4:	00000000 	nop
   136d8:	00000000 	nop
   136dc:	00000000 	nop
   136e0:	00000000 	nop
   136e4:	00000000 	nop
   136e8:	00000000 	nop
   136ec:	00000000 	nop
   136f0:	00000000 	nop
   136f4:	00000000 	nop
   136f8:	00000000 	nop
   136fc:	00000000 	nop
   13700:	00000000 	nop
   13704:	00000000 	nop
   13708:	00000000 	nop
   1370c:	00000000 	nop
   13710:	00000000 	nop
   13714:	00000000 	nop
   13718:	00000000 	nop
   1371c:	00000000 	nop
   13720:	00000000 	nop
   13724:	00000000 	nop
   13728:	00000000 	nop
   1372c:	00000000 	nop
   13730:	00000000 	nop
   13734:	00000000 	nop
   13738:	00000000 	nop
   1373c:	00000000 	nop
   13740:	00000000 	nop
   13744:	00000000 	nop
   13748:	00000000 	nop
   1374c:	00000000 	nop
   13750:	00000000 	nop
   13754:	00000000 	nop
   13758:	00000000 	nop
   1375c:	00000000 	nop
   13760:	00000000 	nop
   13764:	00000000 	nop
   13768:	00000000 	nop
   1376c:	00000000 	nop
   13770:	00000000 	nop
   13774:	00000000 	nop
   13778:	00000000 	nop
   1377c:	00000000 	nop
   13780:	00000000 	nop
   13784:	00000000 	nop
   13788:	00000000 	nop
   1378c:	00000000 	nop
   13790:	00000000 	nop
   13794:	00000000 	nop
   13798:	00000000 	nop
   1379c:	00000000 	nop
   137a0:	00000000 	nop
   137a4:	00000000 	nop
   137a8:	00000000 	nop
   137ac:	00000000 	nop
   137b0:	00000000 	nop
   137b4:	00000000 	nop
   137b8:	00000000 	nop
   137bc:	00000000 	nop
   137c0:	00000000 	nop
   137c4:	00000000 	nop
   137c8:	00000000 	nop
   137cc:	00000000 	nop
   137d0:	00000000 	nop
   137d4:	00000000 	nop
   137d8:	00000000 	nop
   137dc:	00000000 	nop
   137e0:	00000000 	nop
   137e4:	00000000 	nop
   137e8:	00000000 	nop
   137ec:	00000000 	nop
   137f0:	00000000 	nop
   137f4:	00000000 	nop
   137f8:	00000000 	nop
   137fc:	00000000 	nop
   13800:	00000000 	nop
   13804:	00000000 	nop
   13808:	00000000 	nop
   1380c:	00000000 	nop
   13810:	00000000 	nop
   13814:	00000000 	nop
   13818:	00000000 	nop
   1381c:	00000000 	nop
   13820:	00000000 	nop
   13824:	00000000 	nop
   13828:	00000000 	nop
   1382c:	00000000 	nop
   13830:	00000000 	nop
   13834:	00000000 	nop
   13838:	00000000 	nop
   1383c:	00000000 	nop
   13840:	00000000 	nop
   13844:	00000000 	nop
   13848:	00000000 	nop
   1384c:	00000000 	nop
   13850:	00000000 	nop
   13854:	00000000 	nop
   13858:	00000000 	nop
   1385c:	00000000 	nop
   13860:	00000000 	nop
   13864:	00000000 	nop
   13868:	00000000 	nop
   1386c:	00000000 	nop
   13870:	00000000 	nop
   13874:	00000000 	nop
   13878:	00000000 	nop
   1387c:	00000000 	nop
   13880:	00000000 	nop
   13884:	00000000 	nop
   13888:	00000000 	nop
   1388c:	00000000 	nop
   13890:	00000000 	nop
   13894:	00000000 	nop
   13898:	00000000 	nop
   1389c:	00000000 	nop
   138a0:	00000000 	nop
   138a4:	00000000 	nop
   138a8:	00000000 	nop
   138ac:	00000000 	nop
   138b0:	00000000 	nop
   138b4:	00000000 	nop
   138b8:	00000000 	nop
   138bc:	00000000 	nop
   138c0:	00000000 	nop
   138c4:	00000000 	nop
   138c8:	00000000 	nop
   138cc:	00000000 	nop
   138d0:	00000000 	nop
   138d4:	00000000 	nop
   138d8:	00000000 	nop
   138dc:	00000000 	nop
   138e0:	00000000 	nop
   138e4:	00000000 	nop
   138e8:	00000000 	nop
   138ec:	00000000 	nop
   138f0:	00000000 	nop
   138f4:	00000000 	nop
   138f8:	00000000 	nop
   138fc:	00000000 	nop
   13900:	00000000 	nop
   13904:	00000000 	nop
   13908:	00000000 	nop
   1390c:	00000000 	nop
   13910:	00000000 	nop
   13914:	00000000 	nop
   13918:	00000000 	nop
   1391c:	00000000 	nop
   13920:	00000000 	nop
   13924:	00000000 	nop
   13928:	00000000 	nop
   1392c:	00000000 	nop
   13930:	00000000 	nop
   13934:	00000000 	nop
   13938:	00000000 	nop
   1393c:	00000000 	nop
   13940:	00000000 	nop
   13944:	00000000 	nop
   13948:	00000000 	nop
   1394c:	00000000 	nop
   13950:	00000000 	nop
   13954:	00000000 	nop
   13958:	00000000 	nop
   1395c:	00000000 	nop
   13960:	00000000 	nop
   13964:	00000000 	nop
   13968:	00000000 	nop
   1396c:	00000000 	nop
   13970:	00000000 	nop
   13974:	00000000 	nop
   13978:	00000000 	nop
   1397c:	00000000 	nop
   13980:	00000000 	nop
   13984:	00000000 	nop
   13988:	00000000 	nop
   1398c:	00000000 	nop
   13990:	00000000 	nop
   13994:	00000000 	nop
   13998:	00000000 	nop
   1399c:	00000000 	nop
   139a0:	00000000 	nop
   139a4:	00000000 	nop
   139a8:	00000000 	nop
   139ac:	00000000 	nop
   139b0:	00000000 	nop
   139b4:	00000000 	nop
   139b8:	00000000 	nop
   139bc:	00000000 	nop
   139c0:	00000000 	nop
   139c4:	00000000 	nop
   139c8:	00000000 	nop
   139cc:	00000000 	nop
   139d0:	00000000 	nop
   139d4:	00000000 	nop
   139d8:	00000000 	nop
   139dc:	00000000 	nop
   139e0:	00000000 	nop
   139e4:	00000000 	nop
   139e8:	00000000 	nop
   139ec:	00000000 	nop
   139f0:	00000000 	nop
   139f4:	00000000 	nop
   139f8:	00000000 	nop
   139fc:	00000000 	nop
   13a00:	00000000 	nop
   13a04:	00000000 	nop
   13a08:	00000000 	nop
   13a0c:	00000000 	nop
   13a10:	00000000 	nop
   13a14:	00000000 	nop
   13a18:	00000000 	nop
   13a1c:	00000000 	nop
   13a20:	00000000 	nop
   13a24:	00000000 	nop
   13a28:	00000000 	nop
   13a2c:	00000000 	nop
   13a30:	00000000 	nop
   13a34:	00000000 	nop
   13a38:	00000000 	nop
   13a3c:	00000000 	nop
   13a40:	00000000 	nop
   13a44:	00000000 	nop
   13a48:	00000000 	nop
   13a4c:	00000000 	nop
   13a50:	00000000 	nop
   13a54:	00000000 	nop
   13a58:	00000000 	nop
   13a5c:	00000000 	nop
   13a60:	00000000 	nop
   13a64:	00000000 	nop
   13a68:	00000000 	nop
   13a6c:	00000000 	nop
   13a70:	00000000 	nop
   13a74:	00000000 	nop
   13a78:	00000000 	nop
   13a7c:	00000000 	nop
   13a80:	00000000 	nop
   13a84:	00000000 	nop
   13a88:	00000000 	nop
   13a8c:	00000000 	nop
   13a90:	00000000 	nop
   13a94:	00000000 	nop
   13a98:	00000000 	nop
   13a9c:	00000000 	nop
   13aa0:	00000000 	nop
   13aa4:	00000000 	nop
   13aa8:	00000000 	nop
   13aac:	00000000 	nop
   13ab0:	00000000 	nop
   13ab4:	00000000 	nop
   13ab8:	00000000 	nop
   13abc:	00000000 	nop
   13ac0:	00000000 	nop
   13ac4:	00000000 	nop
   13ac8:	00000000 	nop
   13acc:	00000000 	nop
   13ad0:	00000000 	nop
   13ad4:	00000000 	nop
   13ad8:	00000000 	nop
   13adc:	00000000 	nop
   13ae0:	00000000 	nop
   13ae4:	00000000 	nop
   13ae8:	00000000 	nop
   13aec:	00000000 	nop
   13af0:	00000000 	nop
   13af4:	00000000 	nop
   13af8:	00000000 	nop
   13afc:	00000000 	nop
   13b00:	00000000 	nop
   13b04:	00000000 	nop
   13b08:	00000000 	nop
   13b0c:	00000000 	nop
   13b10:	00000000 	nop
   13b14:	00000000 	nop
   13b18:	00000000 	nop
   13b1c:	00000000 	nop
   13b20:	00000000 	nop
   13b24:	00000000 	nop
   13b28:	00000000 	nop
   13b2c:	00000000 	nop
   13b30:	00000000 	nop
   13b34:	00000000 	nop
   13b38:	00000000 	nop
   13b3c:	00000000 	nop
   13b40:	00000000 	nop
   13b44:	00000000 	nop
   13b48:	00000000 	nop
   13b4c:	00000000 	nop
   13b50:	00000000 	nop
   13b54:	00000000 	nop
   13b58:	00000000 	nop
   13b5c:	00000000 	nop
   13b60:	00000000 	nop
   13b64:	00000000 	nop
   13b68:	00000000 	nop
   13b6c:	00000000 	nop
   13b70:	00000000 	nop
   13b74:	00000000 	nop
   13b78:	00000000 	nop
   13b7c:	00000000 	nop
   13b80:	00000000 	nop
   13b84:	00000000 	nop
   13b88:	00000000 	nop
   13b8c:	00000000 	nop
   13b90:	00000000 	nop
   13b94:	00000000 	nop
   13b98:	00000000 	nop
   13b9c:	00000000 	nop
   13ba0:	00000000 	nop
   13ba4:	00000000 	nop
   13ba8:	00000000 	nop
   13bac:	00000000 	nop
   13bb0:	00000000 	nop
   13bb4:	00000000 	nop
   13bb8:	00000000 	nop
   13bbc:	00000000 	nop
   13bc0:	00000000 	nop
   13bc4:	00000000 	nop
   13bc8:	00000000 	nop
   13bcc:	00000000 	nop
   13bd0:	00000000 	nop
   13bd4:	00000000 	nop
   13bd8:	00000000 	nop
   13bdc:	00000000 	nop
   13be0:	00000000 	nop
   13be4:	00000000 	nop
   13be8:	00000000 	nop
   13bec:	00000000 	nop
   13bf0:	00000000 	nop
   13bf4:	00000000 	nop
   13bf8:	00000000 	nop
   13bfc:	00000000 	nop
   13c00:	00000000 	nop
   13c04:	00000000 	nop
   13c08:	00000000 	nop
   13c0c:	00000000 	nop
   13c10:	00000000 	nop
   13c14:	00000000 	nop
   13c18:	00000000 	nop
   13c1c:	00000000 	nop
   13c20:	00000000 	nop
   13c24:	00000000 	nop
   13c28:	00000000 	nop
   13c2c:	00000000 	nop
   13c30:	00000000 	nop
   13c34:	00000000 	nop
   13c38:	00000000 	nop
   13c3c:	00000000 	nop
   13c40:	00000000 	nop
   13c44:	00000000 	nop
   13c48:	00000000 	nop
   13c4c:	00000000 	nop
   13c50:	00000000 	nop
   13c54:	00000000 	nop
   13c58:	00000000 	nop
   13c5c:	00000000 	nop
   13c60:	00000000 	nop
   13c64:	00000000 	nop
   13c68:	00000000 	nop
   13c6c:	00000000 	nop
   13c70:	00000000 	nop
   13c74:	00000000 	nop
   13c78:	00000000 	nop
   13c7c:	00000000 	nop
   13c80:	00000000 	nop
   13c84:	00000000 	nop
   13c88:	00000000 	nop
   13c8c:	00000000 	nop
   13c90:	00000000 	nop
   13c94:	00000000 	nop
   13c98:	00000000 	nop
   13c9c:	00000000 	nop
   13ca0:	00000000 	nop
   13ca4:	00000000 	nop
   13ca8:	00000000 	nop
   13cac:	00000000 	nop
   13cb0:	00000000 	nop
   13cb4:	00000000 	nop
   13cb8:	00000000 	nop
   13cbc:	00000000 	nop
   13cc0:	00000000 	nop
   13cc4:	00000000 	nop
   13cc8:	00000000 	nop
   13ccc:	00000000 	nop
   13cd0:	00000000 	nop
   13cd4:	00000000 	nop
   13cd8:	00000000 	nop
   13cdc:	00000000 	nop
   13ce0:	00000000 	nop
   13ce4:	00000000 	nop
   13ce8:	00000000 	nop
   13cec:	00000000 	nop
   13cf0:	00000000 	nop
   13cf4:	00000000 	nop
   13cf8:	00000000 	nop
   13cfc:	00000000 	nop
   13d00:	00000000 	nop
   13d04:	00000000 	nop
   13d08:	00000000 	nop
   13d0c:	00000000 	nop
   13d10:	00000000 	nop
   13d14:	00000000 	nop
   13d18:	00000000 	nop
   13d1c:	00000000 	nop
   13d20:	00000000 	nop
   13d24:	00000000 	nop
   13d28:	00000000 	nop
   13d2c:	00000000 	nop
   13d30:	00000000 	nop
   13d34:	00000000 	nop
   13d38:	00000000 	nop
   13d3c:	00000000 	nop
   13d40:	00000000 	nop
   13d44:	00000000 	nop
   13d48:	00000000 	nop
   13d4c:	00000000 	nop
   13d50:	00000000 	nop
   13d54:	00000000 	nop
   13d58:	00000000 	nop
   13d5c:	00000000 	nop
   13d60:	00000000 	nop
   13d64:	00000000 	nop
   13d68:	00000000 	nop
   13d6c:	00000000 	nop
   13d70:	00000000 	nop
   13d74:	00000000 	nop
   13d78:	00000000 	nop
   13d7c:	00000000 	nop
   13d80:	00000000 	nop
   13d84:	00000000 	nop
   13d88:	00000000 	nop
   13d8c:	00000000 	nop
   13d90:	00000000 	nop
   13d94:	00000000 	nop
   13d98:	00000000 	nop
   13d9c:	00000000 	nop
   13da0:	00000000 	nop
   13da4:	00000000 	nop
   13da8:	00000000 	nop
   13dac:	00000000 	nop
   13db0:	00000000 	nop
   13db4:	00000000 	nop
   13db8:	00000000 	nop
   13dbc:	00000000 	nop
   13dc0:	00000000 	nop
   13dc4:	00000000 	nop
   13dc8:	00000000 	nop
   13dcc:	00000000 	nop
   13dd0:	00000000 	nop
   13dd4:	00000000 	nop
   13dd8:	00000000 	nop
   13ddc:	00000000 	nop
   13de0:	00000000 	nop
   13de4:	00000000 	nop
   13de8:	00000000 	nop
   13dec:	00000000 	nop
   13df0:	00000000 	nop
   13df4:	00000000 	nop
   13df8:	00000000 	nop
   13dfc:	00000000 	nop
   13e00:	00000000 	nop
   13e04:	00000000 	nop
   13e08:	00000000 	nop
   13e0c:	00000000 	nop
   13e10:	00000000 	nop
   13e14:	00000000 	nop
   13e18:	00000000 	nop
   13e1c:	00000000 	nop
   13e20:	00000000 	nop
   13e24:	00000000 	nop
   13e28:	00000000 	nop
   13e2c:	00000000 	nop
   13e30:	00000000 	nop
   13e34:	00000000 	nop
   13e38:	00000000 	nop
   13e3c:	00000000 	nop
   13e40:	00000000 	nop
   13e44:	00000000 	nop
   13e48:	00000000 	nop
   13e4c:	00000000 	nop
   13e50:	00000000 	nop
   13e54:	00000000 	nop
   13e58:	00000000 	nop
   13e5c:	00000000 	nop
   13e60:	00000000 	nop
   13e64:	00000000 	nop
   13e68:	00000000 	nop
   13e6c:	00000000 	nop
   13e70:	00000000 	nop
   13e74:	00000000 	nop
   13e78:	00000000 	nop
   13e7c:	00000000 	nop
   13e80:	00000000 	nop
   13e84:	00000000 	nop
   13e88:	00000000 	nop
   13e8c:	00000000 	nop
   13e90:	00000000 	nop
   13e94:	00000000 	nop
   13e98:	00000000 	nop
   13e9c:	00000000 	nop
   13ea0:	00000000 	nop
   13ea4:	00000000 	nop
   13ea8:	00000000 	nop
   13eac:	00000000 	nop
   13eb0:	00000000 	nop
   13eb4:	00000000 	nop
   13eb8:	00000000 	nop
   13ebc:	00000000 	nop
   13ec0:	00000000 	nop
   13ec4:	00000000 	nop
   13ec8:	00000000 	nop
   13ecc:	00000000 	nop
   13ed0:	00000000 	nop
   13ed4:	00000000 	nop
   13ed8:	00000000 	nop
   13edc:	00000000 	nop
   13ee0:	00000000 	nop
   13ee4:	00000000 	nop
   13ee8:	00000000 	nop
   13eec:	00000000 	nop
   13ef0:	00000000 	nop
   13ef4:	00000000 	nop
   13ef8:	00000000 	nop
   13efc:	00000000 	nop
   13f00:	00000000 	nop
   13f04:	00000000 	nop
   13f08:	00000000 	nop
   13f0c:	00000000 	nop
   13f10:	00000000 	nop
   13f14:	00000000 	nop
   13f18:	00000000 	nop
   13f1c:	00000000 	nop
   13f20:	00000000 	nop
   13f24:	00000000 	nop
   13f28:	00000000 	nop
   13f2c:	00000000 	nop
   13f30:	00000000 	nop
   13f34:	00000000 	nop
   13f38:	00000000 	nop
   13f3c:	00000000 	nop
   13f40:	00000000 	nop
   13f44:	00000000 	nop
   13f48:	00000000 	nop
   13f4c:	00000000 	nop
   13f50:	00000000 	nop
   13f54:	00000000 	nop
   13f58:	00000000 	nop
   13f5c:	00000000 	nop
   13f60:	00000000 	nop
   13f64:	00000000 	nop
   13f68:	00000000 	nop
   13f6c:	00000000 	nop
   13f70:	00000000 	nop
   13f74:	00000000 	nop
   13f78:	00000000 	nop
   13f7c:	00000000 	nop
   13f80:	00000000 	nop
   13f84:	00000000 	nop
   13f88:	00000000 	nop
   13f8c:	00000000 	nop
   13f90:	00000000 	nop
   13f94:	00000000 	nop
   13f98:	00000000 	nop
   13f9c:	00000000 	nop
   13fa0:	00000000 	nop
   13fa4:	00000000 	nop
   13fa8:	00000000 	nop
   13fac:	00000000 	nop
   13fb0:	00000000 	nop
   13fb4:	00000000 	nop
   13fb8:	00000000 	nop
   13fbc:	00000000 	nop
   13fc0:	00000000 	nop
   13fc4:	00000000 	nop
   13fc8:	00000000 	nop
   13fcc:	00000000 	nop
   13fd0:	00000000 	nop
   13fd4:	00000000 	nop
   13fd8:	00000000 	nop
   13fdc:	00000000 	nop
   13fe0:	00000000 	nop
   13fe4:	00000000 	nop
   13fe8:	00000000 	nop
   13fec:	00000000 	nop
   13ff0:	00000000 	nop
   13ff4:	00000000 	nop
   13ff8:	00000000 	nop
   13ffc:	00000000 	nop
   14000:	00000000 	nop
   14004:	00000000 	nop
   14008:	00000000 	nop
   1400c:	00000000 	nop
   14010:	00000000 	nop
   14014:	00000000 	nop
   14018:	00000000 	nop
   1401c:	00000000 	nop
   14020:	00000000 	nop
   14024:	00000000 	nop
   14028:	00000000 	nop
   1402c:	00000000 	nop
   14030:	00000000 	nop
   14034:	00000000 	nop
   14038:	00000000 	nop
   1403c:	00000000 	nop
   14040:	00000000 	nop
   14044:	00000000 	nop
   14048:	00000000 	nop
   1404c:	00000000 	nop
   14050:	00000000 	nop
   14054:	00000000 	nop
   14058:	00000000 	nop
   1405c:	00000000 	nop
   14060:	00000000 	nop
   14064:	00000000 	nop
   14068:	00000000 	nop
   1406c:	00000000 	nop
   14070:	00000000 	nop
   14074:	00000000 	nop
   14078:	00000000 	nop
   1407c:	00000000 	nop
   14080:	00000000 	nop
   14084:	00000000 	nop
   14088:	00000000 	nop
   1408c:	00000000 	nop
   14090:	00000000 	nop
   14094:	00000000 	nop
   14098:	00000000 	nop
   1409c:	00000000 	nop
   140a0:	00000000 	nop
   140a4:	00000000 	nop
   140a8:	00000000 	nop
   140ac:	00000000 	nop
   140b0:	00000000 	nop
   140b4:	00000000 	nop
   140b8:	00000000 	nop
   140bc:	00000000 	nop
   140c0:	00000000 	nop
   140c4:	00000000 	nop
   140c8:	00000000 	nop
   140cc:	00000000 	nop
   140d0:	00000000 	nop
   140d4:	00000000 	nop
   140d8:	00000000 	nop
   140dc:	00000000 	nop
   140e0:	00000000 	nop
   140e4:	00000000 	nop
   140e8:	00000000 	nop
   140ec:	00000000 	nop
   140f0:	00000000 	nop
   140f4:	00000000 	nop
   140f8:	00000000 	nop
   140fc:	00000000 	nop
   14100:	00000000 	nop
   14104:	00000000 	nop
   14108:	00000000 	nop
   1410c:	00000000 	nop
   14110:	00000000 	nop
   14114:	00000000 	nop
   14118:	00000000 	nop
   1411c:	00000000 	nop
   14120:	00000000 	nop
   14124:	00000000 	nop
   14128:	00000000 	nop
   1412c:	00000000 	nop
   14130:	00000000 	nop
   14134:	00000000 	nop
   14138:	00000000 	nop
   1413c:	00000000 	nop
   14140:	00000000 	nop
   14144:	00000000 	nop
   14148:	00000000 	nop
   1414c:	00000000 	nop
   14150:	00000000 	nop
   14154:	00000000 	nop
   14158:	00000000 	nop
   1415c:	00000000 	nop
   14160:	00000000 	nop
   14164:	00000000 	nop
   14168:	00000000 	nop
   1416c:	00000000 	nop
   14170:	00000000 	nop
   14174:	00000000 	nop
   14178:	00000000 	nop
   1417c:	00000000 	nop
   14180:	00000000 	nop
   14184:	00000000 	nop
   14188:	00000000 	nop
   1418c:	00000000 	nop
   14190:	00000000 	nop
   14194:	00000000 	nop
   14198:	00000000 	nop
   1419c:	00000000 	nop
   141a0:	00000000 	nop
   141a4:	00000000 	nop
   141a8:	00000000 	nop
   141ac:	00000000 	nop
   141b0:	00000000 	nop
   141b4:	00000000 	nop
   141b8:	00000000 	nop
   141bc:	00000000 	nop
   141c0:	00000000 	nop
   141c4:	00000000 	nop
   141c8:	00000000 	nop
   141cc:	00000000 	nop
   141d0:	00000000 	nop
   141d4:	00000000 	nop
   141d8:	00000000 	nop
   141dc:	00000000 	nop
   141e0:	00000000 	nop
   141e4:	00000000 	nop
   141e8:	00000000 	nop
   141ec:	00000000 	nop
   141f0:	00000000 	nop
   141f4:	00000000 	nop
   141f8:	00000000 	nop
   141fc:	00000000 	nop
   14200:	00000000 	nop
   14204:	00000000 	nop
   14208:	00000000 	nop
   1420c:	00000000 	nop
   14210:	00000000 	nop
   14214:	00000000 	nop
   14218:	00000000 	nop
   1421c:	00000000 	nop
   14220:	00000000 	nop
   14224:	00000000 	nop
   14228:	00000000 	nop
   1422c:	00000000 	nop
   14230:	00000000 	nop
   14234:	00000000 	nop
   14238:	00000000 	nop
   1423c:	00000000 	nop
   14240:	00000000 	nop
   14244:	00000000 	nop
   14248:	00000000 	nop
   1424c:	00000000 	nop
   14250:	00000000 	nop
   14254:	00000000 	nop
   14258:	00000000 	nop
   1425c:	00000000 	nop
   14260:	00000000 	nop
   14264:	00000000 	nop
   14268:	00000000 	nop
   1426c:	00000000 	nop
   14270:	00000000 	nop
   14274:	00000000 	nop
   14278:	00000000 	nop
   1427c:	00000000 	nop
   14280:	00000000 	nop
   14284:	00000000 	nop
   14288:	00000000 	nop
   1428c:	00000000 	nop
   14290:	00000000 	nop
   14294:	00000000 	nop
   14298:	00000000 	nop
   1429c:	00000000 	nop
   142a0:	00000000 	nop
   142a4:	00000000 	nop
   142a8:	00000000 	nop
   142ac:	00000000 	nop
   142b0:	00000000 	nop
   142b4:	00000000 	nop
   142b8:	00000000 	nop
   142bc:	00000000 	nop
   142c0:	00000000 	nop
   142c4:	00000000 	nop
   142c8:	00000000 	nop
   142cc:	00000000 	nop
   142d0:	00000000 	nop
   142d4:	00000000 	nop
   142d8:	00000000 	nop
   142dc:	00000000 	nop
   142e0:	00000000 	nop
   142e4:	00000000 	nop
   142e8:	00000000 	nop
   142ec:	00000000 	nop
   142f0:	00000000 	nop
   142f4:	00000000 	nop
   142f8:	00000000 	nop
   142fc:	00000000 	nop
   14300:	00000000 	nop
   14304:	00000000 	nop
   14308:	00000000 	nop
   1430c:	00000000 	nop
   14310:	00000000 	nop
   14314:	00000000 	nop
   14318:	00000000 	nop
   1431c:	00000000 	nop
   14320:	00000000 	nop
   14324:	00000000 	nop
   14328:	00000000 	nop
   1432c:	00000000 	nop
   14330:	00000000 	nop
   14334:	00000000 	nop
   14338:	00000000 	nop
   1433c:	00000000 	nop
   14340:	00000000 	nop
   14344:	00000000 	nop
   14348:	00000000 	nop
   1434c:	00000000 	nop
   14350:	00000000 	nop
   14354:	00000000 	nop
   14358:	00000000 	nop
   1435c:	00000000 	nop
   14360:	00000000 	nop
   14364:	00000000 	nop
   14368:	00000000 	nop
   1436c:	00000000 	nop
   14370:	00000000 	nop
   14374:	00000000 	nop
   14378:	00000000 	nop
   1437c:	00000000 	nop
   14380:	00000000 	nop
   14384:	00000000 	nop
   14388:	00000000 	nop
   1438c:	00000000 	nop
   14390:	00000000 	nop
   14394:	00000000 	nop
   14398:	00000000 	nop
   1439c:	00000000 	nop
   143a0:	00000000 	nop
   143a4:	00000000 	nop
   143a8:	00000000 	nop
   143ac:	00000000 	nop
   143b0:	00000000 	nop
   143b4:	00000000 	nop
   143b8:	00000000 	nop
   143bc:	00000000 	nop
   143c0:	00000000 	nop
   143c4:	00000000 	nop
   143c8:	00000000 	nop
   143cc:	00000000 	nop
   143d0:	00000000 	nop
   143d4:	00000000 	nop
   143d8:	00000000 	nop
   143dc:	00000000 	nop
   143e0:	00000000 	nop
   143e4:	00000000 	nop
   143e8:	00000000 	nop
   143ec:	00000000 	nop
   143f0:	00000000 	nop
   143f4:	00000000 	nop
   143f8:	00000000 	nop
   143fc:	00000000 	nop
   14400:	00000000 	nop
   14404:	00000000 	nop
   14408:	00000000 	nop
   1440c:	00000000 	nop
   14410:	00000000 	nop
   14414:	00000000 	nop
   14418:	00000000 	nop
   1441c:	00000000 	nop
   14420:	00000000 	nop
   14424:	00000000 	nop
   14428:	00000000 	nop
   1442c:	00000000 	nop
   14430:	00000000 	nop
   14434:	00000000 	nop
   14438:	00000000 	nop
   1443c:	00000000 	nop
   14440:	00000000 	nop
   14444:	00000000 	nop
   14448:	00000000 	nop
   1444c:	00000000 	nop
   14450:	00000000 	nop
   14454:	00000000 	nop
   14458:	00000000 	nop
   1445c:	00000000 	nop
   14460:	00000000 	nop
   14464:	00000000 	nop
   14468:	00000000 	nop
   1446c:	00000000 	nop
   14470:	00000000 	nop
   14474:	00000000 	nop
   14478:	00000000 	nop
   1447c:	00000000 	nop
   14480:	00000000 	nop
   14484:	00000000 	nop
   14488:	00000000 	nop
   1448c:	00000000 	nop
   14490:	00000000 	nop
   14494:	00000000 	nop
   14498:	00000000 	nop
   1449c:	00000000 	nop
   144a0:	00000000 	nop
   144a4:	00000000 	nop
   144a8:	00000000 	nop
   144ac:	00000000 	nop
   144b0:	00000000 	nop
   144b4:	00000000 	nop
   144b8:	00000000 	nop
   144bc:	00000000 	nop
   144c0:	00000000 	nop
   144c4:	00000000 	nop
   144c8:	00000000 	nop
   144cc:	00000000 	nop
   144d0:	00000000 	nop
   144d4:	00000000 	nop
   144d8:	00000000 	nop
   144dc:	00000000 	nop
   144e0:	00000000 	nop
   144e4:	00000000 	nop
   144e8:	00000000 	nop
   144ec:	00000000 	nop
   144f0:	00000000 	nop
   144f4:	00000000 	nop
   144f8:	00000000 	nop
   144fc:	00000000 	nop
   14500:	00000000 	nop
   14504:	00000000 	nop
   14508:	00000000 	nop
   1450c:	00000000 	nop
   14510:	00000000 	nop
   14514:	00000000 	nop
   14518:	00000000 	nop
   1451c:	00000000 	nop
   14520:	00000000 	nop
   14524:	00000000 	nop
   14528:	00000000 	nop
   1452c:	00000000 	nop
   14530:	00000000 	nop
   14534:	00000000 	nop
   14538:	00000000 	nop
   1453c:	00000000 	nop
   14540:	00000000 	nop
   14544:	00000000 	nop
   14548:	00000000 	nop
   1454c:	00000000 	nop
   14550:	00000000 	nop
   14554:	00000000 	nop
   14558:	00000000 	nop
   1455c:	00000000 	nop
   14560:	00000000 	nop
   14564:	00000000 	nop
   14568:	00000000 	nop
   1456c:	00000000 	nop
   14570:	00000000 	nop
   14574:	00000000 	nop
   14578:	00000000 	nop
   1457c:	00000000 	nop
   14580:	00000000 	nop
   14584:	00000000 	nop
   14588:	00000000 	nop
   1458c:	00000000 	nop
   14590:	00000000 	nop
   14594:	00000000 	nop
   14598:	00000000 	nop
   1459c:	00000000 	nop
   145a0:	00000000 	nop
   145a4:	00000000 	nop
   145a8:	00000000 	nop
   145ac:	00000000 	nop
   145b0:	00000000 	nop
   145b4:	00000000 	nop
   145b8:	00000000 	nop
   145bc:	00000000 	nop
   145c0:	00000000 	nop
   145c4:	00000000 	nop
   145c8:	00000000 	nop
   145cc:	00000000 	nop
   145d0:	00000000 	nop
   145d4:	00000000 	nop
   145d8:	00000000 	nop
   145dc:	00000000 	nop
   145e0:	00000000 	nop
   145e4:	00000000 	nop
   145e8:	00000000 	nop
   145ec:	00000000 	nop
   145f0:	00000000 	nop
   145f4:	00000000 	nop
   145f8:	00000000 	nop
   145fc:	00000000 	nop
   14600:	00000000 	nop
   14604:	00000000 	nop
   14608:	00000000 	nop
   1460c:	00000000 	nop
   14610:	00000000 	nop
   14614:	00000000 	nop
   14618:	00000000 	nop
   1461c:	00000000 	nop
   14620:	00000000 	nop
   14624:	00000000 	nop
   14628:	00000000 	nop
   1462c:	00000000 	nop
   14630:	00000000 	nop
   14634:	00000000 	nop
   14638:	00000000 	nop
   1463c:	00000000 	nop
   14640:	00000000 	nop
   14644:	00000000 	nop
   14648:	00000000 	nop
   1464c:	00000000 	nop
   14650:	00000000 	nop
   14654:	00000000 	nop
   14658:	00000000 	nop
   1465c:	00000000 	nop
   14660:	00000000 	nop
   14664:	00000000 	nop
   14668:	00000000 	nop
   1466c:	00000000 	nop
   14670:	00000000 	nop
   14674:	00000000 	nop
   14678:	00000000 	nop
   1467c:	00000000 	nop
   14680:	00000000 	nop
   14684:	00000000 	nop
   14688:	00000000 	nop
   1468c:	00000000 	nop
   14690:	00000000 	nop
   14694:	00000000 	nop
   14698:	00000000 	nop
   1469c:	00000000 	nop
   146a0:	00000000 	nop
   146a4:	00000000 	nop
   146a8:	00000000 	nop
   146ac:	00000000 	nop
   146b0:	00000000 	nop
   146b4:	00000000 	nop
   146b8:	00000000 	nop
   146bc:	00000000 	nop
   146c0:	00000000 	nop
   146c4:	00000000 	nop
   146c8:	00000000 	nop
   146cc:	00000000 	nop
   146d0:	00000000 	nop
   146d4:	00000000 	nop
   146d8:	00000000 	nop
   146dc:	00000000 	nop
   146e0:	00000000 	nop
   146e4:	00000000 	nop
   146e8:	00000000 	nop
   146ec:	00000000 	nop
   146f0:	00000000 	nop
   146f4:	00000000 	nop
   146f8:	00000000 	nop
   146fc:	00000000 	nop
   14700:	00000000 	nop
   14704:	00000000 	nop
   14708:	00000000 	nop
   1470c:	00000000 	nop
   14710:	00000000 	nop
   14714:	00000000 	nop
   14718:	00000000 	nop
   1471c:	00000000 	nop
   14720:	00000000 	nop
   14724:	00000000 	nop
   14728:	00000000 	nop
   1472c:	00000000 	nop
   14730:	00000000 	nop
   14734:	00000000 	nop
   14738:	00000000 	nop
   1473c:	00000000 	nop
   14740:	00000000 	nop
   14744:	00000000 	nop
   14748:	00000000 	nop
   1474c:	00000000 	nop
   14750:	00000000 	nop
   14754:	00000000 	nop
   14758:	00000000 	nop
   1475c:	00000000 	nop
   14760:	00000000 	nop
   14764:	00000000 	nop
   14768:	00000000 	nop
   1476c:	00000000 	nop
   14770:	00000000 	nop
   14774:	00000000 	nop
   14778:	00000000 	nop
   1477c:	00000000 	nop
   14780:	00000000 	nop
   14784:	00000000 	nop
   14788:	00000000 	nop
   1478c:	00000000 	nop
   14790:	00000000 	nop
   14794:	00000000 	nop
   14798:	00000000 	nop
   1479c:	00000000 	nop
   147a0:	00000000 	nop
   147a4:	00000000 	nop
   147a8:	00000000 	nop
   147ac:	00000000 	nop
   147b0:	00000000 	nop
   147b4:	00000000 	nop
   147b8:	00000000 	nop
   147bc:	00000000 	nop
   147c0:	00000000 	nop
   147c4:	00000000 	nop
   147c8:	00000000 	nop
   147cc:	00000000 	nop
   147d0:	00000000 	nop
   147d4:	00000000 	nop
   147d8:	00000000 	nop
   147dc:	00000000 	nop
   147e0:	00000000 	nop
   147e4:	00000000 	nop
   147e8:	00000000 	nop
   147ec:	00000000 	nop
   147f0:	00000000 	nop
   147f4:	00000000 	nop
   147f8:	00000000 	nop
   147fc:	00000000 	nop
   14800:	00000000 	nop
   14804:	00000000 	nop
   14808:	00000000 	nop
   1480c:	00000000 	nop
   14810:	00000000 	nop
   14814:	00000000 	nop
   14818:	00000000 	nop
   1481c:	00000000 	nop
   14820:	00000000 	nop
   14824:	00000000 	nop
   14828:	00000000 	nop
   1482c:	00000000 	nop
   14830:	00000000 	nop
   14834:	00000000 	nop
   14838:	00000000 	nop
   1483c:	00000000 	nop
   14840:	00000000 	nop
   14844:	00000000 	nop
   14848:	00000000 	nop
   1484c:	00000000 	nop
   14850:	00000000 	nop
   14854:	00000000 	nop
   14858:	00000000 	nop
   1485c:	00000000 	nop
   14860:	00000000 	nop
   14864:	00000000 	nop
   14868:	00000000 	nop
   1486c:	00000000 	nop
   14870:	00000000 	nop
   14874:	00000000 	nop
   14878:	00000000 	nop
   1487c:	00000000 	nop
   14880:	00000000 	nop
   14884:	00000000 	nop
   14888:	00000000 	nop
   1488c:	00000000 	nop
   14890:	00000000 	nop
   14894:	00000000 	nop
   14898:	00000000 	nop
   1489c:	00000000 	nop
   148a0:	00000000 	nop
   148a4:	00000000 	nop
   148a8:	00000000 	nop
   148ac:	00000000 	nop
   148b0:	00000000 	nop
   148b4:	00000000 	nop
   148b8:	00000000 	nop
   148bc:	00000000 	nop
   148c0:	00000000 	nop
   148c4:	00000000 	nop
   148c8:	00000000 	nop
   148cc:	00000000 	nop
   148d0:	00000000 	nop
   148d4:	00000000 	nop
   148d8:	00000000 	nop
   148dc:	00000000 	nop
   148e0:	00000000 	nop
   148e4:	00000000 	nop
   148e8:	00000000 	nop
   148ec:	00000000 	nop
   148f0:	00000000 	nop
   148f4:	00000000 	nop
   148f8:	00000000 	nop
   148fc:	00000000 	nop
   14900:	00000000 	nop
   14904:	00000000 	nop
   14908:	00000000 	nop
   1490c:	00000000 	nop
   14910:	00000000 	nop
   14914:	00000000 	nop
   14918:	00000000 	nop
   1491c:	00000000 	nop
   14920:	00000000 	nop
   14924:	00000000 	nop
   14928:	00000000 	nop
   1492c:	00000000 	nop
   14930:	00000000 	nop
   14934:	00000000 	nop
   14938:	00000000 	nop
   1493c:	00000000 	nop
   14940:	00000000 	nop
   14944:	00000000 	nop
   14948:	00000000 	nop
   1494c:	00000000 	nop
   14950:	00000000 	nop
   14954:	00000000 	nop
   14958:	00000000 	nop
   1495c:	00000000 	nop
   14960:	00000000 	nop
   14964:	00000000 	nop
   14968:	00000000 	nop
   1496c:	00000000 	nop
   14970:	00000000 	nop
   14974:	00000000 	nop
   14978:	00000000 	nop
   1497c:	00000000 	nop
   14980:	00000000 	nop
   14984:	00000000 	nop
   14988:	00000000 	nop
   1498c:	00000000 	nop
   14990:	00000000 	nop
   14994:	00000000 	nop
   14998:	00000000 	nop
   1499c:	00000000 	nop
   149a0:	00000000 	nop
   149a4:	00000000 	nop
   149a8:	00000000 	nop
   149ac:	00000000 	nop
   149b0:	00000000 	nop
   149b4:	00000000 	nop
   149b8:	00000000 	nop
   149bc:	00000000 	nop
   149c0:	00000000 	nop
   149c4:	00000000 	nop
   149c8:	00000000 	nop
   149cc:	00000000 	nop
   149d0:	00000000 	nop
   149d4:	00000000 	nop
   149d8:	00000000 	nop
   149dc:	00000000 	nop
   149e0:	00000000 	nop
   149e4:	00000000 	nop
   149e8:	00000000 	nop
   149ec:	00000000 	nop
   149f0:	00000000 	nop
   149f4:	00000000 	nop
   149f8:	00000000 	nop
   149fc:	00000000 	nop
   14a00:	00000000 	nop
   14a04:	00000000 	nop
   14a08:	00000000 	nop
   14a0c:	00000000 	nop
   14a10:	00000000 	nop
   14a14:	00000000 	nop
   14a18:	00000000 	nop
   14a1c:	00000000 	nop
   14a20:	00000000 	nop
   14a24:	00000000 	nop
   14a28:	00000000 	nop
   14a2c:	00000000 	nop
   14a30:	00000000 	nop
   14a34:	00000000 	nop
   14a38:	00000000 	nop
   14a3c:	00000000 	nop
   14a40:	00000000 	nop
   14a44:	00000000 	nop
   14a48:	00000000 	nop
   14a4c:	00000000 	nop
   14a50:	00000000 	nop
   14a54:	00000000 	nop
   14a58:	00000000 	nop
   14a5c:	00000000 	nop
   14a60:	00000000 	nop
   14a64:	00000000 	nop
   14a68:	00000000 	nop
   14a6c:	00000000 	nop
   14a70:	00000000 	nop
   14a74:	00000000 	nop
   14a78:	00000000 	nop
   14a7c:	00000000 	nop
   14a80:	00000000 	nop
   14a84:	00000000 	nop
   14a88:	00000000 	nop
   14a8c:	00000000 	nop
   14a90:	00000000 	nop
   14a94:	00000000 	nop
   14a98:	00000000 	nop
   14a9c:	00000000 	nop
   14aa0:	00000000 	nop
   14aa4:	00000000 	nop
   14aa8:	00000000 	nop
   14aac:	00000000 	nop
   14ab0:	00000000 	nop
   14ab4:	00000000 	nop
   14ab8:	00000000 	nop
   14abc:	00000000 	nop
   14ac0:	00000000 	nop
   14ac4:	00000000 	nop
   14ac8:	00000000 	nop
   14acc:	00000000 	nop
   14ad0:	00000000 	nop
   14ad4:	00000000 	nop
   14ad8:	00000000 	nop
   14adc:	00000000 	nop
   14ae0:	00000000 	nop
   14ae4:	00000000 	nop
   14ae8:	00000000 	nop
   14aec:	00000000 	nop
   14af0:	00000000 	nop
   14af4:	00000000 	nop
   14af8:	00000000 	nop
   14afc:	00000000 	nop
   14b00:	00000000 	nop
   14b04:	00000000 	nop
   14b08:	00000000 	nop
   14b0c:	00000000 	nop
   14b10:	00000000 	nop
   14b14:	00000000 	nop
   14b18:	00000000 	nop
   14b1c:	00000000 	nop
   14b20:	00000000 	nop
   14b24:	00000000 	nop
   14b28:	00000000 	nop
   14b2c:	00000000 	nop
   14b30:	00000000 	nop
   14b34:	00000000 	nop
   14b38:	00000000 	nop
   14b3c:	00000000 	nop
   14b40:	00000000 	nop
   14b44:	00000000 	nop
   14b48:	00000000 	nop
   14b4c:	00000000 	nop
   14b50:	00000000 	nop
   14b54:	00000000 	nop
   14b58:	00000000 	nop
   14b5c:	00000000 	nop
   14b60:	00000000 	nop
   14b64:	00000000 	nop
   14b68:	00000000 	nop
   14b6c:	00000000 	nop
   14b70:	00000000 	nop
   14b74:	00000000 	nop
   14b78:	00000000 	nop
   14b7c:	00000000 	nop
   14b80:	00000000 	nop
   14b84:	00000000 	nop
   14b88:	00000000 	nop
   14b8c:	00000000 	nop
   14b90:	00000000 	nop
   14b94:	00000000 	nop
   14b98:	00000000 	nop
   14b9c:	00000000 	nop
   14ba0:	00000000 	nop
   14ba4:	00000000 	nop
   14ba8:	00000000 	nop
   14bac:	00000000 	nop
   14bb0:	00000000 	nop
   14bb4:	00000000 	nop
   14bb8:	00000000 	nop
   14bbc:	00000000 	nop
   14bc0:	00000000 	nop
   14bc4:	00000000 	nop
   14bc8:	00000000 	nop
   14bcc:	00000000 	nop
   14bd0:	00000000 	nop
   14bd4:	00000000 	nop
   14bd8:	00000000 	nop
   14bdc:	00000000 	nop
   14be0:	00000000 	nop
   14be4:	00000000 	nop
   14be8:	00000000 	nop
   14bec:	00000000 	nop
   14bf0:	00000000 	nop
   14bf4:	00000000 	nop
   14bf8:	00000000 	nop
   14bfc:	00000000 	nop
   14c00:	00000000 	nop
   14c04:	00000000 	nop
   14c08:	00000000 	nop
   14c0c:	00000000 	nop
   14c10:	00000000 	nop
   14c14:	00000000 	nop
   14c18:	00000000 	nop
   14c1c:	00000000 	nop
   14c20:	00000000 	nop
   14c24:	00000000 	nop
   14c28:	00000000 	nop
   14c2c:	00000000 	nop
   14c30:	00000000 	nop
   14c34:	00000000 	nop
   14c38:	00000000 	nop
   14c3c:	00000000 	nop
   14c40:	00000000 	nop
   14c44:	00000000 	nop
   14c48:	00000000 	nop
   14c4c:	00000000 	nop
   14c50:	00000000 	nop
   14c54:	00000000 	nop
   14c58:	00000000 	nop
   14c5c:	00000000 	nop
   14c60:	00000000 	nop
   14c64:	00000000 	nop
   14c68:	00000000 	nop
   14c6c:	00000000 	nop
   14c70:	00000000 	nop
   14c74:	00000000 	nop
   14c78:	00000000 	nop
   14c7c:	00000000 	nop
   14c80:	00000000 	nop
   14c84:	00000000 	nop
   14c88:	00000000 	nop
   14c8c:	00000000 	nop
   14c90:	00000000 	nop
   14c94:	00000000 	nop
   14c98:	00000000 	nop
   14c9c:	00000000 	nop
   14ca0:	00000000 	nop
   14ca4:	00000000 	nop
   14ca8:	00000000 	nop
   14cac:	00000000 	nop
   14cb0:	00000000 	nop
   14cb4:	00000000 	nop
   14cb8:	00000000 	nop
   14cbc:	00000000 	nop
   14cc0:	00000000 	nop
   14cc4:	00000000 	nop
   14cc8:	00000000 	nop
   14ccc:	00000000 	nop
   14cd0:	00000000 	nop
   14cd4:	00000000 	nop
   14cd8:	00000000 	nop
   14cdc:	00000000 	nop
   14ce0:	00000000 	nop
   14ce4:	00000000 	nop
   14ce8:	00000000 	nop
   14cec:	00000000 	nop
   14cf0:	00000000 	nop
   14cf4:	00000000 	nop
   14cf8:	00000000 	nop
   14cfc:	00000000 	nop
   14d00:	00000000 	nop
   14d04:	00000000 	nop
   14d08:	00000000 	nop
   14d0c:	00000000 	nop
   14d10:	00000000 	nop
   14d14:	00000000 	nop
   14d18:	00000000 	nop
   14d1c:	00000000 	nop
   14d20:	00000000 	nop
   14d24:	00000000 	nop
   14d28:	00000000 	nop
   14d2c:	00000000 	nop
   14d30:	00000000 	nop
   14d34:	00000000 	nop
   14d38:	00000000 	nop
   14d3c:	00000000 	nop
   14d40:	00000000 	nop
   14d44:	00000000 	nop
   14d48:	00000000 	nop
   14d4c:	00000000 	nop
   14d50:	00000000 	nop
   14d54:	00000000 	nop
   14d58:	00000000 	nop
   14d5c:	00000000 	nop
   14d60:	00000000 	nop
   14d64:	00000000 	nop
   14d68:	00000000 	nop
   14d6c:	00000000 	nop
   14d70:	00000000 	nop
   14d74:	00000000 	nop
   14d78:	00000000 	nop
   14d7c:	00000000 	nop
   14d80:	00000000 	nop
   14d84:	00000000 	nop
   14d88:	00000000 	nop
   14d8c:	00000000 	nop
   14d90:	00000000 	nop
   14d94:	00000000 	nop
   14d98:	00000000 	nop
   14d9c:	00000000 	nop
   14da0:	00000000 	nop
   14da4:	00000000 	nop
   14da8:	00000000 	nop
   14dac:	00000000 	nop
   14db0:	00000000 	nop
   14db4:	00000000 	nop
   14db8:	00000000 	nop
   14dbc:	00000000 	nop
   14dc0:	00000000 	nop
   14dc4:	00000000 	nop
   14dc8:	00000000 	nop
   14dcc:	00000000 	nop
   14dd0:	00000000 	nop
   14dd4:	00000000 	nop
   14dd8:	00000000 	nop
   14ddc:	00000000 	nop
   14de0:	00000000 	nop
   14de4:	00000000 	nop
   14de8:	00000000 	nop
   14dec:	00000000 	nop
   14df0:	00000000 	nop
   14df4:	00000000 	nop
   14df8:	00000000 	nop
   14dfc:	00000000 	nop
   14e00:	00000000 	nop
   14e04:	00000000 	nop
   14e08:	00000000 	nop
   14e0c:	00000000 	nop
   14e10:	00000000 	nop
   14e14:	00000000 	nop
   14e18:	00000000 	nop
   14e1c:	00000000 	nop
   14e20:	00000000 	nop
   14e24:	00000000 	nop
   14e28:	00000000 	nop
   14e2c:	00000000 	nop
   14e30:	00000000 	nop
   14e34:	00000000 	nop
   14e38:	00000000 	nop
   14e3c:	00000000 	nop
   14e40:	00000000 	nop
   14e44:	00000000 	nop
   14e48:	00000000 	nop
   14e4c:	00000000 	nop
   14e50:	00000000 	nop
   14e54:	00000000 	nop
   14e58:	00000000 	nop
   14e5c:	00000000 	nop
   14e60:	00000000 	nop
   14e64:	00000000 	nop
   14e68:	00000000 	nop
   14e6c:	00000000 	nop
   14e70:	00000000 	nop
   14e74:	00000000 	nop
   14e78:	00000000 	nop
   14e7c:	00000000 	nop
   14e80:	00000000 	nop
   14e84:	00000000 	nop
   14e88:	00000000 	nop
   14e8c:	00000000 	nop
   14e90:	00000000 	nop
   14e94:	00000000 	nop
   14e98:	00000000 	nop
   14e9c:	00000000 	nop
   14ea0:	00000000 	nop
   14ea4:	00000000 	nop
   14ea8:	00000000 	nop
   14eac:	00000000 	nop
   14eb0:	00000000 	nop
   14eb4:	00000000 	nop
   14eb8:	00000000 	nop
   14ebc:	00000000 	nop
   14ec0:	00000000 	nop
   14ec4:	00000000 	nop
   14ec8:	00000000 	nop
   14ecc:	00000000 	nop
   14ed0:	00000000 	nop
   14ed4:	00000000 	nop
   14ed8:	00000000 	nop
   14edc:	00000000 	nop
   14ee0:	00000000 	nop
   14ee4:	00000000 	nop
   14ee8:	00000000 	nop
   14eec:	00000000 	nop
   14ef0:	00000000 	nop
   14ef4:	00000000 	nop
   14ef8:	00000000 	nop
   14efc:	00000000 	nop
   14f00:	00000000 	nop
   14f04:	00000000 	nop
   14f08:	00000000 	nop
   14f0c:	00000000 	nop
   14f10:	00000000 	nop
   14f14:	00000000 	nop
   14f18:	00000000 	nop
   14f1c:	00000000 	nop
   14f20:	00000000 	nop
   14f24:	00000000 	nop
   14f28:	00000000 	nop
   14f2c:	00000000 	nop
   14f30:	00000000 	nop
   14f34:	00000000 	nop
   14f38:	00000000 	nop
   14f3c:	00000000 	nop
   14f40:	00000000 	nop
   14f44:	00000000 	nop
   14f48:	00000000 	nop
   14f4c:	00000000 	nop
   14f50:	00000000 	nop
   14f54:	00000000 	nop
   14f58:	00000000 	nop
   14f5c:	00000000 	nop
   14f60:	00000000 	nop
   14f64:	00000000 	nop
   14f68:	00000000 	nop
   14f6c:	00000000 	nop
   14f70:	00000000 	nop
   14f74:	00000000 	nop
   14f78:	00000000 	nop
   14f7c:	00000000 	nop
   14f80:	00000000 	nop
   14f84:	00000000 	nop
   14f88:	00000000 	nop
   14f8c:	00000000 	nop
   14f90:	00000000 	nop
   14f94:	00000000 	nop
   14f98:	00000000 	nop
   14f9c:	00000000 	nop
   14fa0:	00000000 	nop
   14fa4:	00000000 	nop
   14fa8:	00000000 	nop
   14fac:	00000000 	nop
   14fb0:	00000000 	nop
   14fb4:	00000000 	nop
   14fb8:	00000000 	nop
   14fbc:	00000000 	nop
   14fc0:	00000000 	nop
   14fc4:	00000000 	nop
   14fc8:	00000000 	nop
   14fcc:	00000000 	nop
   14fd0:	00000000 	nop
   14fd4:	00000000 	nop
   14fd8:	00000000 	nop
   14fdc:	00000000 	nop
   14fe0:	00000000 	nop
   14fe4:	00000000 	nop
   14fe8:	00000000 	nop
   14fec:	00000000 	nop
   14ff0:	00000000 	nop
   14ff4:	00000000 	nop
   14ff8:	00000000 	nop
   14ffc:	00000000 	nop
   15000:	00000000 	nop
   15004:	00000000 	nop
   15008:	00000000 	nop
   1500c:	00000000 	nop
   15010:	00000000 	nop
   15014:	00000000 	nop
   15018:	00000000 	nop
   1501c:	00000000 	nop
   15020:	00000000 	nop
   15024:	00000000 	nop
   15028:	00000000 	nop
   1502c:	00000000 	nop
   15030:	00000000 	nop
   15034:	00000000 	nop
   15038:	00000000 	nop
   1503c:	00000000 	nop
   15040:	00000000 	nop
   15044:	00000000 	nop
   15048:	00000000 	nop
   1504c:	00000000 	nop
   15050:	00000000 	nop
   15054:	00000000 	nop
   15058:	00000000 	nop
   1505c:	00000000 	nop
   15060:	00000000 	nop
   15064:	00000000 	nop
   15068:	00000000 	nop
   1506c:	00000000 	nop
   15070:	00000000 	nop
   15074:	00000000 	nop
   15078:	00000000 	nop
   1507c:	00000000 	nop
   15080:	00000000 	nop
   15084:	00000000 	nop
   15088:	00000000 	nop
   1508c:	00000000 	nop
   15090:	00000000 	nop
   15094:	00000000 	nop
   15098:	00000000 	nop
   1509c:	00000000 	nop
   150a0:	00000000 	nop
   150a4:	00000000 	nop
   150a8:	00000000 	nop
   150ac:	00000000 	nop
   150b0:	00000000 	nop
   150b4:	00000000 	nop
   150b8:	00000000 	nop
   150bc:	00000000 	nop
   150c0:	00000000 	nop
   150c4:	00000000 	nop
   150c8:	00000000 	nop
   150cc:	00000000 	nop
   150d0:	00000000 	nop
   150d4:	00000000 	nop
   150d8:	00000000 	nop
   150dc:	00000000 	nop
   150e0:	00000000 	nop
   150e4:	00000000 	nop
   150e8:	00000000 	nop
   150ec:	00000000 	nop
   150f0:	00000000 	nop
   150f4:	00000000 	nop
   150f8:	00000000 	nop
   150fc:	00000000 	nop
   15100:	00000000 	nop
   15104:	00000000 	nop
   15108:	00000000 	nop
   1510c:	00000000 	nop
   15110:	00000000 	nop
   15114:	00000000 	nop
   15118:	00000000 	nop
   1511c:	00000000 	nop
   15120:	00000000 	nop
   15124:	00000000 	nop
   15128:	00000000 	nop
   1512c:	00000000 	nop
   15130:	00000000 	nop
   15134:	00000000 	nop
   15138:	00000000 	nop
   1513c:	00000000 	nop
   15140:	00000000 	nop
   15144:	00000000 	nop
   15148:	00000000 	nop
   1514c:	00000000 	nop
   15150:	00000000 	nop
   15154:	00000000 	nop
   15158:	00000000 	nop
   1515c:	00000000 	nop
   15160:	00000000 	nop
   15164:	00000000 	nop
   15168:	00000000 	nop
   1516c:	00000000 	nop
   15170:	00000000 	nop
   15174:	00000000 	nop
   15178:	00000000 	nop
   1517c:	00000000 	nop
   15180:	00000000 	nop
   15184:	00000000 	nop
   15188:	00000000 	nop
   1518c:	00000000 	nop
   15190:	00000000 	nop
   15194:	00000000 	nop
   15198:	00000000 	nop
   1519c:	00000000 	nop
   151a0:	00000000 	nop
   151a4:	00000000 	nop
   151a8:	00000000 	nop
   151ac:	00000000 	nop
   151b0:	00000000 	nop
   151b4:	00000000 	nop
   151b8:	00000000 	nop
   151bc:	00000000 	nop
   151c0:	00000000 	nop
   151c4:	00000000 	nop
   151c8:	00000000 	nop
   151cc:	00000000 	nop
   151d0:	00000000 	nop
   151d4:	00000000 	nop
   151d8:	00000000 	nop
   151dc:	00000000 	nop
   151e0:	00000000 	nop
   151e4:	00000000 	nop
   151e8:	00000000 	nop
   151ec:	00000000 	nop
   151f0:	00000000 	nop
   151f4:	00000000 	nop
   151f8:	00000000 	nop
   151fc:	00000000 	nop
   15200:	00000000 	nop
   15204:	00000000 	nop
   15208:	00000000 	nop
   1520c:	00000000 	nop
   15210:	00000000 	nop
   15214:	00000000 	nop
   15218:	00000000 	nop
   1521c:	00000000 	nop
   15220:	00000000 	nop
   15224:	00000000 	nop
   15228:	00000000 	nop
   1522c:	00000000 	nop
   15230:	00000000 	nop
   15234:	00000000 	nop
   15238:	00000000 	nop
   1523c:	00000000 	nop
   15240:	00000000 	nop
   15244:	00000000 	nop
   15248:	00000000 	nop
   1524c:	00000000 	nop
   15250:	00000000 	nop
   15254:	00000000 	nop
   15258:	00000000 	nop
   1525c:	00000000 	nop
   15260:	00000000 	nop
   15264:	00000000 	nop
   15268:	00000000 	nop
   1526c:	00000000 	nop
   15270:	00000000 	nop
   15274:	00000000 	nop
   15278:	00000000 	nop
   1527c:	00000000 	nop
   15280:	00000000 	nop
   15284:	00000000 	nop
   15288:	00000000 	nop
   1528c:	00000000 	nop
   15290:	00000000 	nop
   15294:	00000000 	nop
   15298:	00000000 	nop
   1529c:	00000000 	nop
   152a0:	00000000 	nop
   152a4:	00000000 	nop
   152a8:	00000000 	nop
   152ac:	00000000 	nop
   152b0:	00000000 	nop
   152b4:	00000000 	nop
   152b8:	00000000 	nop
   152bc:	00000000 	nop
   152c0:	00000000 	nop
   152c4:	00000000 	nop
   152c8:	00000000 	nop
   152cc:	00000000 	nop
   152d0:	00000000 	nop
   152d4:	00000000 	nop
   152d8:	00000000 	nop
   152dc:	00000000 	nop
   152e0:	00000000 	nop
   152e4:	00000000 	nop
   152e8:	00000000 	nop
   152ec:	00000000 	nop
   152f0:	00000000 	nop
   152f4:	00000000 	nop
   152f8:	00000000 	nop
   152fc:	00000000 	nop
   15300:	00000000 	nop
   15304:	00000000 	nop
   15308:	00000000 	nop
   1530c:	00000000 	nop
   15310:	00000000 	nop
   15314:	00000000 	nop
   15318:	00000000 	nop
   1531c:	00000000 	nop
   15320:	00000000 	nop
   15324:	00000000 	nop
   15328:	00000000 	nop
   1532c:	00000000 	nop
   15330:	00000000 	nop
   15334:	00000000 	nop
   15338:	00000000 	nop
   1533c:	00000000 	nop
   15340:	00000000 	nop
   15344:	00000000 	nop
   15348:	00000000 	nop
   1534c:	00000000 	nop
   15350:	00000000 	nop
   15354:	00000000 	nop
   15358:	00000000 	nop
   1535c:	00000000 	nop
   15360:	00000000 	nop
   15364:	00000000 	nop
   15368:	00000000 	nop
   1536c:	00000000 	nop
   15370:	00000000 	nop
   15374:	00000000 	nop
   15378:	00000000 	nop
   1537c:	00000000 	nop
   15380:	00000000 	nop
   15384:	00000000 	nop
   15388:	00000000 	nop
   1538c:	00000000 	nop
   15390:	00000000 	nop
   15394:	00000000 	nop
   15398:	00000000 	nop
   1539c:	00000000 	nop
   153a0:	00000000 	nop
   153a4:	00000000 	nop
   153a8:	00000000 	nop
   153ac:	00000000 	nop
   153b0:	00000000 	nop
   153b4:	00000000 	nop
   153b8:	00000000 	nop
   153bc:	00000000 	nop
   153c0:	00000000 	nop
   153c4:	00000000 	nop
   153c8:	00000000 	nop
   153cc:	00000000 	nop
   153d0:	00000000 	nop
   153d4:	00000000 	nop
   153d8:	00000000 	nop
   153dc:	00000000 	nop
   153e0:	00000000 	nop
   153e4:	00000000 	nop
   153e8:	00000000 	nop
   153ec:	00000000 	nop
   153f0:	00000000 	nop
   153f4:	00000000 	nop
   153f8:	00000000 	nop
   153fc:	00000000 	nop
   15400:	00000000 	nop
   15404:	00000000 	nop
   15408:	00000000 	nop
   1540c:	00000000 	nop
   15410:	00000000 	nop
   15414:	00000000 	nop
   15418:	00000000 	nop
   1541c:	00000000 	nop
   15420:	00000000 	nop
   15424:	00000000 	nop
   15428:	00000000 	nop
   1542c:	00000000 	nop
   15430:	00000000 	nop
   15434:	00000000 	nop
   15438:	00000000 	nop
   1543c:	00000000 	nop
   15440:	00000000 	nop
   15444:	00000000 	nop
   15448:	00000000 	nop
   1544c:	00000000 	nop
   15450:	00000000 	nop
   15454:	00000000 	nop
   15458:	00000000 	nop
   1545c:	00000000 	nop
   15460:	00000000 	nop
   15464:	00000000 	nop
   15468:	00000000 	nop
   1546c:	00000000 	nop
   15470:	00000000 	nop
   15474:	00000000 	nop
   15478:	00000000 	nop
   1547c:	00000000 	nop
   15480:	00000000 	nop
   15484:	00000000 	nop
   15488:	00000000 	nop
   1548c:	00000000 	nop
   15490:	00000000 	nop
   15494:	00000000 	nop
   15498:	00000000 	nop
   1549c:	00000000 	nop
   154a0:	00000000 	nop
   154a4:	00000000 	nop
   154a8:	00000000 	nop
   154ac:	00000000 	nop
   154b0:	00000000 	nop
   154b4:	00000000 	nop
   154b8:	00000000 	nop
   154bc:	00000000 	nop
   154c0:	00000000 	nop
   154c4:	00000000 	nop
   154c8:	00000000 	nop
   154cc:	00000000 	nop
   154d0:	00000000 	nop
   154d4:	00000000 	nop
   154d8:	00000000 	nop
   154dc:	00000000 	nop
   154e0:	00000000 	nop
   154e4:	00000000 	nop
   154e8:	00000000 	nop
   154ec:	00000000 	nop
   154f0:	00000000 	nop
   154f4:	00000000 	nop
   154f8:	00000000 	nop
   154fc:	00000000 	nop
   15500:	00000000 	nop
   15504:	00000000 	nop
   15508:	00000000 	nop
   1550c:	00000000 	nop
   15510:	00000000 	nop
   15514:	00000000 	nop
   15518:	00000000 	nop
   1551c:	00000000 	nop
   15520:	00000000 	nop
   15524:	00000000 	nop
   15528:	00000000 	nop
   1552c:	00000000 	nop
   15530:	00000000 	nop
   15534:	00000000 	nop
   15538:	00000000 	nop
   1553c:	00000000 	nop
   15540:	00000000 	nop
   15544:	00000000 	nop
   15548:	00000000 	nop
   1554c:	00000000 	nop
   15550:	00000000 	nop
   15554:	00000000 	nop
   15558:	00000000 	nop
   1555c:	00000000 	nop
   15560:	00000000 	nop
   15564:	00000000 	nop
   15568:	00000000 	nop
   1556c:	00000000 	nop
   15570:	00000000 	nop
   15574:	00000000 	nop
   15578:	00000000 	nop
   1557c:	00000000 	nop
   15580:	00000000 	nop
   15584:	00000000 	nop
   15588:	00000000 	nop
   1558c:	00000000 	nop
   15590:	00000000 	nop
   15594:	00000000 	nop
   15598:	00000000 	nop
   1559c:	00000000 	nop
   155a0:	00000000 	nop
   155a4:	00000000 	nop
   155a8:	00000000 	nop
   155ac:	00000000 	nop
   155b0:	00000000 	nop
   155b4:	00000000 	nop
   155b8:	00000000 	nop
   155bc:	00000000 	nop
   155c0:	00000000 	nop
   155c4:	00000000 	nop
   155c8:	00000000 	nop
   155cc:	00000000 	nop
   155d0:	00000000 	nop
   155d4:	00000000 	nop
   155d8:	00000000 	nop
   155dc:	00000000 	nop
   155e0:	00000000 	nop
   155e4:	00000000 	nop
   155e8:	00000000 	nop
   155ec:	00000000 	nop
   155f0:	00000000 	nop
   155f4:	00000000 	nop
   155f8:	00000000 	nop
   155fc:	00000000 	nop
   15600:	00000000 	nop
   15604:	00000000 	nop
   15608:	00000000 	nop
   1560c:	00000000 	nop
   15610:	00000000 	nop
   15614:	00000000 	nop
   15618:	00000000 	nop
   1561c:	00000000 	nop
   15620:	00000000 	nop
   15624:	00000000 	nop
   15628:	00000000 	nop
   1562c:	00000000 	nop
   15630:	00000000 	nop
   15634:	00000000 	nop
   15638:	00000000 	nop
   1563c:	00000000 	nop
   15640:	00000000 	nop
   15644:	00000000 	nop
   15648:	00000000 	nop
   1564c:	00000000 	nop
   15650:	00000000 	nop
   15654:	00000000 	nop
   15658:	00000000 	nop
   1565c:	00000000 	nop
   15660:	00000000 	nop
   15664:	00000000 	nop
   15668:	00000000 	nop
   1566c:	00000000 	nop
   15670:	00000000 	nop
   15674:	00000000 	nop
   15678:	00000000 	nop
   1567c:	00000000 	nop
   15680:	00000000 	nop
   15684:	00000000 	nop
   15688:	00000000 	nop
   1568c:	00000000 	nop
   15690:	00000000 	nop
   15694:	00000000 	nop
   15698:	00000000 	nop
   1569c:	00000000 	nop
   156a0:	00000000 	nop
   156a4:	00000000 	nop
   156a8:	00000000 	nop
   156ac:	00000000 	nop
   156b0:	00000000 	nop
   156b4:	00000000 	nop
   156b8:	00000000 	nop
   156bc:	00000000 	nop
   156c0:	00000000 	nop
   156c4:	00000000 	nop
   156c8:	00000000 	nop
   156cc:	00000000 	nop
   156d0:	00000000 	nop
   156d4:	00000000 	nop
   156d8:	00000000 	nop
   156dc:	00000000 	nop
   156e0:	00000000 	nop
   156e4:	00000000 	nop
   156e8:	00000000 	nop
   156ec:	00000000 	nop
   156f0:	00000000 	nop
   156f4:	00000000 	nop
   156f8:	00000000 	nop
   156fc:	00000000 	nop
   15700:	00000000 	nop
   15704:	00000000 	nop
   15708:	00000000 	nop
   1570c:	00000000 	nop
   15710:	00000000 	nop
   15714:	00000000 	nop
   15718:	00000000 	nop
   1571c:	00000000 	nop
   15720:	00000000 	nop
   15724:	00000000 	nop
   15728:	00000000 	nop
   1572c:	00000000 	nop
   15730:	00000000 	nop
   15734:	00000000 	nop
   15738:	00000000 	nop
   1573c:	00000000 	nop
   15740:	00000000 	nop
   15744:	00000000 	nop
   15748:	00000000 	nop
   1574c:	00000000 	nop
   15750:	00000000 	nop
   15754:	00000000 	nop
   15758:	00000000 	nop
   1575c:	00000000 	nop
   15760:	00000000 	nop
   15764:	00000000 	nop
   15768:	00000000 	nop
   1576c:	00000000 	nop
   15770:	00000000 	nop
   15774:	00000000 	nop
   15778:	00000000 	nop
   1577c:	00000000 	nop
   15780:	00000000 	nop
   15784:	00000000 	nop
   15788:	00000000 	nop
   1578c:	00000000 	nop
   15790:	00000000 	nop
   15794:	00000000 	nop
   15798:	00000000 	nop
   1579c:	00000000 	nop
   157a0:	00000000 	nop
   157a4:	00000000 	nop
   157a8:	00000000 	nop
   157ac:	00000000 	nop
   157b0:	00000000 	nop
   157b4:	00000000 	nop
   157b8:	00000000 	nop
   157bc:	00000000 	nop
   157c0:	00000000 	nop
   157c4:	00000000 	nop
   157c8:	00000000 	nop
   157cc:	00000000 	nop
   157d0:	00000000 	nop
   157d4:	00000000 	nop
   157d8:	00000000 	nop
   157dc:	00000000 	nop
   157e0:	00000000 	nop
   157e4:	00000000 	nop
   157e8:	00000000 	nop
   157ec:	00000000 	nop
   157f0:	00000000 	nop
   157f4:	00000000 	nop
   157f8:	00000000 	nop
   157fc:	00000000 	nop
   15800:	00000000 	nop
   15804:	00000000 	nop
   15808:	00000000 	nop
   1580c:	00000000 	nop
   15810:	00000000 	nop
   15814:	00000000 	nop
   15818:	00000000 	nop
   1581c:	00000000 	nop
   15820:	00000000 	nop
   15824:	00000000 	nop
   15828:	00000000 	nop
   1582c:	00000000 	nop
   15830:	00000000 	nop
   15834:	00000000 	nop
   15838:	00000000 	nop
   1583c:	00000000 	nop
   15840:	00000000 	nop
   15844:	00000000 	nop
   15848:	00000000 	nop
   1584c:	00000000 	nop
   15850:	00000000 	nop
   15854:	00000000 	nop
   15858:	00000000 	nop
   1585c:	00000000 	nop
   15860:	00000000 	nop
   15864:	00000000 	nop
   15868:	00000000 	nop
   1586c:	00000000 	nop
   15870:	00000000 	nop
   15874:	00000000 	nop
   15878:	00000000 	nop
   1587c:	00000000 	nop
   15880:	00000000 	nop
   15884:	00000000 	nop
   15888:	00000000 	nop
   1588c:	00000000 	nop
   15890:	00000000 	nop
   15894:	00000000 	nop
   15898:	00000000 	nop
   1589c:	00000000 	nop
   158a0:	00000000 	nop
   158a4:	00000000 	nop
   158a8:	00000000 	nop
   158ac:	00000000 	nop
   158b0:	00000000 	nop
   158b4:	00000000 	nop
   158b8:	00000000 	nop
   158bc:	00000000 	nop
   158c0:	00000000 	nop
   158c4:	00000000 	nop
   158c8:	00000000 	nop
   158cc:	00000000 	nop
   158d0:	00000000 	nop
   158d4:	00000000 	nop
   158d8:	00000000 	nop
   158dc:	00000000 	nop
   158e0:	00000000 	nop
   158e4:	00000000 	nop
   158e8:	00000000 	nop
   158ec:	00000000 	nop
   158f0:	00000000 	nop
   158f4:	00000000 	nop
   158f8:	00000000 	nop
   158fc:	00000000 	nop
   15900:	00000000 	nop
   15904:	00000000 	nop
   15908:	00000000 	nop
   1590c:	00000000 	nop
   15910:	00000000 	nop
   15914:	00000000 	nop
   15918:	00000000 	nop
   1591c:	00000000 	nop
   15920:	00000000 	nop
   15924:	00000000 	nop
   15928:	00000000 	nop
   1592c:	00000000 	nop
   15930:	00000000 	nop
   15934:	00000000 	nop
   15938:	00000000 	nop
   1593c:	00000000 	nop
   15940:	00000000 	nop
   15944:	00000000 	nop
   15948:	00000000 	nop
   1594c:	00000000 	nop
   15950:	00000000 	nop
   15954:	00000000 	nop
   15958:	00000000 	nop
   1595c:	00000000 	nop
   15960:	00000000 	nop
   15964:	00000000 	nop
   15968:	00000000 	nop
   1596c:	00000000 	nop
   15970:	00000000 	nop
   15974:	00000000 	nop
   15978:	00000000 	nop
   1597c:	00000000 	nop
   15980:	00000000 	nop
   15984:	00000000 	nop
   15988:	00000000 	nop
   1598c:	00000000 	nop
   15990:	00000000 	nop
   15994:	00000000 	nop
   15998:	00000000 	nop
   1599c:	00000000 	nop
   159a0:	00000000 	nop
   159a4:	00000000 	nop
   159a8:	00000000 	nop
   159ac:	00000000 	nop
   159b0:	00000000 	nop
   159b4:	00000000 	nop
   159b8:	00000000 	nop
   159bc:	00000000 	nop
   159c0:	00000000 	nop
   159c4:	00000000 	nop
   159c8:	00000000 	nop
   159cc:	00000000 	nop
   159d0:	00000000 	nop
   159d4:	00000000 	nop
   159d8:	00000000 	nop
   159dc:	00000000 	nop
   159e0:	00000000 	nop
   159e4:	00000000 	nop
   159e8:	00000000 	nop
   159ec:	00000000 	nop
   159f0:	00000000 	nop
   159f4:	00000000 	nop
   159f8:	00000000 	nop
   159fc:	00000000 	nop
   15a00:	00000000 	nop
   15a04:	00000000 	nop
   15a08:	00000000 	nop
   15a0c:	00000000 	nop
   15a10:	00000000 	nop
   15a14:	00000000 	nop
   15a18:	00000000 	nop
   15a1c:	00000000 	nop
   15a20:	00000000 	nop
   15a24:	00000000 	nop
   15a28:	00000000 	nop
   15a2c:	00000000 	nop
   15a30:	00000000 	nop
   15a34:	00000000 	nop
   15a38:	00000000 	nop
   15a3c:	00000000 	nop
   15a40:	00000000 	nop
   15a44:	00000000 	nop
   15a48:	00000000 	nop
   15a4c:	00000000 	nop
   15a50:	00000000 	nop
   15a54:	00000000 	nop
   15a58:	00000000 	nop
   15a5c:	00000000 	nop
   15a60:	00000000 	nop
   15a64:	00000000 	nop
   15a68:	00000000 	nop
   15a6c:	00000000 	nop
   15a70:	00000000 	nop
   15a74:	00000000 	nop
   15a78:	00000000 	nop
   15a7c:	00000000 	nop
   15a80:	00000000 	nop
   15a84:	00000000 	nop
   15a88:	00000000 	nop
   15a8c:	00000000 	nop
   15a90:	00000000 	nop
   15a94:	00000000 	nop
   15a98:	00000000 	nop
   15a9c:	00000000 	nop
   15aa0:	00000000 	nop
   15aa4:	00000000 	nop
   15aa8:	00000000 	nop
   15aac:	00000000 	nop
   15ab0:	00000000 	nop
   15ab4:	00000000 	nop
   15ab8:	00000000 	nop
   15abc:	00000000 	nop
   15ac0:	00000000 	nop
   15ac4:	00000000 	nop
   15ac8:	00000000 	nop
   15acc:	00000000 	nop
   15ad0:	00000000 	nop
   15ad4:	00000000 	nop
   15ad8:	00000000 	nop
   15adc:	00000000 	nop
   15ae0:	00000000 	nop
   15ae4:	00000000 	nop
   15ae8:	00000000 	nop
   15aec:	00000000 	nop
   15af0:	00000000 	nop
   15af4:	00000000 	nop
   15af8:	00000000 	nop
   15afc:	00000000 	nop
   15b00:	00000000 	nop
   15b04:	00000000 	nop
   15b08:	00000000 	nop
   15b0c:	00000000 	nop
   15b10:	00000000 	nop
   15b14:	00000000 	nop
   15b18:	00000000 	nop
   15b1c:	00000000 	nop
   15b20:	00000000 	nop
   15b24:	00000000 	nop
   15b28:	00000000 	nop
   15b2c:	00000000 	nop
   15b30:	00000000 	nop
   15b34:	00000000 	nop
   15b38:	00000000 	nop
   15b3c:	00000000 	nop
   15b40:	00000000 	nop
   15b44:	00000000 	nop
   15b48:	00000000 	nop
   15b4c:	00000000 	nop
   15b50:	00000000 	nop
   15b54:	00000000 	nop
   15b58:	00000000 	nop
   15b5c:	00000000 	nop
   15b60:	00000000 	nop
   15b64:	00000000 	nop
   15b68:	00000000 	nop
   15b6c:	00000000 	nop
   15b70:	00000000 	nop
   15b74:	00000000 	nop
   15b78:	00000000 	nop
   15b7c:	00000000 	nop
   15b80:	00000000 	nop
   15b84:	00000000 	nop
   15b88:	00000000 	nop
   15b8c:	00000000 	nop
   15b90:	00000000 	nop
   15b94:	00000000 	nop
   15b98:	00000000 	nop
   15b9c:	00000000 	nop
   15ba0:	00000000 	nop
   15ba4:	00000000 	nop
   15ba8:	00000000 	nop
   15bac:	00000000 	nop
   15bb0:	00000000 	nop
   15bb4:	00000000 	nop
   15bb8:	00000000 	nop
   15bbc:	00000000 	nop
   15bc0:	00000000 	nop
   15bc4:	00000000 	nop
   15bc8:	00000000 	nop
   15bcc:	00000000 	nop
   15bd0:	00000000 	nop
   15bd4:	00000000 	nop
   15bd8:	00000000 	nop
   15bdc:	00000000 	nop
   15be0:	00000000 	nop
   15be4:	00000000 	nop
   15be8:	00000000 	nop
   15bec:	00000000 	nop
   15bf0:	00000000 	nop
   15bf4:	00000000 	nop
   15bf8:	00000000 	nop
   15bfc:	00000000 	nop
   15c00:	00000000 	nop
   15c04:	00000000 	nop
   15c08:	00000000 	nop
   15c0c:	00000000 	nop
   15c10:	00000000 	nop
   15c14:	00000000 	nop
   15c18:	00000000 	nop
   15c1c:	00000000 	nop
   15c20:	00000000 	nop
   15c24:	00000000 	nop
   15c28:	00000000 	nop
   15c2c:	00000000 	nop
   15c30:	00000000 	nop
   15c34:	00000000 	nop
   15c38:	00000000 	nop
   15c3c:	00000000 	nop
   15c40:	00000000 	nop
   15c44:	00000000 	nop
   15c48:	00000000 	nop
   15c4c:	00000000 	nop
   15c50:	00000000 	nop
   15c54:	00000000 	nop
   15c58:	00000000 	nop
   15c5c:	00000000 	nop
   15c60:	00000000 	nop
   15c64:	00000000 	nop
   15c68:	00000000 	nop
   15c6c:	00000000 	nop
   15c70:	00000000 	nop
   15c74:	00000000 	nop
   15c78:	00000000 	nop
   15c7c:	00000000 	nop
   15c80:	00000000 	nop
   15c84:	00000000 	nop
   15c88:	00000000 	nop
   15c8c:	00000000 	nop
   15c90:	00000000 	nop
   15c94:	00000000 	nop
   15c98:	00000000 	nop
   15c9c:	00000000 	nop
   15ca0:	00000000 	nop
   15ca4:	00000000 	nop
   15ca8:	00000000 	nop
   15cac:	00000000 	nop
   15cb0:	00000000 	nop
   15cb4:	00000000 	nop
   15cb8:	00000000 	nop
   15cbc:	00000000 	nop
   15cc0:	00000000 	nop
   15cc4:	00000000 	nop
   15cc8:	00000000 	nop
   15ccc:	00000000 	nop
   15cd0:	00000000 	nop
   15cd4:	00000000 	nop
   15cd8:	00000000 	nop
   15cdc:	00000000 	nop
   15ce0:	00000000 	nop
   15ce4:	00000000 	nop
   15ce8:	00000000 	nop
   15cec:	00000000 	nop
   15cf0:	00000000 	nop
   15cf4:	00000000 	nop
   15cf8:	00000000 	nop
   15cfc:	00000000 	nop
   15d00:	00000000 	nop
   15d04:	00000000 	nop
   15d08:	00000000 	nop
   15d0c:	00000000 	nop
   15d10:	00000000 	nop
   15d14:	00000000 	nop
   15d18:	00000000 	nop
   15d1c:	00000000 	nop
   15d20:	00000000 	nop
   15d24:	00000000 	nop
   15d28:	00000000 	nop
   15d2c:	00000000 	nop
   15d30:	00000000 	nop
   15d34:	00000000 	nop
   15d38:	00000000 	nop
   15d3c:	00000000 	nop
   15d40:	00000000 	nop
   15d44:	00000000 	nop
   15d48:	00000000 	nop
   15d4c:	00000000 	nop
   15d50:	00000000 	nop
   15d54:	00000000 	nop
   15d58:	00000000 	nop
   15d5c:	00000000 	nop
   15d60:	00000000 	nop
   15d64:	00000000 	nop
   15d68:	00000000 	nop
   15d6c:	00000000 	nop
   15d70:	00000000 	nop
   15d74:	00000000 	nop
   15d78:	00000000 	nop
   15d7c:	00000000 	nop
   15d80:	00000000 	nop
   15d84:	00000000 	nop
   15d88:	00000000 	nop
   15d8c:	00000000 	nop
   15d90:	00000000 	nop
   15d94:	00000000 	nop
   15d98:	00000000 	nop
   15d9c:	00000000 	nop
   15da0:	00000000 	nop
   15da4:	00000000 	nop
   15da8:	00000000 	nop
   15dac:	00000000 	nop
   15db0:	00000000 	nop
   15db4:	00000000 	nop
   15db8:	00000000 	nop
   15dbc:	00000000 	nop
   15dc0:	00000000 	nop
   15dc4:	00000000 	nop
   15dc8:	00000000 	nop
   15dcc:	00000000 	nop
   15dd0:	00000000 	nop
   15dd4:	00000000 	nop
   15dd8:	00000000 	nop
   15ddc:	00000000 	nop
   15de0:	00000000 	nop
   15de4:	00000000 	nop
   15de8:	00000000 	nop
   15dec:	00000000 	nop
   15df0:	00000000 	nop
   15df4:	00000000 	nop
   15df8:	00000000 	nop
   15dfc:	00000000 	nop
   15e00:	00000000 	nop
   15e04:	00000000 	nop
   15e08:	00000000 	nop
   15e0c:	00000000 	nop
   15e10:	00000000 	nop
   15e14:	00000000 	nop
   15e18:	00000000 	nop
   15e1c:	00000000 	nop
   15e20:	00000000 	nop
   15e24:	00000000 	nop
   15e28:	00000000 	nop
   15e2c:	00000000 	nop
   15e30:	00000000 	nop
   15e34:	00000000 	nop
   15e38:	00000000 	nop
   15e3c:	00000000 	nop
   15e40:	00000000 	nop
   15e44:	00000000 	nop
   15e48:	00000000 	nop
   15e4c:	00000000 	nop
   15e50:	00000000 	nop
   15e54:	00000000 	nop
   15e58:	00000000 	nop
   15e5c:	00000000 	nop
   15e60:	00000000 	nop
   15e64:	00000000 	nop
   15e68:	00000000 	nop
   15e6c:	00000000 	nop
   15e70:	00000000 	nop
   15e74:	00000000 	nop
   15e78:	00000000 	nop
   15e7c:	00000000 	nop
   15e80:	00000000 	nop
   15e84:	00000000 	nop
   15e88:	00000000 	nop
   15e8c:	00000000 	nop
   15e90:	00000000 	nop
   15e94:	00000000 	nop
   15e98:	00000000 	nop
   15e9c:	00000000 	nop
   15ea0:	00000000 	nop
   15ea4:	00000000 	nop
   15ea8:	00000000 	nop
   15eac:	00000000 	nop
   15eb0:	00000000 	nop
   15eb4:	00000000 	nop
   15eb8:	00000000 	nop
   15ebc:	00000000 	nop
   15ec0:	00000000 	nop
   15ec4:	00000000 	nop
   15ec8:	00000000 	nop
   15ecc:	00000000 	nop
   15ed0:	00000000 	nop
   15ed4:	00000000 	nop
   15ed8:	00000000 	nop
   15edc:	00000000 	nop
   15ee0:	00000000 	nop
   15ee4:	00000000 	nop
   15ee8:	00000000 	nop
   15eec:	00000000 	nop
   15ef0:	00000000 	nop
   15ef4:	00000000 	nop
   15ef8:	00000000 	nop
   15efc:	00000000 	nop
   15f00:	00000000 	nop
   15f04:	00000000 	nop
   15f08:	00000000 	nop
   15f0c:	00000000 	nop
   15f10:	00000000 	nop
   15f14:	00000000 	nop
   15f18:	00000000 	nop
   15f1c:	00000000 	nop
   15f20:	00000000 	nop
   15f24:	00000000 	nop
   15f28:	00000000 	nop
   15f2c:	00000000 	nop
   15f30:	00000000 	nop
   15f34:	00000000 	nop
   15f38:	00000000 	nop
   15f3c:	00000000 	nop
   15f40:	00000000 	nop
   15f44:	00000000 	nop
   15f48:	00000000 	nop
   15f4c:	00000000 	nop
   15f50:	00000000 	nop
   15f54:	00000000 	nop
   15f58:	00000000 	nop
   15f5c:	00000000 	nop
   15f60:	00000000 	nop
   15f64:	00000000 	nop
   15f68:	00000000 	nop
   15f6c:	00000000 	nop
   15f70:	00000000 	nop
   15f74:	00000000 	nop
   15f78:	00000000 	nop
   15f7c:	00000000 	nop
   15f80:	00000000 	nop
   15f84:	00000000 	nop
   15f88:	00000000 	nop
   15f8c:	00000000 	nop
   15f90:	00000000 	nop
   15f94:	00000000 	nop
   15f98:	00000000 	nop
   15f9c:	00000000 	nop
   15fa0:	00000000 	nop
   15fa4:	00000000 	nop
   15fa8:	00000000 	nop
   15fac:	00000000 	nop
   15fb0:	00000000 	nop
   15fb4:	00000000 	nop
   15fb8:	00000000 	nop
   15fbc:	00000000 	nop
   15fc0:	00000000 	nop
   15fc4:	00000000 	nop
   15fc8:	00000000 	nop
   15fcc:	00000000 	nop
   15fd0:	00000000 	nop
   15fd4:	00000000 	nop
   15fd8:	00000000 	nop
   15fdc:	00000000 	nop
   15fe0:	00000000 	nop
   15fe4:	00000000 	nop
   15fe8:	00000000 	nop
   15fec:	00000000 	nop
   15ff0:	00000000 	nop
   15ff4:	00000000 	nop
   15ff8:	00000000 	nop
   15ffc:	00000000 	nop
   16000:	00000000 	nop
   16004:	00000000 	nop
   16008:	00000000 	nop
   1600c:	00000000 	nop
   16010:	00000000 	nop
   16014:	00000000 	nop
   16018:	00000000 	nop
   1601c:	00000000 	nop
   16020:	00000000 	nop
   16024:	00000000 	nop
   16028:	00000000 	nop
   1602c:	00000000 	nop
   16030:	00000000 	nop
   16034:	00000000 	nop
   16038:	00000000 	nop
   1603c:	00000000 	nop
   16040:	00000000 	nop
   16044:	00000000 	nop
   16048:	00000000 	nop
   1604c:	00000000 	nop
   16050:	00000000 	nop
   16054:	00000000 	nop
   16058:	00000000 	nop
   1605c:	00000000 	nop
   16060:	00000000 	nop
   16064:	00000000 	nop
   16068:	00000000 	nop
   1606c:	00000000 	nop
   16070:	00000000 	nop
   16074:	00000000 	nop
   16078:	00000000 	nop
   1607c:	00000000 	nop
   16080:	00000000 	nop
   16084:	00000000 	nop
   16088:	00000000 	nop
   1608c:	00000000 	nop
   16090:	00000000 	nop
   16094:	00000000 	nop
   16098:	00000000 	nop
   1609c:	00000000 	nop
   160a0:	00000000 	nop
   160a4:	00000000 	nop
   160a8:	00000000 	nop
   160ac:	00000000 	nop
   160b0:	00000000 	nop
   160b4:	00000000 	nop
   160b8:	00000000 	nop
   160bc:	00000000 	nop
   160c0:	00000000 	nop
   160c4:	00000000 	nop
   160c8:	00000000 	nop
   160cc:	00000000 	nop
   160d0:	00000000 	nop
   160d4:	00000000 	nop
   160d8:	00000000 	nop
   160dc:	00000000 	nop
   160e0:	00000000 	nop
   160e4:	00000000 	nop
   160e8:	00000000 	nop
   160ec:	00000000 	nop
   160f0:	00000000 	nop
   160f4:	00000000 	nop
   160f8:	00000000 	nop
   160fc:	00000000 	nop
   16100:	00000000 	nop
   16104:	00000000 	nop
   16108:	00000000 	nop
   1610c:	00000000 	nop
   16110:	00000000 	nop
   16114:	00000000 	nop
   16118:	00000000 	nop
   1611c:	00000000 	nop
   16120:	00000000 	nop
   16124:	00000000 	nop
   16128:	00000000 	nop
   1612c:	00000000 	nop
   16130:	00000000 	nop
   16134:	00000000 	nop
   16138:	00000000 	nop
   1613c:	00000000 	nop
   16140:	00000000 	nop
   16144:	00000000 	nop
   16148:	00000000 	nop
   1614c:	00000000 	nop
   16150:	00000000 	nop
   16154:	00000000 	nop
   16158:	00000000 	nop
   1615c:	00000000 	nop
   16160:	00000000 	nop
   16164:	00000000 	nop
   16168:	00000000 	nop
   1616c:	00000000 	nop
   16170:	00000000 	nop
   16174:	00000000 	nop
   16178:	00000000 	nop
   1617c:	00000000 	nop
   16180:	00000000 	nop
   16184:	00000000 	nop
   16188:	00000000 	nop
   1618c:	00000000 	nop
   16190:	00000000 	nop
   16194:	00000000 	nop
   16198:	00000000 	nop
   1619c:	00000000 	nop
   161a0:	00000000 	nop
   161a4:	00000000 	nop
   161a8:	00000000 	nop
   161ac:	00000000 	nop
   161b0:	00000000 	nop
   161b4:	00000000 	nop
   161b8:	00000000 	nop
   161bc:	00000000 	nop
   161c0:	00000000 	nop
   161c4:	00000000 	nop
   161c8:	00000000 	nop
   161cc:	00000000 	nop
   161d0:	00000000 	nop
   161d4:	00000000 	nop
   161d8:	00000000 	nop
   161dc:	00000000 	nop
   161e0:	00000000 	nop
   161e4:	00000000 	nop
   161e8:	00000000 	nop
   161ec:	00000000 	nop
   161f0:	00000000 	nop
   161f4:	00000000 	nop
