
bin/parcv2-jalr:     file format elf32-littlemips


Disassembly of section .text:

00080000 <_test>:
   80000:	241d000e 	li	sp,14
   80004:	241f0000 	li	ra,0
   80008:	3c030008 	lui	a0,0x8
   8000c:	24630024 	addiu	a0,a0,36

00080010 <linkaddr_0>:
   80010:	00608009 	jalr	t9,a0
   80014:	00000000 	nop
   80018:	00000000 	nop
   8001c:	241d0016 	li	sp,22
   80020:	17a0003b 	bnez	sp,80110 <_fail>

00080024 <target_0>:
   80024:	3c020008 	lui	v1,0x8
   80028:	24420010 	addiu	v1,v1,16
   8002c:	24420004 	addiu	v1,v1,4
   80030:	14500037 	bne	v1,t9,80110 <_fail>

00080034 <test_1>:
   80034:	241d0022 	li	sp,34
   80038:	241f0000 	li	ra,0
   8003c:	3c030008 	lui	a0,0x8
   80040:	24630058 	addiu	a0,a0,88

00080044 <linkaddr_1>:
   80044:	00600009 	jalr	zero,a0
   80048:	00000000 	nop
   8004c:	00000000 	nop
   80050:	241d002a 	li	sp,42
   80054:	17a0002e 	bnez	sp,80110 <_fail>

00080058 <target_1>:
   80058:	141f002d 	bne	zero,ra,80110 <_fail>

0008005c <test_2>:
   8005c:	241d0034 	li	sp,52
   80060:	241f0000 	li	ra,0
   80064:	3c030008 	lui	a0,0x8
   80068:	24630080 	addiu	a0,a0,128

0008006c <linkaddr_2>:
   8006c:	0060f809 	jalr	a0
   80070:	00000000 	nop
   80074:	00000000 	nop
   80078:	241d003c 	li	sp,60
   8007c:	17a00024 	bnez	sp,80110 <_fail>

00080080 <target_2>:
   80080:	3c020008 	lui	v1,0x8
   80084:	2442006c 	addiu	v1,v1,108
   80088:	24420004 	addiu	v1,v1,4
   8008c:	145f0020 	bne	v1,ra,80110 <_fail>
   80090:	3c020008 	lui	v1,0x8
   80094:	244200a4 	addiu	v1,v1,164
   80098:	00401809 	jalr	a0,v1
   8009c:	241d0047 	li	sp,71
   800a0:	17a0001b 	bnez	sp,80110 <_fail>
   800a4:	3c020008 	lui	v1,0x8
   800a8:	244200bc 	addiu	v1,v1,188
   800ac:	00000000 	nop
   800b0:	00401809 	jalr	a0,v1
   800b4:	241d0048 	li	sp,72
   800b8:	17a00015 	bnez	sp,80110 <_fail>
   800bc:	3c020008 	lui	v1,0x8
   800c0:	244200d8 	addiu	v1,v1,216
   800c4:	00000000 	nop
   800c8:	00000000 	nop
   800cc:	00401809 	jalr	a0,v1
   800d0:	241d0049 	li	sp,73
   800d4:	17a0000e 	bnez	sp,80110 <_fail>
   800d8:	24020001 	li	v1,1
   800dc:	3c030008 	lui	a0,0x8
   800e0:	246300f8 	addiu	a0,a0,248
   800e4:	00608009 	jalr	t9,a0
   800e8:	24420001 	addiu	v1,v1,1
   800ec:	24420001 	addiu	v1,v1,1
   800f0:	24420001 	addiu	v1,v1,1
   800f4:	24420001 	addiu	v1,v1,1
   800f8:	24420001 	addiu	v1,v1,1
   800fc:	24420001 	addiu	v1,v1,1
   80100:	241d0058 	li	sp,88
   80104:	241e0003 	li	at,3
   80108:	145e0001 	bne	v1,at,80110 <_fail>

0008010c <_pass>:
   8010c:	241d0001 	li	sp,1

00080110 <_fail>:
   80110:	24020001 	li	v1,1
   80114:	409da800 	mtc0	sp,c0_staten
   80118:	1402ffff 	bne	zero,v1,80118 <_fail+0x8>
   8011c:	00000000 	nop
   80120:	00000000 	nop
   80124:	00000000 	nop
   80128:	00000000 	nop
   8012c:	00000000 	nop
   80130:	00000000 	nop
   80134:	00000000 	nop
   80138:	00000000 	nop
   8013c:	00000000 	nop
   80140:	00000000 	nop
   80144:	00000000 	nop
   80148:	00000000 	nop
   8014c:	00000000 	nop
   80150:	00000000 	nop
   80154:	00000000 	nop
   80158:	00000000 	nop
   8015c:	00000000 	nop
   80160:	00000000 	nop
   80164:	00000000 	nop
   80168:	00000000 	nop
   8016c:	00000000 	nop
   80170:	00000000 	nop
   80174:	00000000 	nop
   80178:	00000000 	nop
   8017c:	00000000 	nop
   80180:	00000000 	nop
   80184:	00000000 	nop
   80188:	00000000 	nop
   8018c:	00000000 	nop
   80190:	00000000 	nop
   80194:	00000000 	nop
   80198:	00000000 	nop
   8019c:	00000000 	nop
   801a0:	00000000 	nop
   801a4:	00000000 	nop
   801a8:	00000000 	nop
   801ac:	00000000 	nop
   801b0:	00000000 	nop
   801b4:	00000000 	nop
   801b8:	00000000 	nop
   801bc:	00000000 	nop
