
bin/parcv2-remu:     file format elf32-littlemips


Disassembly of section .text:

00080000 <_test>:
   80000:	24020000 	li	v1,0
   80004:	24030001 	li	a0,1
   80008:	9c432008 	remu	a1,v1,a0
   8000c:	241d0010 	li	sp,16
   80010:	14800116 	bnez	a1,8046c <_fail>
   80014:	24020001 	li	v1,1
   80018:	24030001 	li	a0,1
   8001c:	9c432008 	remu	a1,v1,a0
   80020:	241d0011 	li	sp,17
   80024:	14800111 	bnez	a1,8046c <_fail>
   80028:	24020222 	li	v1,546
   8002c:	2403002a 	li	a0,42
   80030:	9c432008 	remu	a1,v1,a0
   80034:	241d0015 	li	sp,21
   80038:	1480010c 	bnez	a1,8046c <_fail>
   8003c:	3402f8ec 	li	v1,0xf8ec
   80040:	240302cc 	li	a0,716
   80044:	9c432008 	remu	a1,v1,a0
   80048:	241d0016 	li	sp,22
   8004c:	14800107 	bnez	a1,8046c <_fail>
   80050:	3c020a01 	lui	v1,0xa01
   80054:	3442b044 	ori	v1,v1,0xb044
   80058:	24034eba 	li	a0,20154
   8005c:	9c432008 	remu	a1,v1,a0
   80060:	241d0017 	li	sp,23
   80064:	14800101 	bnez	a1,8046c <_fail>
   80068:	24020032 	li	v1,50
   8006c:	24030222 	li	a0,546
   80070:	9c432008 	remu	a1,v1,a0
   80074:	241d001b 	li	sp,27
   80078:	241e0032 	li	at,50
   8007c:	149e00fb 	bne	a1,at,8046c <_fail>
   80080:	24020222 	li	v1,546
   80084:	24030032 	li	a0,50
   80088:	9c432008 	remu	a1,v1,a0
   8008c:	241d001c 	li	sp,28
   80090:	241e002e 	li	at,46
   80094:	149e00f5 	bne	a1,at,8046c <_fail>
   80098:	3402f8ec 	li	v1,0xf8ec
   8009c:	24030319 	li	a0,793
   800a0:	9c432008 	remu	a1,v1,a0
   800a4:	241d001d 	li	sp,29
   800a8:	241e011c 	li	at,284
   800ac:	149e00ef 	bne	a1,at,8046c <_fail>
   800b0:	3c020a01 	lui	v1,0xa01
   800b4:	3442b044 	ori	v1,v1,0xb044
   800b8:	24034eb6 	li	a0,20150
   800bc:	9c432008 	remu	a1,v1,a0
   800c0:	241d001e 	li	sp,30
   800c4:	241e3372 	li	at,13170
   800c8:	149e00e8 	bne	a1,at,8046c <_fail>
   800cc:	24020000 	li	v1,0
   800d0:	2403ffff 	li	a0,-1
   800d4:	9c432008 	remu	a1,v1,a0
   800d8:	241d0022 	li	sp,34
   800dc:	148000e3 	bnez	a1,8046c <_fail>
   800e0:	2402ffff 	li	v1,-1
   800e4:	2403ffff 	li	a0,-1
   800e8:	9c432008 	remu	a1,v1,a0
   800ec:	241d0023 	li	sp,35
   800f0:	148000de 	bnez	a1,8046c <_fail>
   800f4:	3c020a01 	lui	v1,0xa01
   800f8:	3442b044 	ori	v1,v1,0xb044
   800fc:	2403b14a 	li	a0,-20150
   80100:	9c432008 	remu	a1,v1,a0
   80104:	241d0024 	li	sp,36
   80108:	3c1e0a01 	lui	at,0xa01
   8010c:	37deb044 	ori	at,at,0xb044
   80110:	149e00d6 	bne	a1,at,8046c <_fail>
   80114:	3c02dead 	lui	v1,0xdead
   80118:	3442beef 	ori	v1,v1,0xbeef
   8011c:	3403beef 	li	a0,0xbeef
   80120:	9c432008 	remu	a1,v1,a0
   80124:	241d0025 	li	sp,37
   80128:	241e227f 	li	at,8831
   8012c:	149e00cf 	bne	a1,at,8046c <_fail>
   80130:	3c02f5fe 	lui	v1,0xf5fe
   80134:	34424fbc 	ori	v1,v1,0x4fbc
   80138:	24034eb6 	li	a0,20150
   8013c:	9c432008 	remu	a1,v1,a0
   80140:	241d0026 	li	sp,38
   80144:	241e06f0 	li	at,1776
   80148:	149e00c8 	bne	a1,at,8046c <_fail>
   8014c:	3c02f5fe 	lui	v1,0xf5fe
   80150:	34424fbc 	ori	v1,v1,0x4fbc
   80154:	2403b14a 	li	a0,-20150
   80158:	9c432008 	remu	a1,v1,a0
   8015c:	241d0027 	li	sp,39
   80160:	3c1ef5fe 	lui	at,0xf5fe
   80164:	37de4fbc 	ori	at,at,0x4fbc
   80168:	149e00c0 	bne	a1,at,8046c <_fail>
   8016c:	2402008f 	li	v1,143
   80170:	2403000a 	li	a0,10
   80174:	9c431008 	remu	v1,v1,a0
   80178:	241d002d 	li	sp,45
   8017c:	241e0003 	li	at,3
   80180:	145e00ba 	bne	v1,at,8046c <_fail>
   80184:	2402009a 	li	v1,154
   80188:	2403000a 	li	a0,10
   8018c:	9c431808 	remu	a0,v1,a0
   80190:	241d002e 	li	sp,46
   80194:	241e0004 	li	at,4
   80198:	147e00b4 	bne	a0,at,8046c <_fail>
   8019c:	2402000f 	li	v1,15
   801a0:	9c421808 	remu	a0,v1,v1
   801a4:	241d002f 	li	sp,47
   801a8:	146000b0 	bnez	a0,8046c <_fail>
   801ac:	24020010 	li	v1,16
   801b0:	9c421008 	remu	v1,v1,v1
   801b4:	241d0030 	li	sp,48
   801b8:	144000ac 	bnez	v1,8046c <_fail>
   801bc:	2402008f 	li	v1,143
   801c0:	2403000a 	li	a0,10
   801c4:	9c432008 	remu	a1,v1,a0
   801c8:	24870000 	addiu	a4,a1,0
   801cc:	241d0036 	li	sp,54
   801d0:	241e0003 	li	at,3
   801d4:	14fe00a5 	bne	a4,at,8046c <_fail>
   801d8:	2402009a 	li	v1,154
   801dc:	2403000a 	li	a0,10
   801e0:	9c432008 	remu	a1,v1,a0
   801e4:	00000000 	nop
   801e8:	24870000 	addiu	a4,a1,0
   801ec:	241d0037 	li	sp,55
   801f0:	241e0004 	li	at,4
   801f4:	14fe009d 	bne	a4,at,8046c <_fail>
   801f8:	240200a5 	li	v1,165
   801fc:	2403000a 	li	a0,10
   80200:	9c432008 	remu	a1,v1,a0
   80204:	00000000 	nop
   80208:	00000000 	nop
   8020c:	24870000 	addiu	a4,a1,0
   80210:	241d0038 	li	sp,56
   80214:	241e0005 	li	at,5
   80218:	14fe0094 	bne	a4,at,8046c <_fail>
   8021c:	240200b0 	li	v1,176
   80220:	2403000a 	li	a0,10
   80224:	9c432008 	remu	a1,v1,a0
   80228:	00000000 	nop
   8022c:	00000000 	nop
   80230:	00000000 	nop
   80234:	24870000 	addiu	a4,a1,0
   80238:	241d0039 	li	sp,57
   8023c:	241e0006 	li	at,6
   80240:	14fe008a 	bne	a4,at,8046c <_fail>
   80244:	240200bb 	li	v1,187
   80248:	2403000a 	li	a0,10
   8024c:	9c432008 	remu	a1,v1,a0
   80250:	00000000 	nop
   80254:	00000000 	nop
   80258:	00000000 	nop
   8025c:	00000000 	nop
   80260:	24870000 	addiu	a4,a1,0
   80264:	241d003a 	li	sp,58
   80268:	241e0007 	li	at,7
   8026c:	14fe007f 	bne	a4,at,8046c <_fail>
   80270:	2402008f 	li	v1,143
   80274:	2403000a 	li	a0,10
   80278:	9c432008 	remu	a1,v1,a0
   8027c:	241d003c 	li	sp,60
   80280:	241e0003 	li	at,3
   80284:	149e0079 	bne	a1,at,8046c <_fail>
   80288:	2402009a 	li	v1,154
   8028c:	2403000a 	li	a0,10
   80290:	00000000 	nop
   80294:	9c432008 	remu	a1,v1,a0
   80298:	241d003d 	li	sp,61
   8029c:	241e0004 	li	at,4
   802a0:	149e0072 	bne	a1,at,8046c <_fail>
   802a4:	240200a5 	li	v1,165
   802a8:	2403000a 	li	a0,10
   802ac:	00000000 	nop
   802b0:	00000000 	nop
   802b4:	9c432008 	remu	a1,v1,a0
   802b8:	241d003e 	li	sp,62
   802bc:	241e0005 	li	at,5
   802c0:	149e006a 	bne	a1,at,8046c <_fail>
   802c4:	240200b0 	li	v1,176
   802c8:	2403000a 	li	a0,10
   802cc:	00000000 	nop
   802d0:	00000000 	nop
   802d4:	00000000 	nop
   802d8:	9c432008 	remu	a1,v1,a0
   802dc:	241d003f 	li	sp,63
   802e0:	241e0006 	li	at,6
   802e4:	149e0061 	bne	a1,at,8046c <_fail>
   802e8:	240200bb 	li	v1,187
   802ec:	2403000a 	li	a0,10
   802f0:	00000000 	nop
   802f4:	00000000 	nop
   802f8:	00000000 	nop
   802fc:	00000000 	nop
   80300:	9c432008 	remu	a1,v1,a0
   80304:	241d0040 	li	sp,64
   80308:	241e0007 	li	at,7
   8030c:	149e0057 	bne	a1,at,8046c <_fail>
   80310:	2402008f 	li	v1,143
   80314:	00000000 	nop
   80318:	2403000a 	li	a0,10
   8031c:	9c432008 	remu	a1,v1,a0
   80320:	241d0042 	li	sp,66
   80324:	241e0003 	li	at,3
   80328:	149e0050 	bne	a1,at,8046c <_fail>
   8032c:	2402009a 	li	v1,154
   80330:	00000000 	nop
   80334:	2403000a 	li	a0,10
   80338:	00000000 	nop
   8033c:	9c432008 	remu	a1,v1,a0
   80340:	241d0043 	li	sp,67
   80344:	241e0004 	li	at,4
   80348:	149e0048 	bne	a1,at,8046c <_fail>
   8034c:	240200a5 	li	v1,165
   80350:	00000000 	nop
   80354:	00000000 	nop
   80358:	2403000a 	li	a0,10
   8035c:	9c432008 	remu	a1,v1,a0
   80360:	241d0044 	li	sp,68
   80364:	241e0005 	li	at,5
   80368:	149e0040 	bne	a1,at,8046c <_fail>
   8036c:	2403000a 	li	a0,10
   80370:	2402008f 	li	v1,143
   80374:	9c432008 	remu	a1,v1,a0
   80378:	241d0046 	li	sp,70
   8037c:	241e0003 	li	at,3
   80380:	149e003a 	bne	a1,at,8046c <_fail>
   80384:	2403000a 	li	a0,10
   80388:	2402009a 	li	v1,154
   8038c:	00000000 	nop
   80390:	9c432008 	remu	a1,v1,a0
   80394:	241d0047 	li	sp,71
   80398:	241e0004 	li	at,4
   8039c:	149e0033 	bne	a1,at,8046c <_fail>
   803a0:	2403000a 	li	a0,10
   803a4:	240200a5 	li	v1,165
   803a8:	00000000 	nop
   803ac:	00000000 	nop
   803b0:	9c432008 	remu	a1,v1,a0
   803b4:	241d0048 	li	sp,72
   803b8:	241e0005 	li	at,5
   803bc:	149e002b 	bne	a1,at,8046c <_fail>
   803c0:	2403000a 	li	a0,10
   803c4:	240200b0 	li	v1,176
   803c8:	00000000 	nop
   803cc:	00000000 	nop
   803d0:	00000000 	nop
   803d4:	9c432008 	remu	a1,v1,a0
   803d8:	241d0049 	li	sp,73
   803dc:	241e0006 	li	at,6
   803e0:	149e0022 	bne	a1,at,8046c <_fail>
   803e4:	2403000a 	li	a0,10
   803e8:	240200bb 	li	v1,187
   803ec:	00000000 	nop
   803f0:	00000000 	nop
   803f4:	00000000 	nop
   803f8:	00000000 	nop
   803fc:	9c432008 	remu	a1,v1,a0
   80400:	241d004a 	li	sp,74
   80404:	241e0007 	li	at,7
   80408:	149e0018 	bne	a1,at,8046c <_fail>
   8040c:	2403000a 	li	a0,10
   80410:	00000000 	nop
   80414:	2402008f 	li	v1,143
   80418:	9c432008 	remu	a1,v1,a0
   8041c:	241d004c 	li	sp,76
   80420:	241e0003 	li	at,3
   80424:	149e0011 	bne	a1,at,8046c <_fail>
   80428:	2403000a 	li	a0,10
   8042c:	00000000 	nop
   80430:	2402009a 	li	v1,154
   80434:	00000000 	nop
   80438:	9c432008 	remu	a1,v1,a0
   8043c:	241d004d 	li	sp,77
   80440:	241e0004 	li	at,4
   80444:	149e0009 	bne	a1,at,8046c <_fail>
   80448:	2403000a 	li	a0,10
   8044c:	00000000 	nop
   80450:	00000000 	nop
   80454:	240200a5 	li	v1,165
   80458:	9c432008 	remu	a1,v1,a0
   8045c:	241d004e 	li	sp,78
   80460:	241e0005 	li	at,5
   80464:	149e0001 	bne	a1,at,8046c <_fail>

00080468 <_pass>:
   80468:	241d0001 	li	sp,1

0008046c <_fail>:
   8046c:	24020001 	li	v1,1
   80470:	409da800 	mtc0	sp,c0_staten
   80474:	1402ffff 	bne	zero,v1,80474 <_fail+0x8>
   80478:	00000000 	nop
   8047c:	00000000 	nop
   80480:	00000000 	nop
   80484:	00000000 	nop
   80488:	00000000 	nop
   8048c:	00000000 	nop
   80490:	00000000 	nop
   80494:	00000000 	nop
   80498:	00000000 	nop
   8049c:	00000000 	nop
   804a0:	00000000 	nop
   804a4:	00000000 	nop
   804a8:	00000000 	nop
   804ac:	00000000 	nop
   804b0:	00000000 	nop
   804b4:	00000000 	nop
   804b8:	00000000 	nop
   804bc:	00000000 	nop
   804c0:	00000000 	nop
   804c4:	00000000 	nop
   804c8:	00000000 	nop
   804cc:	00000000 	nop
   804d0:	00000000 	nop
   804d4:	00000000 	nop
   804d8:	00000000 	nop
   804dc:	00000000 	nop
   804e0:	00000000 	nop
   804e4:	00000000 	nop
   804e8:	00000000 	nop
   804ec:	00000000 	nop
   804f0:	00000000 	nop
   804f4:	00000000 	nop
   804f8:	00000000 	nop
   804fc:	00000000 	nop
   80500:	00000000 	nop
   80504:	00000000 	nop
   80508:	00000000 	nop
   8050c:	00000000 	nop
   80510:	00000000 	nop
   80514:	00000000 	nop
   80518:	00000000 	nop
   8051c:	00000000 	nop
