
bin/parcv1-addu:     file format elf32-littlemips


Disassembly of section .text:

00080000 <_test>:
   80000:	24020000 	li	v1,0
   80004:	24030000 	li	a0,0
   80008:	00432021 	addu	a1,v1,a0
   8000c:	241d000d 	li	sp,13
   80010:	148000dc 	bnez	a1,80384 <_fail>
   80014:	24020001 	li	v1,1
   80018:	24030001 	li	a0,1
   8001c:	00432021 	addu	a1,v1,a0
   80020:	241d000e 	li	sp,14
   80024:	241e0002 	li	at,2
   80028:	149e00d6 	bne	a1,at,80384 <_fail>
   8002c:	24020003 	li	v1,3
   80030:	24030007 	li	a0,7
   80034:	00432021 	addu	a1,v1,a0
   80038:	241d000f 	li	sp,15
   8003c:	241e000a 	li	at,10
   80040:	149e00d0 	bne	a1,at,80384 <_fail>
   80044:	24020000 	li	v1,0
   80048:	24038000 	li	a0,-32768
   8004c:	00432021 	addu	a1,v1,a0
   80050:	241d0011 	li	sp,17
   80054:	241e8000 	li	at,-32768
   80058:	149e00ca 	bne	a1,at,80384 <_fail>
   8005c:	3c028000 	lui	v1,0x8000
   80060:	24030000 	li	a0,0
   80064:	00432021 	addu	a1,v1,a0
   80068:	241d0012 	li	sp,18
   8006c:	3c1e8000 	lui	at,0x8000
   80070:	149e00c4 	bne	a1,at,80384 <_fail>
   80074:	3c028000 	lui	v1,0x8000
   80078:	24038000 	li	a0,-32768
   8007c:	00432021 	addu	a1,v1,a0
   80080:	241d0013 	li	sp,19
   80084:	3c1e7fff 	lui	at,0x7fff
   80088:	37de8000 	ori	at,at,0x8000
   8008c:	149e00bd 	bne	a1,at,80384 <_fail>
   80090:	24020000 	li	v1,0
   80094:	24037fff 	li	a0,32767
   80098:	00432021 	addu	a1,v1,a0
   8009c:	241d0015 	li	sp,21
   800a0:	241e7fff 	li	at,32767
   800a4:	149e00b7 	bne	a1,at,80384 <_fail>
   800a8:	3c027fff 	lui	v1,0x7fff
   800ac:	3442ffff 	ori	v1,v1,0xffff
   800b0:	24030000 	li	a0,0
   800b4:	00432021 	addu	a1,v1,a0
   800b8:	241d0016 	li	sp,22
   800bc:	3c1e7fff 	lui	at,0x7fff
   800c0:	37deffff 	ori	at,at,0xffff
   800c4:	149e00af 	bne	a1,at,80384 <_fail>
   800c8:	3c027fff 	lui	v1,0x7fff
   800cc:	3442ffff 	ori	v1,v1,0xffff
   800d0:	24037fff 	li	a0,32767
   800d4:	00432021 	addu	a1,v1,a0
   800d8:	241d0017 	li	sp,23
   800dc:	3c1e8000 	lui	at,0x8000
   800e0:	37de7ffe 	ori	at,at,0x7ffe
   800e4:	149e00a7 	bne	a1,at,80384 <_fail>
   800e8:	3c028000 	lui	v1,0x8000
   800ec:	24037fff 	li	a0,32767
   800f0:	00432021 	addu	a1,v1,a0
   800f4:	241d0019 	li	sp,25
   800f8:	3c1e8000 	lui	at,0x8000
   800fc:	37de7fff 	ori	at,at,0x7fff
   80100:	149e00a0 	bne	a1,at,80384 <_fail>
   80104:	3c027fff 	lui	v1,0x7fff
   80108:	3442ffff 	ori	v1,v1,0xffff
   8010c:	24038000 	li	a0,-32768
   80110:	00432021 	addu	a1,v1,a0
   80114:	241d001a 	li	sp,26
   80118:	3c1e7fff 	lui	at,0x7fff
   8011c:	37de7fff 	ori	at,at,0x7fff
   80120:	149e0098 	bne	a1,at,80384 <_fail>
   80124:	24020000 	li	v1,0
   80128:	2403ffff 	li	a0,-1
   8012c:	00432021 	addu	a1,v1,a0
   80130:	241d001c 	li	sp,28
   80134:	241effff 	li	at,-1
   80138:	149e0092 	bne	a1,at,80384 <_fail>
   8013c:	2402ffff 	li	v1,-1
   80140:	24030001 	li	a0,1
   80144:	00432021 	addu	a1,v1,a0
   80148:	241d001d 	li	sp,29
   8014c:	1480008d 	bnez	a1,80384 <_fail>
   80150:	2402ffff 	li	v1,-1
   80154:	2403ffff 	li	a0,-1
   80158:	00432021 	addu	a1,v1,a0
   8015c:	241d001e 	li	sp,30
   80160:	241efffe 	li	at,-2
   80164:	149e0087 	bne	a1,at,80384 <_fail>
   80168:	2402000d 	li	v1,13
   8016c:	2403000b 	li	a0,11
   80170:	00431021 	addu	v1,v1,a0
   80174:	241d0024 	li	sp,36
   80178:	241e0018 	li	at,24
   8017c:	145e0081 	bne	v1,at,80384 <_fail>
   80180:	2402000e 	li	v1,14
   80184:	2403000b 	li	a0,11
   80188:	00431821 	addu	a0,v1,a0
   8018c:	241d0025 	li	sp,37
   80190:	241e0019 	li	at,25
   80194:	147e007b 	bne	a0,at,80384 <_fail>
   80198:	2402000f 	li	v1,15
   8019c:	00421821 	addu	a0,v1,v1
   801a0:	241d0026 	li	sp,38
   801a4:	241e001e 	li	at,30
   801a8:	147e0076 	bne	a0,at,80384 <_fail>
   801ac:	24020010 	li	v1,16
   801b0:	00421021 	addu	v1,v1,v1
   801b4:	241d0027 	li	sp,39
   801b8:	241e0020 	li	at,32
   801bc:	145e0071 	bne	v1,at,80384 <_fail>
   801c0:	2402000d 	li	v1,13
   801c4:	2403000b 	li	a0,11
   801c8:	00432021 	addu	a1,v1,a0
   801cc:	24870000 	addiu	a4,a1,0
   801d0:	241d002d 	li	sp,45
   801d4:	241e0018 	li	at,24
   801d8:	14fe006a 	bne	a4,at,80384 <_fail>
   801dc:	2402000e 	li	v1,14
   801e0:	2403000b 	li	a0,11
   801e4:	00432021 	addu	a1,v1,a0
   801e8:	00000000 	nop
   801ec:	24870000 	addiu	a4,a1,0
   801f0:	241d002e 	li	sp,46
   801f4:	241e0019 	li	at,25
   801f8:	14fe0062 	bne	a4,at,80384 <_fail>
   801fc:	2402000f 	li	v1,15
   80200:	2403000b 	li	a0,11
   80204:	00432021 	addu	a1,v1,a0
   80208:	00000000 	nop
   8020c:	00000000 	nop
   80210:	24870000 	addiu	a4,a1,0
   80214:	241d002f 	li	sp,47
   80218:	241e001a 	li	at,26
   8021c:	14fe0059 	bne	a4,at,80384 <_fail>
   80220:	2402000d 	li	v1,13
   80224:	2403000b 	li	a0,11
   80228:	00432021 	addu	a1,v1,a0
   8022c:	241d0031 	li	sp,49
   80230:	241e0018 	li	at,24
   80234:	149e0053 	bne	a1,at,80384 <_fail>
   80238:	2402000e 	li	v1,14
   8023c:	2403000b 	li	a0,11
   80240:	00000000 	nop
   80244:	00432021 	addu	a1,v1,a0
   80248:	241d0032 	li	sp,50
   8024c:	241e0019 	li	at,25
   80250:	149e004c 	bne	a1,at,80384 <_fail>
   80254:	2402000f 	li	v1,15
   80258:	2403000b 	li	a0,11
   8025c:	00000000 	nop
   80260:	00000000 	nop
   80264:	00432021 	addu	a1,v1,a0
   80268:	241d0033 	li	sp,51
   8026c:	241e001a 	li	at,26
   80270:	149e0044 	bne	a1,at,80384 <_fail>
   80274:	2402000d 	li	v1,13
   80278:	00000000 	nop
   8027c:	2403000b 	li	a0,11
   80280:	00432021 	addu	a1,v1,a0
   80284:	241d0034 	li	sp,52
   80288:	241e0018 	li	at,24
   8028c:	149e003d 	bne	a1,at,80384 <_fail>
   80290:	2402000e 	li	v1,14
   80294:	00000000 	nop
   80298:	2403000b 	li	a0,11
   8029c:	00000000 	nop
   802a0:	00432021 	addu	a1,v1,a0
   802a4:	241d0035 	li	sp,53
   802a8:	241e0019 	li	at,25
   802ac:	149e0035 	bne	a1,at,80384 <_fail>
   802b0:	2402000f 	li	v1,15
   802b4:	00000000 	nop
   802b8:	00000000 	nop
   802bc:	2403000b 	li	a0,11
   802c0:	00432021 	addu	a1,v1,a0
   802c4:	241d0036 	li	sp,54
   802c8:	241e001a 	li	at,26
   802cc:	149e002d 	bne	a1,at,80384 <_fail>
   802d0:	2403000b 	li	a0,11
   802d4:	2402000d 	li	v1,13
   802d8:	00432021 	addu	a1,v1,a0
   802dc:	241d0038 	li	sp,56
   802e0:	241e0018 	li	at,24
   802e4:	149e0027 	bne	a1,at,80384 <_fail>
   802e8:	2403000b 	li	a0,11
   802ec:	2402000e 	li	v1,14
   802f0:	00000000 	nop
   802f4:	00432021 	addu	a1,v1,a0
   802f8:	241d0039 	li	sp,57
   802fc:	241e0019 	li	at,25
   80300:	149e0020 	bne	a1,at,80384 <_fail>
   80304:	2403000b 	li	a0,11
   80308:	2402000f 	li	v1,15
   8030c:	00000000 	nop
   80310:	00000000 	nop
   80314:	00432021 	addu	a1,v1,a0
   80318:	241d003a 	li	sp,58
   8031c:	241e001a 	li	at,26
   80320:	149e0018 	bne	a1,at,80384 <_fail>
   80324:	2403000b 	li	a0,11
   80328:	00000000 	nop
   8032c:	2402000d 	li	v1,13
   80330:	00432021 	addu	a1,v1,a0
   80334:	241d003b 	li	sp,59
   80338:	241e0018 	li	at,24
   8033c:	149e0011 	bne	a1,at,80384 <_fail>
   80340:	2403000b 	li	a0,11
   80344:	00000000 	nop
   80348:	2402000e 	li	v1,14
   8034c:	00000000 	nop
   80350:	00432021 	addu	a1,v1,a0
   80354:	241d003c 	li	sp,60
   80358:	241e0019 	li	at,25
   8035c:	149e0009 	bne	a1,at,80384 <_fail>
   80360:	2403000b 	li	a0,11
   80364:	00000000 	nop
   80368:	00000000 	nop
   8036c:	2402000f 	li	v1,15
   80370:	00432021 	addu	a1,v1,a0
   80374:	241d003d 	li	sp,61
   80378:	241e001a 	li	at,26
   8037c:	149e0001 	bne	a1,at,80384 <_fail>

00080380 <_pass>:
   80380:	241d0001 	li	sp,1

00080384 <_fail>:
   80384:	24020001 	li	v1,1
   80388:	409da800 	mtc0	sp,c0_staten
   8038c:	1402ffff 	bne	zero,v1,8038c <_fail+0x8>
   80390:	00000000 	nop
   80394:	00000000 	nop
   80398:	00000000 	nop
   8039c:	00000000 	nop
   803a0:	00000000 	nop
   803a4:	00000000 	nop
   803a8:	00000000 	nop
   803ac:	00000000 	nop
   803b0:	00000000 	nop
   803b4:	00000000 	nop
   803b8:	00000000 	nop
   803bc:	00000000 	nop
   803c0:	00000000 	nop
   803c4:	00000000 	nop
   803c8:	00000000 	nop
   803cc:	00000000 	nop
   803d0:	00000000 	nop
   803d4:	00000000 	nop
   803d8:	00000000 	nop
   803dc:	00000000 	nop
   803e0:	00000000 	nop
   803e4:	00000000 	nop
   803e8:	00000000 	nop
   803ec:	00000000 	nop
   803f0:	00000000 	nop
   803f4:	00000000 	nop
   803f8:	00000000 	nop
   803fc:	00000000 	nop
   80400:	00000000 	nop
   80404:	00000000 	nop
   80408:	00000000 	nop
   8040c:	00000000 	nop
   80410:	00000000 	nop
   80414:	00000000 	nop
   80418:	00000000 	nop
   8041c:	00000000 	nop
   80420:	00000000 	nop
   80424:	00000000 	nop
   80428:	00000000 	nop
   8042c:	00000000 	nop
