
bin/parcv1-bne:     file format elf32-littlemips


Disassembly of section .text:

00080000 <_test>:
   80000:	24020000 	li	v1,0
   80004:	24030001 	li	a0,1
   80008:	14430004 	bne	v1,a0,8001c <_test+0x1c>
   8000c:	241d000d 	li	sp,13
   80010:	17a000ab 	bnez	sp,802c0 <_fail>
   80014:	24040001 	li	a1,1
   80018:	14040003 	bne	zero,a1,80028 <_test+0x28>
   8001c:	1443fffd 	bne	v1,a0,80014 <_test+0x14>
   80020:	241d000d 	li	sp,13
   80024:	17a000a6 	bnez	sp,802c0 <_fail>
   80028:	24020001 	li	v1,1
   8002c:	24030000 	li	a0,0
   80030:	14430004 	bne	v1,a0,80044 <_test+0x44>
   80034:	241d000e 	li	sp,14
   80038:	17a000a1 	bnez	sp,802c0 <_fail>
   8003c:	24040001 	li	a1,1
   80040:	14040003 	bne	zero,a1,80050 <_test+0x50>
   80044:	1443fffd 	bne	v1,a0,8003c <_test+0x3c>
   80048:	241d000e 	li	sp,14
   8004c:	17a0009c 	bnez	sp,802c0 <_fail>
   80050:	2402ffff 	li	v1,-1
   80054:	24030001 	li	a0,1
   80058:	14430004 	bne	v1,a0,8006c <_test+0x6c>
   8005c:	241d000f 	li	sp,15
   80060:	17a00097 	bnez	sp,802c0 <_fail>
   80064:	24040001 	li	a1,1
   80068:	14040003 	bne	zero,a1,80078 <_test+0x78>
   8006c:	1443fffd 	bne	v1,a0,80064 <_test+0x64>
   80070:	241d000f 	li	sp,15
   80074:	17a00092 	bnez	sp,802c0 <_fail>
   80078:	24020001 	li	v1,1
   8007c:	2403ffff 	li	a0,-1
   80080:	14430004 	bne	v1,a0,80094 <_test+0x94>
   80084:	241d0010 	li	sp,16
   80088:	17a0008d 	bnez	sp,802c0 <_fail>
   8008c:	24040001 	li	a1,1
   80090:	14040003 	bne	zero,a1,800a0 <_test+0xa0>
   80094:	1443fffd 	bne	v1,a0,8008c <_test+0x8c>
   80098:	241d0010 	li	sp,16
   8009c:	17a00088 	bnez	sp,802c0 <_fail>
   800a0:	24020000 	li	v1,0
   800a4:	24030000 	li	a0,0
   800a8:	14430002 	bne	v1,a0,800b4 <_test+0xb4>
   800ac:	24040001 	li	a1,1
   800b0:	14040002 	bne	zero,a1,800bc <_test+0xbc>
   800b4:	241d0012 	li	sp,18
   800b8:	17a00081 	bnez	sp,802c0 <_fail>
   800bc:	1443fffd 	bne	v1,a0,800b4 <_test+0xb4>
   800c0:	24020001 	li	v1,1
   800c4:	24030001 	li	a0,1
   800c8:	14430002 	bne	v1,a0,800d4 <_test+0xd4>
   800cc:	24040001 	li	a1,1
   800d0:	14040002 	bne	zero,a1,800dc <_test+0xdc>
   800d4:	241d0013 	li	sp,19
   800d8:	17a00079 	bnez	sp,802c0 <_fail>
   800dc:	1443fffd 	bne	v1,a0,800d4 <_test+0xd4>
   800e0:	2402ffff 	li	v1,-1
   800e4:	2403ffff 	li	a0,-1
   800e8:	14430002 	bne	v1,a0,800f4 <_test+0xf4>
   800ec:	24040001 	li	a1,1
   800f0:	14040002 	bne	zero,a1,800fc <_test+0xfc>
   800f4:	241d0014 	li	sp,20
   800f8:	17a00071 	bnez	sp,802c0 <_fail>
   800fc:	1443fffd 	bne	v1,a0,800f4 <_test+0xf4>
   80100:	24020000 	li	v1,0
   80104:	24030000 	li	a0,0
   80108:	14430002 	bne	v1,a0,80114 <_test+0x114>
   8010c:	24040001 	li	a1,1
   80110:	14040002 	bne	zero,a1,8011c <_test+0x11c>
   80114:	241d001a 	li	sp,26
   80118:	17a00069 	bnez	sp,802c0 <_fail>
   8011c:	24020000 	li	v1,0
   80120:	24030000 	li	a0,0
   80124:	00000000 	nop
   80128:	14430002 	bne	v1,a0,80134 <_test+0x134>
   8012c:	24040001 	li	a1,1
   80130:	14040002 	bne	zero,a1,8013c <_test+0x13c>
   80134:	241d001b 	li	sp,27
   80138:	17a00061 	bnez	sp,802c0 <_fail>
   8013c:	24020000 	li	v1,0
   80140:	24030000 	li	a0,0
   80144:	00000000 	nop
   80148:	00000000 	nop
   8014c:	14430002 	bne	v1,a0,80158 <_test+0x158>
   80150:	24040001 	li	a1,1
   80154:	14040002 	bne	zero,a1,80160 <_test+0x160>
   80158:	241d001c 	li	sp,28
   8015c:	17a00058 	bnez	sp,802c0 <_fail>
   80160:	24020000 	li	v1,0
   80164:	00000000 	nop
   80168:	24030000 	li	a0,0
   8016c:	14430002 	bne	v1,a0,80178 <_test+0x178>
   80170:	24040001 	li	a1,1
   80174:	14040002 	bne	zero,a1,80180 <_test+0x180>
   80178:	241d001d 	li	sp,29
   8017c:	17a00050 	bnez	sp,802c0 <_fail>
   80180:	24020000 	li	v1,0
   80184:	00000000 	nop
   80188:	24030000 	li	a0,0
   8018c:	00000000 	nop
   80190:	14430002 	bne	v1,a0,8019c <_test+0x19c>
   80194:	24040001 	li	a1,1
   80198:	14040002 	bne	zero,a1,801a4 <_test+0x1a4>
   8019c:	241d001e 	li	sp,30
   801a0:	17a00047 	bnez	sp,802c0 <_fail>
   801a4:	24020000 	li	v1,0
   801a8:	00000000 	nop
   801ac:	00000000 	nop
   801b0:	24030000 	li	a0,0
   801b4:	14430002 	bne	v1,a0,801c0 <_test+0x1c0>
   801b8:	24040001 	li	a1,1
   801bc:	14040002 	bne	zero,a1,801c8 <_test+0x1c8>
   801c0:	241d001f 	li	sp,31
   801c4:	17a0003e 	bnez	sp,802c0 <_fail>
   801c8:	24030000 	li	a0,0
   801cc:	24020000 	li	v1,0
   801d0:	14430002 	bne	v1,a0,801dc <_test+0x1dc>
   801d4:	24040001 	li	a1,1
   801d8:	14040002 	bne	zero,a1,801e4 <_test+0x1e4>
   801dc:	241d0021 	li	sp,33
   801e0:	17a00037 	bnez	sp,802c0 <_fail>
   801e4:	24030000 	li	a0,0
   801e8:	24020000 	li	v1,0
   801ec:	00000000 	nop
   801f0:	14430002 	bne	v1,a0,801fc <_test+0x1fc>
   801f4:	24040001 	li	a1,1
   801f8:	14040002 	bne	zero,a1,80204 <_test+0x204>
   801fc:	241d0022 	li	sp,34
   80200:	17a0002f 	bnez	sp,802c0 <_fail>
   80204:	24030000 	li	a0,0
   80208:	24020000 	li	v1,0
   8020c:	00000000 	nop
   80210:	00000000 	nop
   80214:	14430002 	bne	v1,a0,80220 <_test+0x220>
   80218:	24040001 	li	a1,1
   8021c:	14040002 	bne	zero,a1,80228 <_test+0x228>
   80220:	241d0023 	li	sp,35
   80224:	17a00026 	bnez	sp,802c0 <_fail>
   80228:	24030000 	li	a0,0
   8022c:	00000000 	nop
   80230:	24020000 	li	v1,0
   80234:	14430002 	bne	v1,a0,80240 <_test+0x240>
   80238:	24040001 	li	a1,1
   8023c:	14040002 	bne	zero,a1,80248 <_test+0x248>
   80240:	241d0024 	li	sp,36
   80244:	17a0001e 	bnez	sp,802c0 <_fail>
   80248:	24030000 	li	a0,0
   8024c:	00000000 	nop
   80250:	24020000 	li	v1,0
   80254:	00000000 	nop
   80258:	14430002 	bne	v1,a0,80264 <_test+0x264>
   8025c:	24040001 	li	a1,1
   80260:	14040002 	bne	zero,a1,8026c <_test+0x26c>
   80264:	241d0025 	li	sp,37
   80268:	17a00015 	bnez	sp,802c0 <_fail>
   8026c:	24030000 	li	a0,0
   80270:	00000000 	nop
   80274:	00000000 	nop
   80278:	24020000 	li	v1,0
   8027c:	14430002 	bne	v1,a0,80288 <_test+0x288>
   80280:	24040001 	li	a1,1
   80284:	14040002 	bne	zero,a1,80290 <_test+0x290>
   80288:	241d0026 	li	sp,38
   8028c:	17a0000c 	bnez	sp,802c0 <_fail>
   80290:	24020001 	li	v1,1
   80294:	14400004 	bnez	v1,802a8 <_test+0x2a8>
   80298:	24420001 	addiu	v1,v1,1
   8029c:	24420001 	addiu	v1,v1,1
   802a0:	24420001 	addiu	v1,v1,1
   802a4:	24420001 	addiu	v1,v1,1
   802a8:	24420001 	addiu	v1,v1,1
   802ac:	24420001 	addiu	v1,v1,1
   802b0:	241d0032 	li	sp,50
   802b4:	241e0003 	li	at,3
   802b8:	145e0001 	bne	v1,at,802c0 <_fail>

000802bc <_pass>:
   802bc:	241d0001 	li	sp,1

000802c0 <_fail>:
   802c0:	24020001 	li	v1,1
   802c4:	409da800 	mtc0	sp,c0_staten
   802c8:	1402ffff 	bne	zero,v1,802c8 <_fail+0x8>
   802cc:	00000000 	nop
   802d0:	00000000 	nop
   802d4:	00000000 	nop
   802d8:	00000000 	nop
   802dc:	00000000 	nop
   802e0:	00000000 	nop
   802e4:	00000000 	nop
   802e8:	00000000 	nop
   802ec:	00000000 	nop
   802f0:	00000000 	nop
   802f4:	00000000 	nop
   802f8:	00000000 	nop
   802fc:	00000000 	nop
   80300:	00000000 	nop
   80304:	00000000 	nop
   80308:	00000000 	nop
   8030c:	00000000 	nop
   80310:	00000000 	nop
   80314:	00000000 	nop
   80318:	00000000 	nop
   8031c:	00000000 	nop
   80320:	00000000 	nop
   80324:	00000000 	nop
   80328:	00000000 	nop
   8032c:	00000000 	nop
   80330:	00000000 	nop
   80334:	00000000 	nop
   80338:	00000000 	nop
   8033c:	00000000 	nop
   80340:	00000000 	nop
   80344:	00000000 	nop
   80348:	00000000 	nop
   8034c:	00000000 	nop
   80350:	00000000 	nop
   80354:	00000000 	nop
   80358:	00000000 	nop
   8035c:	00000000 	nop
   80360:	00000000 	nop
   80364:	00000000 	nop
   80368:	00000000 	nop
   8036c:	00000000 	nop
