
bin/parcv1-jr:     file format elf32-littlemips


Disassembly of section .text:

00080000 <_test>:
   80000:	241d000e 	li	sp,14
   80004:	241f0000 	li	ra,0
   80008:	3c030008 	lui	a0,0x8
   8000c:	24630020 	addiu	a0,a0,32

00080010 <linkaddr>:
   80010:	00600008 	jr	a0
   80014:	00000000 	nop
   80018:	00000000 	nop
   8001c:	08020028 	j	800a0 <_fail>

00080020 <target>:
   80020:	3c020008 	lui	v1,0x8
   80024:	24420034 	addiu	v1,v1,52
   80028:	00400008 	jr	v1
   8002c:	241d001f 	li	sp,31
   80030:	17a0001b 	bnez	sp,800a0 <_fail>
   80034:	3c020008 	lui	v1,0x8
   80038:	2442004c 	addiu	v1,v1,76
   8003c:	00000000 	nop
   80040:	00400008 	jr	v1
   80044:	241d0020 	li	sp,32
   80048:	17a00015 	bnez	sp,800a0 <_fail>
   8004c:	3c020008 	lui	v1,0x8
   80050:	24420068 	addiu	v1,v1,104
   80054:	00000000 	nop
   80058:	00000000 	nop
   8005c:	00400008 	jr	v1
   80060:	241d0021 	li	sp,33
   80064:	17a0000e 	bnez	sp,800a0 <_fail>
   80068:	24020001 	li	v1,1
   8006c:	3c030008 	lui	a0,0x8
   80070:	24630088 	addiu	a0,a0,136
   80074:	00600008 	jr	a0
   80078:	24420001 	addiu	v1,v1,1
   8007c:	24420001 	addiu	v1,v1,1
   80080:	24420001 	addiu	v1,v1,1
   80084:	24420001 	addiu	v1,v1,1
   80088:	24420001 	addiu	v1,v1,1
   8008c:	24420001 	addiu	v1,v1,1
   80090:	241d002e 	li	sp,46
   80094:	241e0003 	li	at,3
   80098:	145e0001 	bne	v1,at,800a0 <_fail>

0008009c <_pass>:
   8009c:	241d0001 	li	sp,1

000800a0 <_fail>:
   800a0:	24020001 	li	v1,1
   800a4:	409da800 	mtc0	sp,c0_staten
   800a8:	1402ffff 	bne	zero,v1,800a8 <_fail+0x8>
   800ac:	00000000 	nop
   800b0:	00000000 	nop
   800b4:	00000000 	nop
   800b8:	00000000 	nop
   800bc:	00000000 	nop
   800c0:	00000000 	nop
   800c4:	00000000 	nop
   800c8:	00000000 	nop
   800cc:	00000000 	nop
   800d0:	00000000 	nop
   800d4:	00000000 	nop
   800d8:	00000000 	nop
   800dc:	00000000 	nop
   800e0:	00000000 	nop
   800e4:	00000000 	nop
   800e8:	00000000 	nop
   800ec:	00000000 	nop
   800f0:	00000000 	nop
   800f4:	00000000 	nop
   800f8:	00000000 	nop
   800fc:	00000000 	nop
   80100:	00000000 	nop
   80104:	00000000 	nop
   80108:	00000000 	nop
   8010c:	00000000 	nop
   80110:	00000000 	nop
   80114:	00000000 	nop
   80118:	00000000 	nop
   8011c:	00000000 	nop
   80120:	00000000 	nop
   80124:	00000000 	nop
   80128:	00000000 	nop
   8012c:	00000000 	nop
   80130:	00000000 	nop
   80134:	00000000 	nop
   80138:	00000000 	nop
   8013c:	00000000 	nop
   80140:	00000000 	nop
   80144:	00000000 	nop
   80148:	00000000 	nop
   8014c:	00000000 	nop
