
bin/parcv2-j:     file format elf32-littlemips


Disassembly of section .text:

00080000 <_test>:
   80000:	241d000d 	li	sp,13
   80004:	08020003 	j	8000c <test>
   80008:	0802000f 	j	8003c <_fail>

0008000c <test>:
   8000c:	24020001 	li	v1,1
   80010:	08020009 	j	80024 <test+0x18>
   80014:	24420001 	addiu	v1,v1,1
   80018:	24420001 	addiu	v1,v1,1
   8001c:	24420001 	addiu	v1,v1,1
   80020:	24420001 	addiu	v1,v1,1
   80024:	24420001 	addiu	v1,v1,1
   80028:	24420001 	addiu	v1,v1,1
   8002c:	241d001e 	li	sp,30
   80030:	241e0003 	li	at,3
   80034:	145e0001 	bne	v1,at,8003c <_fail>

00080038 <_pass>:
   80038:	241d0001 	li	sp,1

0008003c <_fail>:
   8003c:	24020001 	li	v1,1
   80040:	409da800 	mtc0	sp,c0_staten
   80044:	1402ffff 	bne	zero,v1,80044 <_fail+0x8>
   80048:	00000000 	nop
   8004c:	00000000 	nop
   80050:	00000000 	nop
   80054:	00000000 	nop
   80058:	00000000 	nop
   8005c:	00000000 	nop
   80060:	00000000 	nop
   80064:	00000000 	nop
   80068:	00000000 	nop
   8006c:	00000000 	nop
   80070:	00000000 	nop
   80074:	00000000 	nop
   80078:	00000000 	nop
   8007c:	00000000 	nop
   80080:	00000000 	nop
   80084:	00000000 	nop
   80088:	00000000 	nop
   8008c:	00000000 	nop
   80090:	00000000 	nop
   80094:	00000000 	nop
   80098:	00000000 	nop
   8009c:	00000000 	nop
   800a0:	00000000 	nop
   800a4:	00000000 	nop
   800a8:	00000000 	nop
   800ac:	00000000 	nop
   800b0:	00000000 	nop
   800b4:	00000000 	nop
   800b8:	00000000 	nop
   800bc:	00000000 	nop
   800c0:	00000000 	nop
   800c4:	00000000 	nop
   800c8:	00000000 	nop
   800cc:	00000000 	nop
   800d0:	00000000 	nop
   800d4:	00000000 	nop
   800d8:	00000000 	nop
   800dc:	00000000 	nop
   800e0:	00000000 	nop
   800e4:	00000000 	nop
   800e8:	00000000 	nop
   800ec:	00000000 	nop
